
arrow_mouse:     file format elf64-x86-64


Disassembly of section .init:

0000000000004000 <_init>:
    4000:	f3 0f 1e fa          	endbr64 
    4004:	48 83 ec 08          	sub    $0x8,%rsp
    4008:	48 8b 05 b1 cf 00 00 	mov    0xcfb1(%rip),%rax        # 10fc0 <__gmon_start__>
    400f:	48 85 c0             	test   %rax,%rax
    4012:	74 02                	je     4016 <_init+0x16>
    4014:	ff d0                	callq  *%rax
    4016:	48 83 c4 08          	add    $0x8,%rsp
    401a:	c3                   	retq   

Disassembly of section .plt:

0000000000004020 <.plt>:
    4020:	ff 35 82 cc 00 00    	pushq  0xcc82(%rip)        # 10ca8 <_GLOBAL_OFFSET_TABLE_+0x8>
    4026:	f2 ff 25 83 cc 00 00 	bnd jmpq *0xcc83(%rip)        # 10cb0 <_GLOBAL_OFFSET_TABLE_+0x10>
    402d:	0f 1f 00             	nopl   (%rax)
    4030:	f3 0f 1e fa          	endbr64 
    4034:	68 00 00 00 00       	pushq  $0x0
    4039:	f2 e9 e1 ff ff ff    	bnd jmpq 4020 <.plt>
    403f:	90                   	nop
    4040:	f3 0f 1e fa          	endbr64 
    4044:	68 01 00 00 00       	pushq  $0x1
    4049:	f2 e9 d1 ff ff ff    	bnd jmpq 4020 <.plt>
    404f:	90                   	nop
    4050:	f3 0f 1e fa          	endbr64 
    4054:	68 02 00 00 00       	pushq  $0x2
    4059:	f2 e9 c1 ff ff ff    	bnd jmpq 4020 <.plt>
    405f:	90                   	nop
    4060:	f3 0f 1e fa          	endbr64 
    4064:	68 03 00 00 00       	pushq  $0x3
    4069:	f2 e9 b1 ff ff ff    	bnd jmpq 4020 <.plt>
    406f:	90                   	nop
    4070:	f3 0f 1e fa          	endbr64 
    4074:	68 04 00 00 00       	pushq  $0x4
    4079:	f2 e9 a1 ff ff ff    	bnd jmpq 4020 <.plt>
    407f:	90                   	nop
    4080:	f3 0f 1e fa          	endbr64 
    4084:	68 05 00 00 00       	pushq  $0x5
    4089:	f2 e9 91 ff ff ff    	bnd jmpq 4020 <.plt>
    408f:	90                   	nop
    4090:	f3 0f 1e fa          	endbr64 
    4094:	68 06 00 00 00       	pushq  $0x6
    4099:	f2 e9 81 ff ff ff    	bnd jmpq 4020 <.plt>
    409f:	90                   	nop
    40a0:	f3 0f 1e fa          	endbr64 
    40a4:	68 07 00 00 00       	pushq  $0x7
    40a9:	f2 e9 71 ff ff ff    	bnd jmpq 4020 <.plt>
    40af:	90                   	nop
    40b0:	f3 0f 1e fa          	endbr64 
    40b4:	68 08 00 00 00       	pushq  $0x8
    40b9:	f2 e9 61 ff ff ff    	bnd jmpq 4020 <.plt>
    40bf:	90                   	nop
    40c0:	f3 0f 1e fa          	endbr64 
    40c4:	68 09 00 00 00       	pushq  $0x9
    40c9:	f2 e9 51 ff ff ff    	bnd jmpq 4020 <.plt>
    40cf:	90                   	nop
    40d0:	f3 0f 1e fa          	endbr64 
    40d4:	68 0a 00 00 00       	pushq  $0xa
    40d9:	f2 e9 41 ff ff ff    	bnd jmpq 4020 <.plt>
    40df:	90                   	nop
    40e0:	f3 0f 1e fa          	endbr64 
    40e4:	68 0b 00 00 00       	pushq  $0xb
    40e9:	f2 e9 31 ff ff ff    	bnd jmpq 4020 <.plt>
    40ef:	90                   	nop
    40f0:	f3 0f 1e fa          	endbr64 
    40f4:	68 0c 00 00 00       	pushq  $0xc
    40f9:	f2 e9 21 ff ff ff    	bnd jmpq 4020 <.plt>
    40ff:	90                   	nop
    4100:	f3 0f 1e fa          	endbr64 
    4104:	68 0d 00 00 00       	pushq  $0xd
    4109:	f2 e9 11 ff ff ff    	bnd jmpq 4020 <.plt>
    410f:	90                   	nop
    4110:	f3 0f 1e fa          	endbr64 
    4114:	68 0e 00 00 00       	pushq  $0xe
    4119:	f2 e9 01 ff ff ff    	bnd jmpq 4020 <.plt>
    411f:	90                   	nop
    4120:	f3 0f 1e fa          	endbr64 
    4124:	68 0f 00 00 00       	pushq  $0xf
    4129:	f2 e9 f1 fe ff ff    	bnd jmpq 4020 <.plt>
    412f:	90                   	nop
    4130:	f3 0f 1e fa          	endbr64 
    4134:	68 10 00 00 00       	pushq  $0x10
    4139:	f2 e9 e1 fe ff ff    	bnd jmpq 4020 <.plt>
    413f:	90                   	nop
    4140:	f3 0f 1e fa          	endbr64 
    4144:	68 11 00 00 00       	pushq  $0x11
    4149:	f2 e9 d1 fe ff ff    	bnd jmpq 4020 <.plt>
    414f:	90                   	nop
    4150:	f3 0f 1e fa          	endbr64 
    4154:	68 12 00 00 00       	pushq  $0x12
    4159:	f2 e9 c1 fe ff ff    	bnd jmpq 4020 <.plt>
    415f:	90                   	nop
    4160:	f3 0f 1e fa          	endbr64 
    4164:	68 13 00 00 00       	pushq  $0x13
    4169:	f2 e9 b1 fe ff ff    	bnd jmpq 4020 <.plt>
    416f:	90                   	nop
    4170:	f3 0f 1e fa          	endbr64 
    4174:	68 14 00 00 00       	pushq  $0x14
    4179:	f2 e9 a1 fe ff ff    	bnd jmpq 4020 <.plt>
    417f:	90                   	nop
    4180:	f3 0f 1e fa          	endbr64 
    4184:	68 15 00 00 00       	pushq  $0x15
    4189:	f2 e9 91 fe ff ff    	bnd jmpq 4020 <.plt>
    418f:	90                   	nop
    4190:	f3 0f 1e fa          	endbr64 
    4194:	68 16 00 00 00       	pushq  $0x16
    4199:	f2 e9 81 fe ff ff    	bnd jmpq 4020 <.plt>
    419f:	90                   	nop
    41a0:	f3 0f 1e fa          	endbr64 
    41a4:	68 17 00 00 00       	pushq  $0x17
    41a9:	f2 e9 71 fe ff ff    	bnd jmpq 4020 <.plt>
    41af:	90                   	nop
    41b0:	f3 0f 1e fa          	endbr64 
    41b4:	68 18 00 00 00       	pushq  $0x18
    41b9:	f2 e9 61 fe ff ff    	bnd jmpq 4020 <.plt>
    41bf:	90                   	nop
    41c0:	f3 0f 1e fa          	endbr64 
    41c4:	68 19 00 00 00       	pushq  $0x19
    41c9:	f2 e9 51 fe ff ff    	bnd jmpq 4020 <.plt>
    41cf:	90                   	nop
    41d0:	f3 0f 1e fa          	endbr64 
    41d4:	68 1a 00 00 00       	pushq  $0x1a
    41d9:	f2 e9 41 fe ff ff    	bnd jmpq 4020 <.plt>
    41df:	90                   	nop
    41e0:	f3 0f 1e fa          	endbr64 
    41e4:	68 1b 00 00 00       	pushq  $0x1b
    41e9:	f2 e9 31 fe ff ff    	bnd jmpq 4020 <.plt>
    41ef:	90                   	nop
    41f0:	f3 0f 1e fa          	endbr64 
    41f4:	68 1c 00 00 00       	pushq  $0x1c
    41f9:	f2 e9 21 fe ff ff    	bnd jmpq 4020 <.plt>
    41ff:	90                   	nop
    4200:	f3 0f 1e fa          	endbr64 
    4204:	68 1d 00 00 00       	pushq  $0x1d
    4209:	f2 e9 11 fe ff ff    	bnd jmpq 4020 <.plt>
    420f:	90                   	nop
    4210:	f3 0f 1e fa          	endbr64 
    4214:	68 1e 00 00 00       	pushq  $0x1e
    4219:	f2 e9 01 fe ff ff    	bnd jmpq 4020 <.plt>
    421f:	90                   	nop
    4220:	f3 0f 1e fa          	endbr64 
    4224:	68 1f 00 00 00       	pushq  $0x1f
    4229:	f2 e9 f1 fd ff ff    	bnd jmpq 4020 <.plt>
    422f:	90                   	nop
    4230:	f3 0f 1e fa          	endbr64 
    4234:	68 20 00 00 00       	pushq  $0x20
    4239:	f2 e9 e1 fd ff ff    	bnd jmpq 4020 <.plt>
    423f:	90                   	nop
    4240:	f3 0f 1e fa          	endbr64 
    4244:	68 21 00 00 00       	pushq  $0x21
    4249:	f2 e9 d1 fd ff ff    	bnd jmpq 4020 <.plt>
    424f:	90                   	nop
    4250:	f3 0f 1e fa          	endbr64 
    4254:	68 22 00 00 00       	pushq  $0x22
    4259:	f2 e9 c1 fd ff ff    	bnd jmpq 4020 <.plt>
    425f:	90                   	nop
    4260:	f3 0f 1e fa          	endbr64 
    4264:	68 23 00 00 00       	pushq  $0x23
    4269:	f2 e9 b1 fd ff ff    	bnd jmpq 4020 <.plt>
    426f:	90                   	nop
    4270:	f3 0f 1e fa          	endbr64 
    4274:	68 24 00 00 00       	pushq  $0x24
    4279:	f2 e9 a1 fd ff ff    	bnd jmpq 4020 <.plt>
    427f:	90                   	nop
    4280:	f3 0f 1e fa          	endbr64 
    4284:	68 25 00 00 00       	pushq  $0x25
    4289:	f2 e9 91 fd ff ff    	bnd jmpq 4020 <.plt>
    428f:	90                   	nop
    4290:	f3 0f 1e fa          	endbr64 
    4294:	68 26 00 00 00       	pushq  $0x26
    4299:	f2 e9 81 fd ff ff    	bnd jmpq 4020 <.plt>
    429f:	90                   	nop
    42a0:	f3 0f 1e fa          	endbr64 
    42a4:	68 27 00 00 00       	pushq  $0x27
    42a9:	f2 e9 71 fd ff ff    	bnd jmpq 4020 <.plt>
    42af:	90                   	nop
    42b0:	f3 0f 1e fa          	endbr64 
    42b4:	68 28 00 00 00       	pushq  $0x28
    42b9:	f2 e9 61 fd ff ff    	bnd jmpq 4020 <.plt>
    42bf:	90                   	nop
    42c0:	f3 0f 1e fa          	endbr64 
    42c4:	68 29 00 00 00       	pushq  $0x29
    42c9:	f2 e9 51 fd ff ff    	bnd jmpq 4020 <.plt>
    42cf:	90                   	nop
    42d0:	f3 0f 1e fa          	endbr64 
    42d4:	68 2a 00 00 00       	pushq  $0x2a
    42d9:	f2 e9 41 fd ff ff    	bnd jmpq 4020 <.plt>
    42df:	90                   	nop
    42e0:	f3 0f 1e fa          	endbr64 
    42e4:	68 2b 00 00 00       	pushq  $0x2b
    42e9:	f2 e9 31 fd ff ff    	bnd jmpq 4020 <.plt>
    42ef:	90                   	nop
    42f0:	f3 0f 1e fa          	endbr64 
    42f4:	68 2c 00 00 00       	pushq  $0x2c
    42f9:	f2 e9 21 fd ff ff    	bnd jmpq 4020 <.plt>
    42ff:	90                   	nop
    4300:	f3 0f 1e fa          	endbr64 
    4304:	68 2d 00 00 00       	pushq  $0x2d
    4309:	f2 e9 11 fd ff ff    	bnd jmpq 4020 <.plt>
    430f:	90                   	nop
    4310:	f3 0f 1e fa          	endbr64 
    4314:	68 2e 00 00 00       	pushq  $0x2e
    4319:	f2 e9 01 fd ff ff    	bnd jmpq 4020 <.plt>
    431f:	90                   	nop
    4320:	f3 0f 1e fa          	endbr64 
    4324:	68 2f 00 00 00       	pushq  $0x2f
    4329:	f2 e9 f1 fc ff ff    	bnd jmpq 4020 <.plt>
    432f:	90                   	nop
    4330:	f3 0f 1e fa          	endbr64 
    4334:	68 30 00 00 00       	pushq  $0x30
    4339:	f2 e9 e1 fc ff ff    	bnd jmpq 4020 <.plt>
    433f:	90                   	nop
    4340:	f3 0f 1e fa          	endbr64 
    4344:	68 31 00 00 00       	pushq  $0x31
    4349:	f2 e9 d1 fc ff ff    	bnd jmpq 4020 <.plt>
    434f:	90                   	nop
    4350:	f3 0f 1e fa          	endbr64 
    4354:	68 32 00 00 00       	pushq  $0x32
    4359:	f2 e9 c1 fc ff ff    	bnd jmpq 4020 <.plt>
    435f:	90                   	nop
    4360:	f3 0f 1e fa          	endbr64 
    4364:	68 33 00 00 00       	pushq  $0x33
    4369:	f2 e9 b1 fc ff ff    	bnd jmpq 4020 <.plt>
    436f:	90                   	nop
    4370:	f3 0f 1e fa          	endbr64 
    4374:	68 34 00 00 00       	pushq  $0x34
    4379:	f2 e9 a1 fc ff ff    	bnd jmpq 4020 <.plt>
    437f:	90                   	nop
    4380:	f3 0f 1e fa          	endbr64 
    4384:	68 35 00 00 00       	pushq  $0x35
    4389:	f2 e9 91 fc ff ff    	bnd jmpq 4020 <.plt>
    438f:	90                   	nop
    4390:	f3 0f 1e fa          	endbr64 
    4394:	68 36 00 00 00       	pushq  $0x36
    4399:	f2 e9 81 fc ff ff    	bnd jmpq 4020 <.plt>
    439f:	90                   	nop
    43a0:	f3 0f 1e fa          	endbr64 
    43a4:	68 37 00 00 00       	pushq  $0x37
    43a9:	f2 e9 71 fc ff ff    	bnd jmpq 4020 <.plt>
    43af:	90                   	nop
    43b0:	f3 0f 1e fa          	endbr64 
    43b4:	68 38 00 00 00       	pushq  $0x38
    43b9:	f2 e9 61 fc ff ff    	bnd jmpq 4020 <.plt>
    43bf:	90                   	nop
    43c0:	f3 0f 1e fa          	endbr64 
    43c4:	68 39 00 00 00       	pushq  $0x39
    43c9:	f2 e9 51 fc ff ff    	bnd jmpq 4020 <.plt>
    43cf:	90                   	nop
    43d0:	f3 0f 1e fa          	endbr64 
    43d4:	68 3a 00 00 00       	pushq  $0x3a
    43d9:	f2 e9 41 fc ff ff    	bnd jmpq 4020 <.plt>
    43df:	90                   	nop
    43e0:	f3 0f 1e fa          	endbr64 
    43e4:	68 3b 00 00 00       	pushq  $0x3b
    43e9:	f2 e9 31 fc ff ff    	bnd jmpq 4020 <.plt>
    43ef:	90                   	nop
    43f0:	f3 0f 1e fa          	endbr64 
    43f4:	68 3c 00 00 00       	pushq  $0x3c
    43f9:	f2 e9 21 fc ff ff    	bnd jmpq 4020 <.plt>
    43ff:	90                   	nop
    4400:	f3 0f 1e fa          	endbr64 
    4404:	68 3d 00 00 00       	pushq  $0x3d
    4409:	f2 e9 11 fc ff ff    	bnd jmpq 4020 <.plt>
    440f:	90                   	nop
    4410:	f3 0f 1e fa          	endbr64 
    4414:	68 3e 00 00 00       	pushq  $0x3e
    4419:	f2 e9 01 fc ff ff    	bnd jmpq 4020 <.plt>
    441f:	90                   	nop
    4420:	f3 0f 1e fa          	endbr64 
    4424:	68 3f 00 00 00       	pushq  $0x3f
    4429:	f2 e9 f1 fb ff ff    	bnd jmpq 4020 <.plt>
    442f:	90                   	nop
    4430:	f3 0f 1e fa          	endbr64 
    4434:	68 40 00 00 00       	pushq  $0x40
    4439:	f2 e9 e1 fb ff ff    	bnd jmpq 4020 <.plt>
    443f:	90                   	nop
    4440:	f3 0f 1e fa          	endbr64 
    4444:	68 41 00 00 00       	pushq  $0x41
    4449:	f2 e9 d1 fb ff ff    	bnd jmpq 4020 <.plt>
    444f:	90                   	nop
    4450:	f3 0f 1e fa          	endbr64 
    4454:	68 42 00 00 00       	pushq  $0x42
    4459:	f2 e9 c1 fb ff ff    	bnd jmpq 4020 <.plt>
    445f:	90                   	nop
    4460:	f3 0f 1e fa          	endbr64 
    4464:	68 43 00 00 00       	pushq  $0x43
    4469:	f2 e9 b1 fb ff ff    	bnd jmpq 4020 <.plt>
    446f:	90                   	nop
    4470:	f3 0f 1e fa          	endbr64 
    4474:	68 44 00 00 00       	pushq  $0x44
    4479:	f2 e9 a1 fb ff ff    	bnd jmpq 4020 <.plt>
    447f:	90                   	nop
    4480:	f3 0f 1e fa          	endbr64 
    4484:	68 45 00 00 00       	pushq  $0x45
    4489:	f2 e9 91 fb ff ff    	bnd jmpq 4020 <.plt>
    448f:	90                   	nop
    4490:	f3 0f 1e fa          	endbr64 
    4494:	68 46 00 00 00       	pushq  $0x46
    4499:	f2 e9 81 fb ff ff    	bnd jmpq 4020 <.plt>
    449f:	90                   	nop
    44a0:	f3 0f 1e fa          	endbr64 
    44a4:	68 47 00 00 00       	pushq  $0x47
    44a9:	f2 e9 71 fb ff ff    	bnd jmpq 4020 <.plt>
    44af:	90                   	nop
    44b0:	f3 0f 1e fa          	endbr64 
    44b4:	68 48 00 00 00       	pushq  $0x48
    44b9:	f2 e9 61 fb ff ff    	bnd jmpq 4020 <.plt>
    44bf:	90                   	nop
    44c0:	f3 0f 1e fa          	endbr64 
    44c4:	68 49 00 00 00       	pushq  $0x49
    44c9:	f2 e9 51 fb ff ff    	bnd jmpq 4020 <.plt>
    44cf:	90                   	nop
    44d0:	f3 0f 1e fa          	endbr64 
    44d4:	68 4a 00 00 00       	pushq  $0x4a
    44d9:	f2 e9 41 fb ff ff    	bnd jmpq 4020 <.plt>
    44df:	90                   	nop
    44e0:	f3 0f 1e fa          	endbr64 
    44e4:	68 4b 00 00 00       	pushq  $0x4b
    44e9:	f2 e9 31 fb ff ff    	bnd jmpq 4020 <.plt>
    44ef:	90                   	nop
    44f0:	f3 0f 1e fa          	endbr64 
    44f4:	68 4c 00 00 00       	pushq  $0x4c
    44f9:	f2 e9 21 fb ff ff    	bnd jmpq 4020 <.plt>
    44ff:	90                   	nop
    4500:	f3 0f 1e fa          	endbr64 
    4504:	68 4d 00 00 00       	pushq  $0x4d
    4509:	f2 e9 11 fb ff ff    	bnd jmpq 4020 <.plt>
    450f:	90                   	nop
    4510:	f3 0f 1e fa          	endbr64 
    4514:	68 4e 00 00 00       	pushq  $0x4e
    4519:	f2 e9 01 fb ff ff    	bnd jmpq 4020 <.plt>
    451f:	90                   	nop
    4520:	f3 0f 1e fa          	endbr64 
    4524:	68 4f 00 00 00       	pushq  $0x4f
    4529:	f2 e9 f1 fa ff ff    	bnd jmpq 4020 <.plt>
    452f:	90                   	nop
    4530:	f3 0f 1e fa          	endbr64 
    4534:	68 50 00 00 00       	pushq  $0x50
    4539:	f2 e9 e1 fa ff ff    	bnd jmpq 4020 <.plt>
    453f:	90                   	nop
    4540:	f3 0f 1e fa          	endbr64 
    4544:	68 51 00 00 00       	pushq  $0x51
    4549:	f2 e9 d1 fa ff ff    	bnd jmpq 4020 <.plt>
    454f:	90                   	nop
    4550:	f3 0f 1e fa          	endbr64 
    4554:	68 52 00 00 00       	pushq  $0x52
    4559:	f2 e9 c1 fa ff ff    	bnd jmpq 4020 <.plt>
    455f:	90                   	nop
    4560:	f3 0f 1e fa          	endbr64 
    4564:	68 53 00 00 00       	pushq  $0x53
    4569:	f2 e9 b1 fa ff ff    	bnd jmpq 4020 <.plt>
    456f:	90                   	nop
    4570:	f3 0f 1e fa          	endbr64 
    4574:	68 54 00 00 00       	pushq  $0x54
    4579:	f2 e9 a1 fa ff ff    	bnd jmpq 4020 <.plt>
    457f:	90                   	nop
    4580:	f3 0f 1e fa          	endbr64 
    4584:	68 55 00 00 00       	pushq  $0x55
    4589:	f2 e9 91 fa ff ff    	bnd jmpq 4020 <.plt>
    458f:	90                   	nop
    4590:	f3 0f 1e fa          	endbr64 
    4594:	68 56 00 00 00       	pushq  $0x56
    4599:	f2 e9 81 fa ff ff    	bnd jmpq 4020 <.plt>
    459f:	90                   	nop
    45a0:	f3 0f 1e fa          	endbr64 
    45a4:	68 57 00 00 00       	pushq  $0x57
    45a9:	f2 e9 71 fa ff ff    	bnd jmpq 4020 <.plt>
    45af:	90                   	nop
    45b0:	f3 0f 1e fa          	endbr64 
    45b4:	68 58 00 00 00       	pushq  $0x58
    45b9:	f2 e9 61 fa ff ff    	bnd jmpq 4020 <.plt>
    45bf:	90                   	nop
    45c0:	f3 0f 1e fa          	endbr64 
    45c4:	68 59 00 00 00       	pushq  $0x59
    45c9:	f2 e9 51 fa ff ff    	bnd jmpq 4020 <.plt>
    45cf:	90                   	nop
    45d0:	f3 0f 1e fa          	endbr64 
    45d4:	68 5a 00 00 00       	pushq  $0x5a
    45d9:	f2 e9 41 fa ff ff    	bnd jmpq 4020 <.plt>
    45df:	90                   	nop
    45e0:	f3 0f 1e fa          	endbr64 
    45e4:	68 5b 00 00 00       	pushq  $0x5b
    45e9:	f2 e9 31 fa ff ff    	bnd jmpq 4020 <.plt>
    45ef:	90                   	nop
    45f0:	f3 0f 1e fa          	endbr64 
    45f4:	68 5c 00 00 00       	pushq  $0x5c
    45f9:	f2 e9 21 fa ff ff    	bnd jmpq 4020 <.plt>
    45ff:	90                   	nop
    4600:	f3 0f 1e fa          	endbr64 
    4604:	68 5d 00 00 00       	pushq  $0x5d
    4609:	f2 e9 11 fa ff ff    	bnd jmpq 4020 <.plt>
    460f:	90                   	nop
    4610:	f3 0f 1e fa          	endbr64 
    4614:	68 5e 00 00 00       	pushq  $0x5e
    4619:	f2 e9 01 fa ff ff    	bnd jmpq 4020 <.plt>
    461f:	90                   	nop
    4620:	f3 0f 1e fa          	endbr64 
    4624:	68 5f 00 00 00       	pushq  $0x5f
    4629:	f2 e9 f1 f9 ff ff    	bnd jmpq 4020 <.plt>
    462f:	90                   	nop
    4630:	f3 0f 1e fa          	endbr64 
    4634:	68 60 00 00 00       	pushq  $0x60
    4639:	f2 e9 e1 f9 ff ff    	bnd jmpq 4020 <.plt>
    463f:	90                   	nop

Disassembly of section .plt.got:

0000000000004640 <__cxa_finalize@plt>:
    4640:	f3 0f 1e fa          	endbr64 
    4644:	f2 ff 25 9d c9 00 00 	bnd jmpq *0xc99d(%rip)        # 10fe8 <__cxa_finalize@GLIBC_2.2.5>
    464b:	0f 1f 44 00 00       	nopl   0x0(%rax,%rax,1)

0000000000004650 <PyNumber_Add@plt>:
    4650:	f3 0f 1e fa          	endbr64 
    4654:	f2 ff 25 9d c9 00 00 	bnd jmpq *0xc99d(%rip)        # 10ff8 <PyNumber_Add>
    465b:	0f 1f 44 00 00       	nopl   0x0(%rax,%rax,1)

Disassembly of section .plt.sec:

0000000000004660 <PyInterpreterState_GetID@plt>:
    4660:	f3 0f 1e fa          	endbr64 
    4664:	f2 ff 25 4d c6 00 00 	bnd jmpq *0xc64d(%rip)        # 10cb8 <PyInterpreterState_GetID>
    466b:	0f 1f 44 00 00       	nopl   0x0(%rax,%rax,1)

0000000000004670 <PyDict_SetItemString@plt>:
    4670:	f3 0f 1e fa          	endbr64 
    4674:	f2 ff 25 45 c6 00 00 	bnd jmpq *0xc645(%rip)        # 10cc0 <PyDict_SetItemString>
    467b:	0f 1f 44 00 00       	nopl   0x0(%rax,%rax,1)

0000000000004680 <PyUnicode_Compare@plt>:
    4680:	f3 0f 1e fa          	endbr64 
    4684:	f2 ff 25 3d c6 00 00 	bnd jmpq *0xc63d(%rip)        # 10cc8 <PyUnicode_Compare>
    468b:	0f 1f 44 00 00       	nopl   0x0(%rax,%rax,1)

0000000000004690 <PyFrame_New@plt>:
    4690:	f3 0f 1e fa          	endbr64 
    4694:	f2 ff 25 35 c6 00 00 	bnd jmpq *0xc635(%rip)        # 10cd0 <PyFrame_New>
    469b:	0f 1f 44 00 00       	nopl   0x0(%rax,%rax,1)

00000000000046a0 <PyModule_NewObject@plt>:
    46a0:	f3 0f 1e fa          	endbr64 
    46a4:	f2 ff 25 2d c6 00 00 	bnd jmpq *0xc62d(%rip)        # 10cd8 <PyModule_NewObject>
    46ab:	0f 1f 44 00 00       	nopl   0x0(%rax,%rax,1)

00000000000046b0 <mbrtowc@plt>:
    46b0:	f3 0f 1e fa          	endbr64 
    46b4:	f2 ff 25 25 c6 00 00 	bnd jmpq *0xc625(%rip)        # 10ce0 <mbrtowc@GLIBC_2.2.5>
    46bb:	0f 1f 44 00 00       	nopl   0x0(%rax,%rax,1)

00000000000046c0 <PyModule_ExecDef@plt>:
    46c0:	f3 0f 1e fa          	endbr64 
    46c4:	f2 ff 25 1d c6 00 00 	bnd jmpq *0xc61d(%rip)        # 10ce8 <PyModule_ExecDef>
    46cb:	0f 1f 44 00 00       	nopl   0x0(%rax,%rax,1)

00000000000046d0 <PyType_Ready@plt>:
    46d0:	f3 0f 1e fa          	endbr64 
    46d4:	f2 ff 25 15 c6 00 00 	bnd jmpq *0xc615(%rip)        # 10cf0 <PyType_Ready>
    46db:	0f 1f 44 00 00       	nopl   0x0(%rax,%rax,1)

00000000000046e0 <PySys_SetArgv@plt>:
    46e0:	f3 0f 1e fa          	endbr64 
    46e4:	f2 ff 25 0d c6 00 00 	bnd jmpq *0xc60d(%rip)        # 10cf8 <PySys_SetArgv>
    46eb:	0f 1f 44 00 00       	nopl   0x0(%rax,%rax,1)

00000000000046f0 <__assert_fail@plt>:
    46f0:	f3 0f 1e fa          	endbr64 
    46f4:	f2 ff 25 05 c6 00 00 	bnd jmpq *0xc605(%rip)        # 10d00 <__assert_fail@GLIBC_2.2.5>
    46fb:	0f 1f 44 00 00       	nopl   0x0(%rax,%rax,1)

0000000000004700 <PyUnicode_FromString@plt>:
    4700:	f3 0f 1e fa          	endbr64 
    4704:	f2 ff 25 fd c5 00 00 	bnd jmpq *0xc5fd(%rip)        # 10d08 <PyUnicode_FromString>
    470b:	0f 1f 44 00 00       	nopl   0x0(%rax,%rax,1)

0000000000004710 <PyObject_GC_Del@plt>:
    4710:	f3 0f 1e fa          	endbr64 
    4714:	f2 ff 25 f5 c5 00 00 	bnd jmpq *0xc5f5(%rip)        # 10d10 <PyObject_GC_Del>
    471b:	0f 1f 44 00 00       	nopl   0x0(%rax,%rax,1)

0000000000004720 <PyObject_GC_UnTrack@plt>:
    4720:	f3 0f 1e fa          	endbr64 
    4724:	f2 ff 25 ed c5 00 00 	bnd jmpq *0xc5ed(%rip)        # 10d18 <PyObject_GC_UnTrack>
    472b:	0f 1f 44 00 00       	nopl   0x0(%rax,%rax,1)

0000000000004730 <_PyObject_GetDictPtr@plt>:
    4730:	f3 0f 1e fa          	endbr64 
    4734:	f2 ff 25 e5 c5 00 00 	bnd jmpq *0xc5e5(%rip)        # 10d20 <_PyObject_GetDictPtr>
    473b:	0f 1f 44 00 00       	nopl   0x0(%rax,%rax,1)

0000000000004740 <PyObject_IsTrue@plt>:
    4740:	f3 0f 1e fa          	endbr64 
    4744:	f2 ff 25 dd c5 00 00 	bnd jmpq *0xc5dd(%rip)        # 10d28 <PyObject_IsTrue>
    474b:	0f 1f 44 00 00       	nopl   0x0(%rax,%rax,1)

0000000000004750 <malloc@plt>:
    4750:	f3 0f 1e fa          	endbr64 
    4754:	f2 ff 25 d5 c5 00 00 	bnd jmpq *0xc5d5(%rip)        # 10d30 <malloc@GLIBC_2.2.5>
    475b:	0f 1f 44 00 00       	nopl   0x0(%rax,%rax,1)

0000000000004760 <PyMem_Realloc@plt>:
    4760:	f3 0f 1e fa          	endbr64 
    4764:	f2 ff 25 cd c5 00 00 	bnd jmpq *0xc5cd(%rip)        # 10d38 <PyMem_Realloc>
    476b:	0f 1f 44 00 00       	nopl   0x0(%rax,%rax,1)

0000000000004770 <PyObject_Not@plt>:
    4770:	f3 0f 1e fa          	endbr64 
    4774:	f2 ff 25 c5 c5 00 00 	bnd jmpq *0xc5c5(%rip)        # 10d40 <PyObject_Not>
    477b:	0f 1f 44 00 00       	nopl   0x0(%rax,%rax,1)

0000000000004780 <PyErr_GivenExceptionMatches@plt>:
    4780:	f3 0f 1e fa          	endbr64 
    4784:	f2 ff 25 bd c5 00 00 	bnd jmpq *0xc5bd(%rip)        # 10d48 <PyErr_GivenExceptionMatches>
    478b:	0f 1f 44 00 00       	nopl   0x0(%rax,%rax,1)

0000000000004790 <PyOS_snprintf@plt>:
    4790:	f3 0f 1e fa          	endbr64 
    4794:	f2 ff 25 b5 c5 00 00 	bnd jmpq *0xc5b5(%rip)        # 10d50 <PyOS_snprintf>
    479b:	0f 1f 44 00 00       	nopl   0x0(%rax,%rax,1)

00000000000047a0 <PyObject_GetItem@plt>:
    47a0:	f3 0f 1e fa          	endbr64 
    47a4:	f2 ff 25 ad c5 00 00 	bnd jmpq *0xc5ad(%rip)        # 10d58 <PyObject_GetItem>
    47ab:	0f 1f 44 00 00       	nopl   0x0(%rax,%rax,1)

00000000000047b0 <PyUnicode_FromFormat@plt>:
    47b0:	f3 0f 1e fa          	endbr64 
    47b4:	f2 ff 25 a5 c5 00 00 	bnd jmpq *0xc5a5(%rip)        # 10d60 <PyUnicode_FromFormat>
    47bb:	0f 1f 44 00 00       	nopl   0x0(%rax,%rax,1)

00000000000047c0 <PyDict_Next@plt>:
    47c0:	f3 0f 1e fa          	endbr64 
    47c4:	f2 ff 25 9d c5 00 00 	bnd jmpq *0xc59d(%rip)        # 10d68 <PyDict_Next>
    47cb:	0f 1f 44 00 00       	nopl   0x0(%rax,%rax,1)

00000000000047d0 <PyImport_AddModule@plt>:
    47d0:	f3 0f 1e fa          	endbr64 
    47d4:	f2 ff 25 95 c5 00 00 	bnd jmpq *0xc595(%rip)        # 10d70 <PyImport_AddModule>
    47db:	0f 1f 44 00 00       	nopl   0x0(%rax,%rax,1)

00000000000047e0 <PyErr_Format@plt>:
    47e0:	f3 0f 1e fa          	endbr64 
    47e4:	f2 ff 25 8d c5 00 00 	bnd jmpq *0xc58d(%rip)        # 10d78 <PyErr_Format>
    47eb:	0f 1f 44 00 00       	nopl   0x0(%rax,%rax,1)

00000000000047f0 <PyFloat_FromDouble@plt>:
    47f0:	f3 0f 1e fa          	endbr64 
    47f4:	f2 ff 25 85 c5 00 00 	bnd jmpq *0xc585(%rip)        # 10d80 <PyFloat_FromDouble>
    47fb:	0f 1f 44 00 00       	nopl   0x0(%rax,%rax,1)

0000000000004800 <_PyDict_SetItem_KnownHash@plt>:
    4800:	f3 0f 1e fa          	endbr64 
    4804:	f2 ff 25 7d c5 00 00 	bnd jmpq *0xc57d(%rip)        # 10d88 <_PyDict_SetItem_KnownHash>
    480b:	0f 1f 44 00 00       	nopl   0x0(%rax,%rax,1)

0000000000004810 <PyCode_New@plt>:
    4810:	f3 0f 1e fa          	endbr64 
    4814:	f2 ff 25 75 c5 00 00 	bnd jmpq *0xc575(%rip)        # 10d90 <PyCode_New>
    481b:	0f 1f 44 00 00       	nopl   0x0(%rax,%rax,1)

0000000000004820 <Py_SetProgramName@plt>:
    4820:	f3 0f 1e fa          	endbr64 
    4824:	f2 ff 25 6d c5 00 00 	bnd jmpq *0xc56d(%rip)        # 10d98 <Py_SetProgramName>
    482b:	0f 1f 44 00 00       	nopl   0x0(%rax,%rax,1)

0000000000004830 <PyObject_GetAttr@plt>:
    4830:	f3 0f 1e fa          	endbr64 
    4834:	f2 ff 25 65 c5 00 00 	bnd jmpq *0xc565(%rip)        # 10da0 <PyObject_GetAttr>
    483b:	0f 1f 44 00 00       	nopl   0x0(%rax,%rax,1)

0000000000004840 <PyErr_ExceptionMatches@plt>:
    4840:	f3 0f 1e fa          	endbr64 
    4844:	f2 ff 25 5d c5 00 00 	bnd jmpq *0xc55d(%rip)        # 10da8 <PyErr_ExceptionMatches>
    484b:	0f 1f 44 00 00       	nopl   0x0(%rax,%rax,1)

0000000000004850 <PyErr_Occurred@plt>:
    4850:	f3 0f 1e fa          	endbr64 
    4854:	f2 ff 25 55 c5 00 00 	bnd jmpq *0xc555(%rip)        # 10db0 <PyErr_Occurred>
    485b:	0f 1f 44 00 00       	nopl   0x0(%rax,%rax,1)

0000000000004860 <PyTuple_GetSlice@plt>:
    4860:	f3 0f 1e fa          	endbr64 
    4864:	f2 ff 25 4d c5 00 00 	bnd jmpq *0xc54d(%rip)        # 10db8 <PyTuple_GetSlice>
    486b:	0f 1f 44 00 00       	nopl   0x0(%rax,%rax,1)

0000000000004870 <free@plt>:
    4870:	f3 0f 1e fa          	endbr64 
    4874:	f2 ff 25 45 c5 00 00 	bnd jmpq *0xc545(%rip)        # 10dc0 <free@GLIBC_2.2.5>
    487b:	0f 1f 44 00 00       	nopl   0x0(%rax,%rax,1)

0000000000004880 <Py_FinalizeEx@plt>:
    4880:	f3 0f 1e fa          	endbr64 
    4884:	f2 ff 25 3d c5 00 00 	bnd jmpq *0xc53d(%rip)        # 10dc8 <Py_FinalizeEx>
    488b:	0f 1f 44 00 00       	nopl   0x0(%rax,%rax,1)

0000000000004890 <PyNumber_Multiply@plt>:
    4890:	f3 0f 1e fa          	endbr64 
    4894:	f2 ff 25 35 c5 00 00 	bnd jmpq *0xc535(%rip)        # 10dd0 <PyNumber_Multiply>
    489b:	0f 1f 44 00 00       	nopl   0x0(%rax,%rax,1)

00000000000048a0 <PyEval_EvalCodeEx@plt>:
    48a0:	f3 0f 1e fa          	endbr64 
    48a4:	f2 ff 25 2d c5 00 00 	bnd jmpq *0xc52d(%rip)        # 10dd8 <PyEval_EvalCodeEx>
    48ab:	0f 1f 44 00 00       	nopl   0x0(%rax,%rax,1)

00000000000048b0 <PyUnicode_InternFromString@plt>:
    48b0:	f3 0f 1e fa          	endbr64 
    48b4:	f2 ff 25 25 c5 00 00 	bnd jmpq *0xc525(%rip)        # 10de0 <PyUnicode_InternFromString>
    48bb:	0f 1f 44 00 00       	nopl   0x0(%rax,%rax,1)

00000000000048c0 <PyObject_Size@plt>:
    48c0:	f3 0f 1e fa          	endbr64 
    48c4:	f2 ff 25 1d c5 00 00 	bnd jmpq *0xc51d(%rip)        # 10de8 <PyObject_Size>
    48cb:	0f 1f 44 00 00       	nopl   0x0(%rax,%rax,1)

00000000000048d0 <mbstowcs@plt>:
    48d0:	f3 0f 1e fa          	endbr64 
    48d4:	f2 ff 25 15 c5 00 00 	bnd jmpq *0xc515(%rip)        # 10df0 <mbstowcs@GLIBC_2.2.5>
    48db:	0f 1f 44 00 00       	nopl   0x0(%rax,%rax,1)

00000000000048e0 <_PyObject_GC_New@plt>:
    48e0:	f3 0f 1e fa          	endbr64 
    48e4:	f2 ff 25 0d c5 00 00 	bnd jmpq *0xc50d(%rip)        # 10df8 <_PyObject_GC_New>
    48eb:	0f 1f 44 00 00       	nopl   0x0(%rax,%rax,1)

00000000000048f0 <PyTuple_Pack@plt>:
    48f0:	f3 0f 1e fa          	endbr64 
    48f4:	f2 ff 25 05 c5 00 00 	bnd jmpq *0xc505(%rip)        # 10e00 <PyTuple_Pack>
    48fb:	0f 1f 44 00 00       	nopl   0x0(%rax,%rax,1)

0000000000004900 <PyThreadState_Get@plt>:
    4900:	f3 0f 1e fa          	endbr64 
    4904:	f2 ff 25 fd c4 00 00 	bnd jmpq *0xc4fd(%rip)        # 10e08 <PyThreadState_Get>
    490b:	0f 1f 44 00 00       	nopl   0x0(%rax,%rax,1)

0000000000004910 <PyMem_RawFree@plt>:
    4910:	f3 0f 1e fa          	endbr64 
    4914:	f2 ff 25 f5 c4 00 00 	bnd jmpq *0xc4f5(%rip)        # 10e10 <PyMem_RawFree>
    491b:	0f 1f 44 00 00       	nopl   0x0(%rax,%rax,1)

0000000000004920 <PyDict_Size@plt>:
    4920:	f3 0f 1e fa          	endbr64 
    4924:	f2 ff 25 ed c4 00 00 	bnd jmpq *0xc4ed(%rip)        # 10e18 <PyDict_Size>
    492b:	0f 1f 44 00 00       	nopl   0x0(%rax,%rax,1)

0000000000004930 <PyModule_GetDict@plt>:
    4930:	f3 0f 1e fa          	endbr64 
    4934:	f2 ff 25 e5 c4 00 00 	bnd jmpq *0xc4e5(%rip)        # 10e20 <PyModule_GetDict>
    493b:	0f 1f 44 00 00       	nopl   0x0(%rax,%rax,1)

0000000000004940 <PyImport_ImportModuleLevelObject@plt>:
    4940:	f3 0f 1e fa          	endbr64 
    4944:	f2 ff 25 dd c4 00 00 	bnd jmpq *0xc4dd(%rip)        # 10e28 <PyImport_ImportModuleLevelObject>
    494b:	0f 1f 44 00 00       	nopl   0x0(%rax,%rax,1)

0000000000004950 <PyObject_SetItem@plt>:
    4950:	f3 0f 1e fa          	endbr64 
    4954:	f2 ff 25 d5 c4 00 00 	bnd jmpq *0xc4d5(%rip)        # 10e30 <PyObject_SetItem>
    495b:	0f 1f 44 00 00       	nopl   0x0(%rax,%rax,1)

0000000000004960 <PyObject_RichCompare@plt>:
    4960:	f3 0f 1e fa          	endbr64 
    4964:	f2 ff 25 cd c4 00 00 	bnd jmpq *0xc4cd(%rip)        # 10e38 <PyObject_RichCompare>
    496b:	0f 1f 44 00 00       	nopl   0x0(%rax,%rax,1)

0000000000004970 <PyCFunction_NewEx@plt>:
    4970:	f3 0f 1e fa          	endbr64 
    4974:	f2 ff 25 c5 c4 00 00 	bnd jmpq *0xc4c5(%rip)        # 10e40 <PyCFunction_NewEx>
    497b:	0f 1f 44 00 00       	nopl   0x0(%rax,%rax,1)

0000000000004980 <PyObject_GetIter@plt>:
    4980:	f3 0f 1e fa          	endbr64 
    4984:	f2 ff 25 bd c4 00 00 	bnd jmpq *0xc4bd(%rip)        # 10e48 <PyObject_GetIter>
    498b:	0f 1f 44 00 00       	nopl   0x0(%rax,%rax,1)

0000000000004990 <PyType_IsSubtype@plt>:
    4990:	f3 0f 1e fa          	endbr64 
    4994:	f2 ff 25 b5 c4 00 00 	bnd jmpq *0xc4b5(%rip)        # 10e50 <PyType_IsSubtype>
    499b:	0f 1f 44 00 00       	nopl   0x0(%rax,%rax,1)

00000000000049a0 <fputs@plt>:
    49a0:	f3 0f 1e fa          	endbr64 
    49a4:	f2 ff 25 ad c4 00 00 	bnd jmpq *0xc4ad(%rip)        # 10e58 <fputs@GLIBC_2.2.5>
    49ab:	0f 1f 44 00 00       	nopl   0x0(%rax,%rax,1)

00000000000049b0 <PyUnicode_Decode@plt>:
    49b0:	f3 0f 1e fa          	endbr64 
    49b4:	f2 ff 25 a5 c4 00 00 	bnd jmpq *0xc4a5(%rip)        # 10e60 <PyUnicode_Decode>
    49bb:	0f 1f 44 00 00       	nopl   0x0(%rax,%rax,1)

00000000000049c0 <Py_GetVersion@plt>:
    49c0:	f3 0f 1e fa          	endbr64 
    49c4:	f2 ff 25 9d c4 00 00 	bnd jmpq *0xc49d(%rip)        # 10e68 <Py_GetVersion>
    49cb:	0f 1f 44 00 00       	nopl   0x0(%rax,%rax,1)

00000000000049d0 <PyErr_WarnEx@plt>:
    49d0:	f3 0f 1e fa          	endbr64 
    49d4:	f2 ff 25 95 c4 00 00 	bnd jmpq *0xc495(%rip)        # 10e70 <PyErr_WarnEx>
    49db:	0f 1f 44 00 00       	nopl   0x0(%rax,%rax,1)

00000000000049e0 <Py_Initialize@plt>:
    49e0:	f3 0f 1e fa          	endbr64 
    49e4:	f2 ff 25 8d c4 00 00 	bnd jmpq *0xc48d(%rip)        # 10e78 <Py_Initialize>
    49eb:	0f 1f 44 00 00       	nopl   0x0(%rax,%rax,1)

00000000000049f0 <PyObject_Hash@plt>:
    49f0:	f3 0f 1e fa          	endbr64 
    49f4:	f2 ff 25 85 c4 00 00 	bnd jmpq *0xc485(%rip)        # 10e80 <PyObject_Hash>
    49fb:	0f 1f 44 00 00       	nopl   0x0(%rax,%rax,1)

0000000000004a00 <PyObject_ClearWeakRefs@plt>:
    4a00:	f3 0f 1e fa          	endbr64 
    4a04:	f2 ff 25 7d c4 00 00 	bnd jmpq *0xc47d(%rip)        # 10e88 <PyObject_ClearWeakRefs>
    4a0b:	0f 1f 44 00 00       	nopl   0x0(%rax,%rax,1)

0000000000004a10 <PyNumber_Subtract@plt>:
    4a10:	f3 0f 1e fa          	endbr64 
    4a14:	f2 ff 25 75 c4 00 00 	bnd jmpq *0xc475(%rip)        # 10e90 <PyNumber_Subtract>
    4a1b:	0f 1f 44 00 00       	nopl   0x0(%rax,%rax,1)

0000000000004a20 <PyObject_GetAttrString@plt>:
    4a20:	f3 0f 1e fa          	endbr64 
    4a24:	f2 ff 25 6d c4 00 00 	bnd jmpq *0xc46d(%rip)        # 10e98 <PyObject_GetAttrString>
    4a2b:	0f 1f 44 00 00       	nopl   0x0(%rax,%rax,1)

0000000000004a30 <strdup@plt>:
    4a30:	f3 0f 1e fa          	endbr64 
    4a34:	f2 ff 25 65 c4 00 00 	bnd jmpq *0xc465(%rip)        # 10ea0 <strdup@GLIBC_2.2.5>
    4a3b:	0f 1f 44 00 00       	nopl   0x0(%rax,%rax,1)

0000000000004a40 <__stack_chk_fail@plt>:
    4a40:	f3 0f 1e fa          	endbr64 
    4a44:	f2 ff 25 5d c4 00 00 	bnd jmpq *0xc45d(%rip)        # 10ea8 <__stack_chk_fail@GLIBC_2.4>
    4a4b:	0f 1f 44 00 00       	nopl   0x0(%rax,%rax,1)

0000000000004a50 <PyObject_SetAttrString@plt>:
    4a50:	f3 0f 1e fa          	endbr64 
    4a54:	f2 ff 25 55 c4 00 00 	bnd jmpq *0xc455(%rip)        # 10eb0 <PyObject_SetAttrString>
    4a5b:	0f 1f 44 00 00       	nopl   0x0(%rax,%rax,1)

0000000000004a60 <PyList_Append@plt>:
    4a60:	f3 0f 1e fa          	endbr64 
    4a64:	f2 ff 25 4d c4 00 00 	bnd jmpq *0xc44d(%rip)        # 10eb8 <PyList_Append>
    4a6b:	0f 1f 44 00 00       	nopl   0x0(%rax,%rax,1)

0000000000004a70 <PyObject_SetAttr@plt>:
    4a70:	f3 0f 1e fa          	endbr64 
    4a74:	f2 ff 25 45 c4 00 00 	bnd jmpq *0xc445(%rip)        # 10ec0 <PyObject_SetAttr>
    4a7b:	0f 1f 44 00 00       	nopl   0x0(%rax,%rax,1)

0000000000004a80 <PyBytes_FromStringAndSize@plt>:
    4a80:	f3 0f 1e fa          	endbr64 
    4a84:	f2 ff 25 3d c4 00 00 	bnd jmpq *0xc43d(%rip)        # 10ec8 <PyBytes_FromStringAndSize>
    4a8b:	0f 1f 44 00 00       	nopl   0x0(%rax,%rax,1)

0000000000004a90 <PyDict_GetItemString@plt>:
    4a90:	f3 0f 1e fa          	endbr64 
    4a94:	f2 ff 25 35 c4 00 00 	bnd jmpq *0xc435(%rip)        # 10ed0 <PyDict_GetItemString>
    4a9b:	0f 1f 44 00 00       	nopl   0x0(%rax,%rax,1)

0000000000004aa0 <PyObject_Call@plt>:
    4aa0:	f3 0f 1e fa          	endbr64 
    4aa4:	f2 ff 25 2d c4 00 00 	bnd jmpq *0xc42d(%rip)        # 10ed8 <PyObject_Call>
    4aab:	0f 1f 44 00 00       	nopl   0x0(%rax,%rax,1)

0000000000004ab0 <PyErr_Print@plt>:
    4ab0:	f3 0f 1e fa          	endbr64 
    4ab4:	f2 ff 25 25 c4 00 00 	bnd jmpq *0xc425(%rip)        # 10ee0 <PyErr_Print>
    4abb:	0f 1f 44 00 00       	nopl   0x0(%rax,%rax,1)

0000000000004ac0 <_PyDict_GetItem_KnownHash@plt>:
    4ac0:	f3 0f 1e fa          	endbr64 
    4ac4:	f2 ff 25 1d c4 00 00 	bnd jmpq *0xc41d(%rip)        # 10ee8 <_PyDict_GetItem_KnownHash>
    4acb:	0f 1f 44 00 00       	nopl   0x0(%rax,%rax,1)

0000000000004ad0 <PyLong_FromLong@plt>:
    4ad0:	f3 0f 1e fa          	endbr64 
    4ad4:	f2 ff 25 15 c4 00 00 	bnd jmpq *0xc415(%rip)        # 10ef0 <PyLong_FromLong>
    4adb:	0f 1f 44 00 00       	nopl   0x0(%rax,%rax,1)

0000000000004ae0 <PyTraceBack_Here@plt>:
    4ae0:	f3 0f 1e fa          	endbr64 
    4ae4:	f2 ff 25 0d c4 00 00 	bnd jmpq *0xc40d(%rip)        # 10ef8 <PyTraceBack_Here>
    4aeb:	0f 1f 44 00 00       	nopl   0x0(%rax,%rax,1)

0000000000004af0 <PyMethod_New@plt>:
    4af0:	f3 0f 1e fa          	endbr64 
    4af4:	f2 ff 25 05 c4 00 00 	bnd jmpq *0xc405(%rip)        # 10f00 <PyMethod_New>
    4afb:	0f 1f 44 00 00       	nopl   0x0(%rax,%rax,1)

0000000000004b00 <memcmp@plt>:
    4b00:	f3 0f 1e fa          	endbr64 
    4b04:	f2 ff 25 fd c3 00 00 	bnd jmpq *0xc3fd(%rip)        # 10f08 <memcmp@GLIBC_2.2.5>
    4b0b:	0f 1f 44 00 00       	nopl   0x0(%rax,%rax,1)

0000000000004b10 <_Py_Dealloc@plt>:
    4b10:	f3 0f 1e fa          	endbr64 
    4b14:	f2 ff 25 f5 c3 00 00 	bnd jmpq *0xc3f5(%rip)        # 10f10 <_Py_Dealloc>
    4b1b:	0f 1f 44 00 00       	nopl   0x0(%rax,%rax,1)

0000000000004b20 <PyObject_Free@plt>:
    4b20:	f3 0f 1e fa          	endbr64 
    4b24:	f2 ff 25 ed c3 00 00 	bnd jmpq *0xc3ed(%rip)        # 10f18 <PyObject_Free>
    4b2b:	0f 1f 44 00 00       	nopl   0x0(%rax,%rax,1)

0000000000004b30 <PyErr_Clear@plt>:
    4b30:	f3 0f 1e fa          	endbr64 
    4b34:	f2 ff 25 e5 c3 00 00 	bnd jmpq *0xc3e5(%rip)        # 10f20 <PyErr_Clear>
    4b3b:	0f 1f 44 00 00       	nopl   0x0(%rax,%rax,1)

0000000000004b40 <PyTuple_New@plt>:
    4b40:	f3 0f 1e fa          	endbr64 
    4b44:	f2 ff 25 dd c3 00 00 	bnd jmpq *0xc3dd(%rip)        # 10f28 <PyTuple_New>
    4b4b:	0f 1f 44 00 00       	nopl   0x0(%rax,%rax,1)

0000000000004b50 <_Py_CheckRecursiveCall@plt>:
    4b50:	f3 0f 1e fa          	endbr64 
    4b54:	f2 ff 25 d5 c3 00 00 	bnd jmpq *0xc3d5(%rip)        # 10f30 <_Py_CheckRecursiveCall>
    4b5b:	0f 1f 44 00 00       	nopl   0x0(%rax,%rax,1)

0000000000004b60 <PyImport_GetModuleDict@plt>:
    4b60:	f3 0f 1e fa          	endbr64 
    4b64:	f2 ff 25 cd c3 00 00 	bnd jmpq *0xc3cd(%rip)        # 10f38 <PyImport_GetModuleDict>
    4b6b:	0f 1f 44 00 00       	nopl   0x0(%rax,%rax,1)

0000000000004b70 <PyTuple_GetItem@plt>:
    4b70:	f3 0f 1e fa          	endbr64 
    4b74:	f2 ff 25 c5 c3 00 00 	bnd jmpq *0xc3c5(%rip)        # 10f40 <PyTuple_GetItem>
    4b7b:	0f 1f 44 00 00       	nopl   0x0(%rax,%rax,1)

0000000000004b80 <PyLong_FromSsize_t@plt>:
    4b80:	f3 0f 1e fa          	endbr64 
    4b84:	f2 ff 25 bd c3 00 00 	bnd jmpq *0xc3bd(%rip)        # 10f48 <PyLong_FromSsize_t>
    4b8b:	0f 1f 44 00 00       	nopl   0x0(%rax,%rax,1)

0000000000004b90 <PyErr_SetString@plt>:
    4b90:	f3 0f 1e fa          	endbr64 
    4b94:	f2 ff 25 b5 c3 00 00 	bnd jmpq *0xc3b5(%rip)        # 10f50 <PyErr_SetString>
    4b9b:	0f 1f 44 00 00       	nopl   0x0(%rax,%rax,1)

0000000000004ba0 <PyNumber_TrueDivide@plt>:
    4ba0:	f3 0f 1e fa          	endbr64 
    4ba4:	f2 ff 25 ad c3 00 00 	bnd jmpq *0xc3ad(%rip)        # 10f58 <PyNumber_TrueDivide>
    4bab:	0f 1f 44 00 00       	nopl   0x0(%rax,%rax,1)

0000000000004bb0 <PyModuleDef_Init@plt>:
    4bb0:	f3 0f 1e fa          	endbr64 
    4bb4:	f2 ff 25 a5 c3 00 00 	bnd jmpq *0xc3a5(%rip)        # 10f60 <PyModuleDef_Init>
    4bbb:	0f 1f 44 00 00       	nopl   0x0(%rax,%rax,1)

0000000000004bc0 <_PyThreadState_UncheckedGet@plt>:
    4bc0:	f3 0f 1e fa          	endbr64 
    4bc4:	f2 ff 25 9d c3 00 00 	bnd jmpq *0xc39d(%rip)        # 10f68 <_PyThreadState_UncheckedGet>
    4bcb:	0f 1f 44 00 00       	nopl   0x0(%rax,%rax,1)

0000000000004bd0 <PyEval_EvalFrameEx@plt>:
    4bd0:	f3 0f 1e fa          	endbr64 
    4bd4:	f2 ff 25 95 c3 00 00 	bnd jmpq *0xc395(%rip)        # 10f70 <PyEval_EvalFrameEx>
    4bdb:	0f 1f 44 00 00       	nopl   0x0(%rax,%rax,1)

0000000000004be0 <PyUnicode_FromStringAndSize@plt>:
    4be0:	f3 0f 1e fa          	endbr64 
    4be4:	f2 ff 25 8d c3 00 00 	bnd jmpq *0xc38d(%rip)        # 10f78 <PyUnicode_FromStringAndSize>
    4beb:	0f 1f 44 00 00       	nopl   0x0(%rax,%rax,1)

0000000000004bf0 <setlocale@plt>:
    4bf0:	f3 0f 1e fa          	endbr64 
    4bf4:	f2 ff 25 85 c3 00 00 	bnd jmpq *0xc385(%rip)        # 10f80 <setlocale@GLIBC_2.2.5>
    4bfb:	0f 1f 44 00 00       	nopl   0x0(%rax,%rax,1)

0000000000004c00 <_PyType_Lookup@plt>:
    4c00:	f3 0f 1e fa          	endbr64 
    4c04:	f2 ff 25 7d c3 00 00 	bnd jmpq *0xc37d(%rip)        # 10f88 <_PyType_Lookup>
    4c0b:	0f 1f 44 00 00       	nopl   0x0(%rax,%rax,1)

0000000000004c10 <_PyUnicode_Ready@plt>:
    4c10:	f3 0f 1e fa          	endbr64 
    4c14:	f2 ff 25 75 c3 00 00 	bnd jmpq *0xc375(%rip)        # 10f90 <_PyUnicode_Ready>
    4c1b:	0f 1f 44 00 00       	nopl   0x0(%rax,%rax,1)

0000000000004c20 <PyList_New@plt>:
    4c20:	f3 0f 1e fa          	endbr64 
    4c24:	f2 ff 25 6d c3 00 00 	bnd jmpq *0xc36d(%rip)        # 10f98 <PyList_New>
    4c2b:	0f 1f 44 00 00       	nopl   0x0(%rax,%rax,1)

0000000000004c30 <PyMem_Malloc@plt>:
    4c30:	f3 0f 1e fa          	endbr64 
    4c34:	f2 ff 25 65 c3 00 00 	bnd jmpq *0xc365(%rip)        # 10fa0 <PyMem_Malloc>
    4c3b:	0f 1f 44 00 00       	nopl   0x0(%rax,%rax,1)

0000000000004c40 <PyObject_GC_Track@plt>:
    4c40:	f3 0f 1e fa          	endbr64 
    4c44:	f2 ff 25 5d c3 00 00 	bnd jmpq *0xc35d(%rip)        # 10fa8 <PyObject_GC_Track>
    4c4b:	0f 1f 44 00 00       	nopl   0x0(%rax,%rax,1)

0000000000004c50 <PyDict_SetItem@plt>:
    4c50:	f3 0f 1e fa          	endbr64 
    4c54:	f2 ff 25 55 c3 00 00 	bnd jmpq *0xc355(%rip)        # 10fb0 <PyDict_SetItem>
    4c5b:	0f 1f 44 00 00       	nopl   0x0(%rax,%rax,1)

0000000000004c60 <PyDict_New@plt>:
    4c60:	f3 0f 1e fa          	endbr64 
    4c64:	f2 ff 25 4d c3 00 00 	bnd jmpq *0xc34d(%rip)        # 10fb8 <PyDict_New>
    4c6b:	0f 1f 44 00 00       	nopl   0x0(%rax,%rax,1)

Disassembly of section .text:

0000000000004c70 <__Pyx_RaiseNeedMoreValuesError>:
    4c70:	48 83 ff 01          	cmp    $0x1,%rdi
    4c74:	48 8d 05 d2 8b 00 00 	lea    0x8bd2(%rip),%rax        # d84d <_IO_stdin_used+0x84d>
    4c7b:	48 89 fa             	mov    %rdi,%rdx
    4c7e:	48 8b 3d 9b d7 00 00 	mov    0xd79b(%rip),%rdi        # 12420 <PyExc_ValueError>
    4c85:	48 8d 0d 3e 84 00 00 	lea    0x843e(%rip),%rcx        # d0ca <_IO_stdin_used+0xca>
    4c8c:	48 8d 35 5c 84 00 00 	lea    0x845c(%rip),%rsi        # d0ef <_IO_stdin_used+0xef>
    4c93:	48 0f 45 c8          	cmovne %rax,%rcx
    4c97:	31 c0                	xor    %eax,%eax
    4c99:	e9 42 fb ff ff       	jmpq   47e0 <PyErr_Format@plt>

0000000000004c9e <__Pyx_IterFinish>:
    4c9e:	41 56                	push   %r14
    4ca0:	41 55                	push   %r13
    4ca2:	41 54                	push   %r12
    4ca4:	55                   	push   %rbp
    4ca5:	53                   	push   %rbx
    4ca6:	e8 15 ff ff ff       	callq  4bc0 <_PyThreadState_UncheckedGet@plt>
    4cab:	48 8b 68 58          	mov    0x58(%rax),%rbp
    4caf:	48 89 c3             	mov    %rax,%rbx
    4cb2:	31 c0                	xor    %eax,%eax
    4cb4:	48 85 ed             	test   %rbp,%rbp
    4cb7:	0f 84 03 01 00 00    	je     4dc0 <__Pyx_IterFinish+0x122>
    4cbd:	4c 8b 25 a4 d5 00 00 	mov    0xd5a4(%rip),%r12        # 12268 <PyExc_StopIteration>
    4cc4:	49 39 ec             	cmp    %rbp,%r12
    4cc7:	75 3f                	jne    4d08 <__Pyx_IterFinish+0x6a>
    4cc9:	4c 8b 6b 60          	mov    0x60(%rbx),%r13
    4ccd:	4c 8b 63 68          	mov    0x68(%rbx),%r12
    4cd1:	48 c7 43 58 00 00 00 	movq   $0x0,0x58(%rbx)
    4cd8:	00 
    4cd9:	48 89 ef             	mov    %rbp,%rdi
    4cdc:	48 c7 43 60 00 00 00 	movq   $0x0,0x60(%rbx)
    4ce3:	00 
    4ce4:	48 c7 43 68 00 00 00 	movq   $0x0,0x68(%rbx)
    4ceb:	00 
    4cec:	e8 7e 5a 00 00       	callq  a76f <_Py_DECREF.isra.0>
    4cf1:	4c 89 ef             	mov    %r13,%rdi
    4cf4:	e8 66 5b 00 00       	callq  a85f <_Py_XDECREF>
    4cf9:	4c 89 e7             	mov    %r12,%rdi
    4cfc:	e8 5e 5b 00 00       	callq  a85f <_Py_XDECREF>
    4d01:	31 c0                	xor    %eax,%eax
    4d03:	e9 b8 00 00 00       	jmpq   4dc0 <__Pyx_IterFinish+0x122>
    4d08:	48 8b 45 08          	mov    0x8(%rbp),%rax
    4d0c:	f6 80 ab 00 00 00 80 	testb  $0x80,0xab(%rax)
    4d13:	0f 84 91 00 00 00    	je     4daa <__Pyx_IterFinish+0x10c>
    4d19:	f6 85 ab 00 00 00 40 	testb  $0x40,0xab(%rbp)
    4d20:	0f 84 84 00 00 00    	je     4daa <__Pyx_IterFinish+0x10c>
    4d26:	49 8b 44 24 08       	mov    0x8(%r12),%rax
    4d2b:	48 8b 80 a8 00 00 00 	mov    0xa8(%rax),%rax
    4d32:	0f ba e0 1f          	bt     $0x1f,%eax
    4d36:	73 18                	jae    4d50 <__Pyx_IterFinish+0xb2>
    4d38:	41 f6 84 24 ab 00 00 	testb  $0x40,0xab(%r12)
    4d3f:	00 40 
    4d41:	74 0d                	je     4d50 <__Pyx_IterFinish+0xb2>
    4d43:	4c 89 e6             	mov    %r12,%rsi
    4d46:	48 89 ef             	mov    %rbp,%rdi
    4d49:	e8 c0 57 00 00       	callq  a50e <__Pyx_IsSubtype>
    4d4e:	eb 65                	jmp    4db5 <__Pyx_IterFinish+0x117>
    4d50:	0f ba e0 1a          	bt     $0x1a,%eax
    4d54:	73 54                	jae    4daa <__Pyx_IterFinish+0x10c>
    4d56:	4d 8b 74 24 10       	mov    0x10(%r12),%r14
    4d5b:	31 c0                	xor    %eax,%eax
    4d5d:	49 39 c6             	cmp    %rax,%r14
    4d60:	7e 10                	jle    4d72 <__Pyx_IterFinish+0xd4>
    4d62:	49 3b 6c c4 18       	cmp    0x18(%r12,%rax,8),%rbp
    4d67:	0f 84 5c ff ff ff    	je     4cc9 <__Pyx_IterFinish+0x2b>
    4d6d:	48 ff c0             	inc    %rax
    4d70:	eb eb                	jmp    4d5d <__Pyx_IterFinish+0xbf>
    4d72:	45 31 ed             	xor    %r13d,%r13d
    4d75:	4d 39 ee             	cmp    %r13,%r14
    4d78:	7e 43                	jle    4dbd <__Pyx_IterFinish+0x11f>
    4d7a:	4b 8b 74 ec 18       	mov    0x18(%r12,%r13,8),%rsi
    4d7f:	48 8b 46 08          	mov    0x8(%rsi),%rax
    4d83:	f6 80 ab 00 00 00 80 	testb  $0x80,0xab(%rax)
    4d8a:	74 19                	je     4da5 <__Pyx_IterFinish+0x107>
    4d8c:	f6 86 ab 00 00 00 40 	testb  $0x40,0xab(%rsi)
    4d93:	74 10                	je     4da5 <__Pyx_IterFinish+0x107>
    4d95:	48 89 ef             	mov    %rbp,%rdi
    4d98:	e8 71 57 00 00       	callq  a50e <__Pyx_IsSubtype>
    4d9d:	85 c0                	test   %eax,%eax
    4d9f:	0f 85 24 ff ff ff    	jne    4cc9 <__Pyx_IterFinish+0x2b>
    4da5:	49 ff c5             	inc    %r13
    4da8:	eb cb                	jmp    4d75 <__Pyx_IterFinish+0xd7>
    4daa:	4c 89 e6             	mov    %r12,%rsi
    4dad:	48 89 ef             	mov    %rbp,%rdi
    4db0:	e8 cb f9 ff ff       	callq  4780 <PyErr_GivenExceptionMatches@plt>
    4db5:	85 c0                	test   %eax,%eax
    4db7:	0f 85 0c ff ff ff    	jne    4cc9 <__Pyx_IterFinish+0x2b>
    4dbd:	83 c8 ff             	or     $0xffffffff,%eax
    4dc0:	5b                   	pop    %rbx
    4dc1:	5d                   	pop    %rbp
    4dc2:	41 5c                	pop    %r12
    4dc4:	41 5d                	pop    %r13
    4dc6:	41 5e                	pop    %r14
    4dc8:	c3                   	retq   

0000000000004dc9 <__Pyx_copy_spec_to_module>:
    4dc9:	41 56                	push   %r14
    4dcb:	49 89 ce             	mov    %rcx,%r14
    4dce:	41 55                	push   %r13
    4dd0:	49 89 f5             	mov    %rsi,%r13
    4dd3:	48 89 d6             	mov    %rdx,%rsi
    4dd6:	41 54                	push   %r12
    4dd8:	55                   	push   %rbp
    4dd9:	53                   	push   %rbx
    4dda:	44 89 c3             	mov    %r8d,%ebx
    4ddd:	e8 3e fc ff ff       	callq  4a20 <PyObject_GetAttrString@plt>
    4de2:	48 85 c0             	test   %rax,%rax
    4de5:	74 32                	je     4e19 <__Pyx_copy_spec_to_module+0x50>
    4de7:	48 89 c5             	mov    %rax,%rbp
    4dea:	48 8d 05 4f e7 00 00 	lea    0xe74f(%rip),%rax        # 13540 <_Py_NoneStruct>
    4df1:	48 39 c5             	cmp    %rax,%rbp
    4df4:	75 08                	jne    4dfe <__Pyx_copy_spec_to_module+0x35>
    4df6:	45 31 e4             	xor    %r12d,%r12d
    4df9:	80 e3 01             	and    $0x1,%bl
    4dfc:	74 11                	je     4e0f <__Pyx_copy_spec_to_module+0x46>
    4dfe:	48 89 ea             	mov    %rbp,%rdx
    4e01:	4c 89 f6             	mov    %r14,%rsi
    4e04:	4c 89 ef             	mov    %r13,%rdi
    4e07:	e8 64 f8 ff ff       	callq  4670 <PyDict_SetItemString@plt>
    4e0c:	41 89 c4             	mov    %eax,%r12d
    4e0f:	48 89 ef             	mov    %rbp,%rdi
    4e12:	e8 58 59 00 00       	callq  a76f <_Py_DECREF.isra.0>
    4e17:	eb 1c                	jmp    4e35 <__Pyx_copy_spec_to_module+0x6c>
    4e19:	48 8b 3d 48 e7 00 00 	mov    0xe748(%rip),%rdi        # 13568 <PyExc_AttributeError>
    4e20:	41 83 cc ff          	or     $0xffffffff,%r12d
    4e24:	e8 17 fa ff ff       	callq  4840 <PyErr_ExceptionMatches@plt>
    4e29:	85 c0                	test   %eax,%eax
    4e2b:	74 08                	je     4e35 <__Pyx_copy_spec_to_module+0x6c>
    4e2d:	e8 fe fc ff ff       	callq  4b30 <PyErr_Clear@plt>
    4e32:	45 31 e4             	xor    %r12d,%r12d
    4e35:	5b                   	pop    %rbx
    4e36:	44 89 e0             	mov    %r12d,%eax
    4e39:	5d                   	pop    %rbp
    4e3a:	41 5c                	pop    %r12
    4e3c:	41 5d                	pop    %r13
    4e3e:	41 5e                	pop    %r14
    4e40:	c3                   	retq   

0000000000004e41 <__pyx_pymod_create>:
    4e41:	f3 0f 1e fa          	endbr64 
    4e45:	41 55                	push   %r13
    4e47:	41 54                	push   %r12
    4e49:	55                   	push   %rbp
    4e4a:	48 89 fd             	mov    %rdi,%rbp
    4e4d:	e8 ae fa ff ff       	callq  4900 <PyThreadState_Get@plt>
    4e52:	48 8b 78 10          	mov    0x10(%rax),%rdi
    4e56:	e8 05 f8 ff ff       	callq  4660 <PyInterpreterState_GetID@plt>
    4e5b:	48 8b 15 ae c1 00 00 	mov    0xc1ae(%rip),%rdx        # 11010 <main_interpreter_id.16006>
    4e62:	48 83 fa ff          	cmp    $0xffffffffffffffff,%rdx
    4e66:	75 15                	jne    4e7d <__pyx_pymod_create+0x3c>
    4e68:	48 89 05 a1 c1 00 00 	mov    %rax,0xc1a1(%rip)        # 11010 <main_interpreter_id.16006>
    4e6f:	45 31 e4             	xor    %r12d,%r12d
    4e72:	48 ff c0             	inc    %rax
    4e75:	0f 84 13 01 00 00    	je     4f8e <__pyx_pymod_create+0x14d>
    4e7b:	eb 1d                	jmp    4e9a <__pyx_pymod_create+0x59>
    4e7d:	48 39 d0             	cmp    %rdx,%rax
    4e80:	74 18                	je     4e9a <__pyx_pymod_create+0x59>
    4e82:	48 8b 3d d7 d3 00 00 	mov    0xd3d7(%rip),%rdi        # 12260 <PyExc_ImportError>
    4e89:	48 8d 35 fd 83 00 00 	lea    0x83fd(%rip),%rsi        # d28d <_IO_stdin_used+0x28d>
    4e90:	e8 fb fc ff ff       	callq  4b90 <PyErr_SetString@plt>
    4e95:	e9 f1 00 00 00       	jmpq   4f8b <__pyx_pymod_create+0x14a>
    4e9a:	4c 8b 25 07 f2 00 00 	mov    0xf207(%rip),%r12        # 140a8 <__pyx_m>
    4ea1:	4d 85 e4             	test   %r12,%r12
    4ea4:	74 09                	je     4eaf <__pyx_pymod_create+0x6e>
    4ea6:	49 ff 04 24          	incq   (%r12)
    4eaa:	e9 df 00 00 00       	jmpq   4f8e <__pyx_pymod_create+0x14d>
    4eaf:	48 8d 35 d9 8b 00 00 	lea    0x8bd9(%rip),%rsi        # da8f <_IO_stdin_used+0xa8f>
    4eb6:	48 89 ef             	mov    %rbp,%rdi
    4eb9:	e8 62 fb ff ff       	callq  4a20 <PyObject_GetAttrString@plt>
    4ebe:	49 89 c5             	mov    %rax,%r13
    4ec1:	48 85 c0             	test   %rax,%rax
    4ec4:	75 08                	jne    4ece <__pyx_pymod_create+0x8d>
    4ec6:	45 31 e4             	xor    %r12d,%r12d
    4ec9:	e9 b5 00 00 00       	jmpq   4f83 <__pyx_pymod_create+0x142>
    4ece:	48 89 c7             	mov    %rax,%rdi
    4ed1:	e8 ca f7 ff ff       	callq  46a0 <PyModule_NewObject@plt>
    4ed6:	4c 89 ef             	mov    %r13,%rdi
    4ed9:	49 89 c4             	mov    %rax,%r12
    4edc:	e8 8e 58 00 00       	callq  a76f <_Py_DECREF.isra.0>
    4ee1:	4d 85 e4             	test   %r12,%r12
    4ee4:	74 e0                	je     4ec6 <__pyx_pymod_create+0x85>
    4ee6:	4c 89 e7             	mov    %r12,%rdi
    4ee9:	e8 42 fa ff ff       	callq  4930 <PyModule_GetDict@plt>
    4eee:	49 89 c5             	mov    %rax,%r13
    4ef1:	48 85 c0             	test   %rax,%rax
    4ef4:	0f 84 89 00 00 00    	je     4f83 <__pyx_pymod_create+0x142>
    4efa:	41 b8 01 00 00 00    	mov    $0x1,%r8d
    4f00:	48 8d 0d e5 83 00 00 	lea    0x83e5(%rip),%rcx        # d2ec <_IO_stdin_used+0x2ec>
    4f07:	48 89 c6             	mov    %rax,%rsi
    4f0a:	48 89 ef             	mov    %rbp,%rdi
    4f0d:	48 8d 15 e3 83 00 00 	lea    0x83e3(%rip),%rdx        # d2f7 <_IO_stdin_used+0x2f7>
    4f14:	e8 b0 fe ff ff       	callq  4dc9 <__Pyx_copy_spec_to_module>
    4f19:	85 c0                	test   %eax,%eax
    4f1b:	78 66                	js     4f83 <__pyx_pymod_create+0x142>
    4f1d:	41 b8 01 00 00 00    	mov    $0x1,%r8d
    4f23:	48 8d 0d d4 83 00 00 	lea    0x83d4(%rip),%rcx        # d2fe <_IO_stdin_used+0x2fe>
    4f2a:	4c 89 ee             	mov    %r13,%rsi
    4f2d:	48 89 ef             	mov    %rbp,%rdi
    4f30:	48 8d 15 d0 83 00 00 	lea    0x83d0(%rip),%rdx        # d307 <_IO_stdin_used+0x307>
    4f37:	e8 8d fe ff ff       	callq  4dc9 <__Pyx_copy_spec_to_module>
    4f3c:	85 c0                	test   %eax,%eax
    4f3e:	78 43                	js     4f83 <__pyx_pymod_create+0x142>
    4f40:	41 b8 01 00 00 00    	mov    $0x1,%r8d
    4f46:	48 8d 0d c1 83 00 00 	lea    0x83c1(%rip),%rcx        # d30e <_IO_stdin_used+0x30e>
    4f4d:	4c 89 ee             	mov    %r13,%rsi
    4f50:	48 89 ef             	mov    %rbp,%rdi
    4f53:	48 8d 15 c0 83 00 00 	lea    0x83c0(%rip),%rdx        # d31a <_IO_stdin_used+0x31a>
    4f5a:	e8 6a fe ff ff       	callq  4dc9 <__Pyx_copy_spec_to_module>
    4f5f:	85 c0                	test   %eax,%eax
    4f61:	78 20                	js     4f83 <__pyx_pymod_create+0x142>
    4f63:	45 31 c0             	xor    %r8d,%r8d
    4f66:	48 8d 0d b4 83 00 00 	lea    0x83b4(%rip),%rcx        # d321 <_IO_stdin_used+0x321>
    4f6d:	4c 89 ee             	mov    %r13,%rsi
    4f70:	48 89 ef             	mov    %rbp,%rdi
    4f73:	48 8d 15 b0 83 00 00 	lea    0x83b0(%rip),%rdx        # d32a <_IO_stdin_used+0x32a>
    4f7a:	e8 4a fe ff ff       	callq  4dc9 <__Pyx_copy_spec_to_module>
    4f7f:	85 c0                	test   %eax,%eax
    4f81:	79 0b                	jns    4f8e <__pyx_pymod_create+0x14d>
    4f83:	4c 89 e7             	mov    %r12,%rdi
    4f86:	e8 d4 58 00 00       	callq  a85f <_Py_XDECREF>
    4f8b:	45 31 e4             	xor    %r12d,%r12d
    4f8e:	4c 89 e0             	mov    %r12,%rax
    4f91:	5d                   	pop    %rbp
    4f92:	41 5c                	pop    %r12
    4f94:	41 5d                	pop    %r13
    4f96:	c3                   	retq   

0000000000004f97 <__Pyx_Import.constprop.0>:
    4f97:	41 56                	push   %r14
    4f99:	49 89 fe             	mov    %rdi,%r14
    4f9c:	31 ff                	xor    %edi,%edi
    4f9e:	41 55                	push   %r13
    4fa0:	41 54                	push   %r12
    4fa2:	55                   	push   %rbp
    4fa3:	51                   	push   %rcx
    4fa4:	e8 77 fc ff ff       	callq  4c20 <PyList_New@plt>
    4fa9:	49 89 c5             	mov    %rax,%r13
    4fac:	48 85 c0             	test   %rax,%rax
    4faf:	74 3c                	je     4fed <__Pyx_Import.constprop.0+0x56>
    4fb1:	48 8b 3d f0 f0 00 00 	mov    0xf0f0(%rip),%rdi        # 140a8 <__pyx_m>
    4fb8:	31 ed                	xor    %ebp,%ebp
    4fba:	e8 71 f9 ff ff       	callq  4930 <PyModule_GetDict@plt>
    4fbf:	49 89 c4             	mov    %rax,%r12
    4fc2:	48 85 c0             	test   %rax,%rax
    4fc5:	74 2b                	je     4ff2 <__Pyx_Import.constprop.0+0x5b>
    4fc7:	e8 94 fc ff ff       	callq  4c60 <PyDict_New@plt>
    4fcc:	48 89 c5             	mov    %rax,%rbp
    4fcf:	48 85 c0             	test   %rax,%rax
    4fd2:	74 1b                	je     4fef <__Pyx_Import.constprop.0+0x58>
    4fd4:	4c 89 e6             	mov    %r12,%rsi
    4fd7:	45 31 c0             	xor    %r8d,%r8d
    4fda:	4c 89 e9             	mov    %r13,%rcx
    4fdd:	48 89 c2             	mov    %rax,%rdx
    4fe0:	4c 89 f7             	mov    %r14,%rdi
    4fe3:	e8 58 f9 ff ff       	callq  4940 <PyImport_ImportModuleLevelObject@plt>
    4fe8:	49 89 c4             	mov    %rax,%r12
    4feb:	eb 05                	jmp    4ff2 <__Pyx_Import.constprop.0+0x5b>
    4fed:	31 ed                	xor    %ebp,%ebp
    4fef:	45 31 e4             	xor    %r12d,%r12d
    4ff2:	4c 89 ef             	mov    %r13,%rdi
    4ff5:	e8 65 58 00 00       	callq  a85f <_Py_XDECREF>
    4ffa:	48 89 ef             	mov    %rbp,%rdi
    4ffd:	e8 5d 58 00 00       	callq  a85f <_Py_XDECREF>
    5002:	5a                   	pop    %rdx
    5003:	4c 89 e0             	mov    %r12,%rax
    5006:	5d                   	pop    %rbp
    5007:	41 5c                	pop    %r12
    5009:	41 5d                	pop    %r13
    500b:	41 5e                	pop    %r14
    500d:	c3                   	retq   

000000000000500e <__Pyx_PrintOne.constprop.0>:
    500e:	41 54                	push   %r12
    5010:	48 89 fe             	mov    %rdi,%rsi
    5013:	31 c0                	xor    %eax,%eax
    5015:	bf 01 00 00 00       	mov    $0x1,%edi
    501a:	55                   	push   %rbp
    501b:	41 83 cc ff          	or     $0xffffffff,%r12d
    501f:	51                   	push   %rcx
    5020:	e8 cb f8 ff ff       	callq  48f0 <PyTuple_Pack@plt>
    5025:	48 85 c0             	test   %rax,%rax
    5028:	74 5d                	je     5087 <__Pyx_PrintOne.constprop.0+0x79>
    502a:	48 83 3d 26 f0 00 00 	cmpq   $0x0,0xf026(%rip)        # 14058 <__pyx_print>
    5031:	00 
    5032:	48 89 c5             	mov    %rax,%rbp
    5035:	74 1b                	je     5052 <__Pyx_PrintOne.constprop.0+0x44>
    5037:	48 8b 3d 1a f0 00 00 	mov    0xf01a(%rip),%rdi        # 14058 <__pyx_print>
    503e:	31 d2                	xor    %edx,%edx
    5040:	48 89 ee             	mov    %rbp,%rsi
    5043:	e8 58 fa ff ff       	callq  4aa0 <PyObject_Call@plt>
    5048:	48 89 c7             	mov    %rax,%rdi
    504b:	48 85 c0             	test   %rax,%rax
    504e:	75 27                	jne    5077 <__Pyx_PrintOne.constprop.0+0x69>
    5050:	eb 1f                	jmp    5071 <__Pyx_PrintOne.constprop.0+0x63>
    5052:	48 8b 35 7f ee 00 00 	mov    0xee7f(%rip),%rsi        # 13ed8 <__pyx_n_s_print>
    5059:	48 8b 3d 38 f0 00 00 	mov    0xf038(%rip),%rdi        # 14098 <__pyx_b>
    5060:	e8 cb f7 ff ff       	callq  4830 <PyObject_GetAttr@plt>
    5065:	48 89 05 ec ef 00 00 	mov    %rax,0xefec(%rip)        # 14058 <__pyx_print>
    506c:	48 85 c0             	test   %rax,%rax
    506f:	75 c6                	jne    5037 <__Pyx_PrintOne.constprop.0+0x29>
    5071:	41 83 cc ff          	or     $0xffffffff,%r12d
    5075:	eb 08                	jmp    507f <__Pyx_PrintOne.constprop.0+0x71>
    5077:	e8 f3 56 00 00       	callq  a76f <_Py_DECREF.isra.0>
    507c:	45 31 e4             	xor    %r12d,%r12d
    507f:	48 89 ef             	mov    %rbp,%rdi
    5082:	e8 e8 56 00 00       	callq  a76f <_Py_DECREF.isra.0>
    5087:	44 89 e0             	mov    %r12d,%eax
    508a:	5a                   	pop    %rdx
    508b:	5d                   	pop    %rbp
    508c:	41 5c                	pop    %r12
    508e:	c3                   	retq   

000000000000508f <__Pyx_CyFunction_New.constprop.0>:
    508f:	41 57                	push   %r15
    5091:	49 89 f7             	mov    %rsi,%r15
    5094:	41 56                	push   %r14
    5096:	49 89 fe             	mov    %rdi,%r14
    5099:	41 55                	push   %r13
    509b:	49 89 cd             	mov    %rcx,%r13
    509e:	55                   	push   %rbp
    509f:	48 89 d5             	mov    %rdx,%rbp
    50a2:	53                   	push   %rbx
    50a3:	4c 89 c3             	mov    %r8,%rbx
    50a6:	48 83 ec 10          	sub    $0x10,%rsp
    50aa:	48 8b 3d bf ef 00 00 	mov    0xefbf(%rip),%rdi        # 14070 <__pyx_CyFunctionType>
    50b1:	e8 2a f8 ff ff       	callq  48e0 <_PyObject_GC_New@plt>
    50b6:	48 85 c0             	test   %rax,%rax
    50b9:	0f 84 c5 00 00 00    	je     5184 <__Pyx_CyFunction_New.constprop.0+0xf5>
    50bf:	c7 80 90 00 00 00 00 	movl   $0x0,0x90(%rax)
    50c6:	00 00 00 
    50c9:	48 c7 40 28 00 00 00 	movq   $0x0,0x28(%rax)
    50d0:	00 
    50d1:	4c 89 70 10          	mov    %r14,0x10(%rax)
    50d5:	48 89 40 18          	mov    %rax,0x18(%rax)
    50d9:	48 c7 40 68 00 00 00 	movq   $0x0,0x68(%rax)
    50e0:	00 
    50e1:	48 85 ed             	test   %rbp,%rbp
    50e4:	74 04                	je     50ea <__Pyx_CyFunction_New.constprop.0+0x5b>
    50e6:	48 ff 45 00          	incq   0x0(%rbp)
    50ea:	48 89 68 20          	mov    %rbp,0x20(%rax)
    50ee:	48 c7 40 38 00 00 00 	movq   $0x0,0x38(%rax)
    50f5:	00 
    50f6:	48 c7 40 40 00 00 00 	movq   $0x0,0x40(%rax)
    50fd:	00 
    50fe:	49 ff 07             	incq   (%r15)
    5101:	4c 89 78 48          	mov    %r15,0x48(%rax)
    5105:	48 c7 40 50 00 00 00 	movq   $0x0,0x50(%rax)
    510c:	00 
    510d:	48 c7 40 70 00 00 00 	movq   $0x0,0x70(%rax)
    5114:	00 
    5115:	4c 89 68 58          	mov    %r13,0x58(%rax)
    5119:	49 ff 45 00          	incq   0x0(%r13)
    511d:	48 85 db             	test   %rbx,%rbx
    5120:	74 03                	je     5125 <__Pyx_CyFunction_New.constprop.0+0x96>
    5122:	48 ff 03             	incq   (%rbx)
    5125:	48 89 58 60          	mov    %rbx,0x60(%rax)
    5129:	48 89 c7             	mov    %rax,%rdi
    512c:	c7 80 80 00 00 00 00 	movl   $0x0,0x80(%rax)
    5133:	00 00 00 
    5136:	48 c7 80 88 00 00 00 	movq   $0x0,0x88(%rax)
    513d:	00 00 00 00 
    5141:	48 c7 40 78 00 00 00 	movq   $0x0,0x78(%rax)
    5148:	00 
    5149:	48 c7 80 98 00 00 00 	movq   $0x0,0x98(%rax)
    5150:	00 00 00 00 
    5154:	48 c7 80 a0 00 00 00 	movq   $0x0,0xa0(%rax)
    515b:	00 00 00 00 
    515f:	48 c7 80 a8 00 00 00 	movq   $0x0,0xa8(%rax)
    5166:	00 00 00 00 
    516a:	48 c7 80 b0 00 00 00 	movq   $0x0,0xb0(%rax)
    5171:	00 00 00 00 
    5175:	48 89 44 24 08       	mov    %rax,0x8(%rsp)
    517a:	e8 c1 fa ff ff       	callq  4c40 <PyObject_GC_Track@plt>
    517f:	48 8b 44 24 08       	mov    0x8(%rsp),%rax
    5184:	48 83 c4 10          	add    $0x10,%rsp
    5188:	5b                   	pop    %rbx
    5189:	5d                   	pop    %rbp
    518a:	41 5d                	pop    %r13
    518c:	41 5e                	pop    %r14
    518e:	41 5f                	pop    %r15
    5190:	c3                   	retq   

0000000000005191 <__pyx_pymod_exec_arrow_mouse>:
    5191:	f3 0f 1e fa          	endbr64 
    5195:	41 57                	push   %r15
    5197:	41 56                	push   %r14
    5199:	49 89 fe             	mov    %rdi,%r14
    519c:	41 55                	push   %r13
    519e:	41 54                	push   %r12
    51a0:	55                   	push   %rbp
    51a1:	53                   	push   %rbx
    51a2:	48 81 ec 08 01 00 00 	sub    $0x108,%rsp
    51a9:	48 8b 2d f8 ee 00 00 	mov    0xeef8(%rip),%rbp        # 140a8 <__pyx_m>
    51b0:	64 48 8b 04 25 28 00 	mov    %fs:0x28,%rax
    51b7:	00 00 
    51b9:	48 89 84 24 f8 00 00 	mov    %rax,0xf8(%rsp)
    51c0:	00 
    51c1:	31 c0                	xor    %eax,%eax
    51c3:	48 85 ed             	test   %rbp,%rbp
    51c6:	74 24                	je     51ec <__pyx_pymod_exec_arrow_mouse+0x5b>
    51c8:	48 39 fd             	cmp    %rdi,%rbp
    51cb:	0f 84 80 48 00 00    	je     9a51 <__pyx_pymod_exec_arrow_mouse+0x48c0>
    51d1:	48 8b 3d 68 de 00 00 	mov    0xde68(%rip),%rdi        # 13040 <PyExc_RuntimeError>
    51d8:	48 8d 35 ca 85 00 00 	lea    0x85ca(%rip),%rsi        # d7a9 <_IO_stdin_used+0x7a9>
    51df:	e8 ac f9 ff ff       	callq  4b90 <PyErr_SetString@plt>
    51e4:	83 c8 ff             	or     $0xffffffff,%eax
    51e7:	e9 65 48 00 00       	jmpq   9a51 <__pyx_pymod_exec_arrow_mouse+0x48c0>
    51ec:	4c 8d 6c 24 28       	lea    0x28(%rsp),%r13
    51f1:	41 b8 08 00 00 00    	mov    $0x8,%r8d
    51f7:	31 c0                	xor    %eax,%eax
    51f9:	b9 03 00 00 00       	mov    $0x3,%ecx
    51fe:	48 8d 15 f8 85 00 00 	lea    0x85f8(%rip),%rdx        # d7fd <_IO_stdin_used+0x7fd>
    5205:	be 04 00 00 00       	mov    $0x4,%esi
    520a:	4c 89 ef             	mov    %r13,%rdi
    520d:	e8 7e f5 ff ff       	callq  4790 <PyOS_snprintf@plt>
    5212:	e8 a9 f7 ff ff       	callq  49c0 <Py_GetVersion@plt>
    5217:	4c 8d 4c 24 2c       	lea    0x2c(%rsp),%r9
    521c:	be 04 00 00 00       	mov    $0x4,%esi
    5221:	48 8d 15 24 86 00 00 	lea    0x8624(%rip),%rdx        # d84c <_IO_stdin_used+0x84c>
    5228:	48 89 c1             	mov    %rax,%rcx
    522b:	4c 89 cf             	mov    %r9,%rdi
    522e:	31 c0                	xor    %eax,%eax
    5230:	4c 89 0c 24          	mov    %r9,(%rsp)
    5234:	e8 57 f5 ff ff       	callq  4790 <PyOS_snprintf@plt>
    5239:	8a 44 24 2c          	mov    0x2c(%rsp),%al
    523d:	38 44 24 28          	cmp    %al,0x28(%rsp)
    5241:	4c 8b 0c 24          	mov    (%rsp),%r9
    5245:	75 0a                	jne    5251 <__pyx_pymod_exec_arrow_mouse+0xc0>
    5247:	8a 44 24 2e          	mov    0x2e(%rsp),%al
    524b:	38 44 24 2a          	cmp    %al,0x2a(%rsp)
    524f:	74 3c                	je     528d <__pyx_pymod_exec_arrow_mouse+0xfc>
    5251:	4c 8d 64 24 30       	lea    0x30(%rsp),%r12
    5256:	be c8 00 00 00       	mov    $0xc8,%esi
    525b:	31 c0                	xor    %eax,%eax
    525d:	4c 89 e9             	mov    %r13,%rcx
    5260:	48 8d 15 9c 85 00 00 	lea    0x859c(%rip),%rdx        # d803 <_IO_stdin_used+0x803>
    5267:	4c 89 e7             	mov    %r12,%rdi
    526a:	4c 8d 05 94 87 00 00 	lea    0x8794(%rip),%r8        # da05 <_IO_stdin_used+0xa05>
    5271:	e8 1a f5 ff ff       	callq  4790 <PyOS_snprintf@plt>
    5276:	31 ff                	xor    %edi,%edi
    5278:	ba 01 00 00 00       	mov    $0x1,%edx
    527d:	4c 89 e6             	mov    %r12,%rsi
    5280:	e8 4b f7 ff ff       	callq  49d0 <PyErr_WarnEx@plt>
    5285:	85 c0                	test   %eax,%eax
    5287:	0f 88 a2 02 00 00    	js     552f <__pyx_pymod_exec_arrow_mouse+0x39e>
    528d:	48 8b 05 0c d0 00 00 	mov    0xd00c(%rip),%rax        # 122a0 <PyFrame_Type+0x20>
    5294:	31 ff                	xor    %edi,%edi
    5296:	48 83 e8 08          	sub    $0x8,%rax
    529a:	48 89 05 d7 ed 00 00 	mov    %rax,0xedd7(%rip)        # 14078 <__pyx_pyframe_localsplus_offset>
    52a1:	e8 9a f8 ff ff       	callq  4b40 <PyTuple_New@plt>
    52a6:	48 89 05 db ed 00 00 	mov    %rax,0xeddb(%rip)        # 14088 <__pyx_empty_tuple>
    52ad:	49 89 c4             	mov    %rax,%r12
    52b0:	48 85 c0             	test   %rax,%rax
    52b3:	0f 84 94 02 00 00    	je     554d <__pyx_pymod_exec_arrow_mouse+0x3bc>
    52b9:	31 f6                	xor    %esi,%esi
    52bb:	48 8d 3d 08 7e 00 00 	lea    0x7e08(%rip),%rdi        # d0ca <_IO_stdin_used+0xca>
    52c2:	e8 b9 f7 ff ff       	callq  4a80 <PyBytes_FromStringAndSize@plt>
    52c7:	48 89 05 b2 ed 00 00 	mov    %rax,0xedb2(%rip)        # 14080 <__pyx_empty_bytes>
    52ce:	49 89 c4             	mov    %rax,%r12
    52d1:	48 85 c0             	test   %rax,%rax
    52d4:	0f 84 90 02 00 00    	je     556a <__pyx_pymod_exec_arrow_mouse+0x3d9>
    52da:	31 f6                	xor    %esi,%esi
    52dc:	48 8d 3d e7 7d 00 00 	lea    0x7de7(%rip),%rdi        # d0ca <_IO_stdin_used+0xca>
    52e3:	e8 f8 f8 ff ff       	callq  4be0 <PyUnicode_FromStringAndSize@plt>
    52e8:	49 89 c4             	mov    %rax,%r12
    52eb:	48 85 c0             	test   %rax,%rax
    52ee:	0f 84 93 02 00 00    	je     5587 <__pyx_pymod_exec_arrow_mouse+0x3f6>
    52f4:	48 8d 3d 54 85 00 00 	lea    0x8554(%rip),%rdi        # d84f <_IO_stdin_used+0x84f>
    52fb:	e8 d0 f4 ff ff       	callq  47d0 <PyImport_AddModule@plt>
    5300:	49 89 c5             	mov    %rax,%r13
    5303:	48 85 c0             	test   %rax,%rax
    5306:	0f 84 d4 00 00 00    	je     53e0 <__pyx_pymod_exec_arrow_mouse+0x24f>
    530c:	48 ff 00             	incq   (%rax)
    530f:	48 8b 35 82 bd 00 00 	mov    0xbd82(%rip),%rsi        # 11098 <__pyx_CyFunctionType_type+0x18>
    5316:	48 89 c7             	mov    %rax,%rdi
    5319:	e8 02 f7 ff ff       	callq  4a20 <PyObject_GetAttrString@plt>
    531e:	49 89 c4             	mov    %rax,%r12
    5321:	48 85 c0             	test   %rax,%rax
    5324:	74 47                	je     536d <__pyx_pymod_exec_arrow_mouse+0x1dc>
    5326:	48 8b 40 08          	mov    0x8(%rax),%rax
    532a:	48 8b 15 67 bd 00 00 	mov    0xbd67(%rip),%rdx        # 11098 <__pyx_CyFunctionType_type+0x18>
    5331:	48 8d 35 27 85 00 00 	lea    0x8527(%rip),%rsi        # d85f <_IO_stdin_used+0x85f>
    5338:	f6 80 ab 00 00 00 80 	testb  $0x80,0xab(%rax)
    533f:	74 1c                	je     535d <__pyx_pymod_exec_arrow_mouse+0x1cc>
    5341:	48 8b 05 58 bd 00 00 	mov    0xbd58(%rip),%rax        # 110a0 <__pyx_CyFunctionType_type+0x20>
    5348:	49 39 44 24 20       	cmp    %rax,0x20(%r12)
    534d:	74 6b                	je     53ba <__pyx_pymod_exec_arrow_mouse+0x229>
    534f:	48 8b 15 42 bd 00 00 	mov    0xbd42(%rip),%rdx        # 11098 <__pyx_CyFunctionType_type+0x18>
    5356:	48 8d 35 31 85 00 00 	lea    0x8531(%rip),%rsi        # d88e <_IO_stdin_used+0x88e>
    535d:	48 8b 3d 7c d2 00 00 	mov    0xd27c(%rip),%rdi        # 125e0 <PyExc_TypeError>
    5364:	31 c0                	xor    %eax,%eax
    5366:	e8 75 f4 ff ff       	callq  47e0 <PyErr_Format@plt>
    536b:	eb 66                	jmp    53d3 <__pyx_pymod_exec_arrow_mouse+0x242>
    536d:	48 8b 3d f4 e1 00 00 	mov    0xe1f4(%rip),%rdi        # 13568 <PyExc_AttributeError>
    5374:	e8 c7 f4 ff ff       	callq  4840 <PyErr_ExceptionMatches@plt>
    5379:	85 c0                	test   %eax,%eax
    537b:	74 56                	je     53d3 <__pyx_pymod_exec_arrow_mouse+0x242>
    537d:	e8 ae f7 ff ff       	callq  4b30 <PyErr_Clear@plt>
    5382:	48 8d 3d f7 bc 00 00 	lea    0xbcf7(%rip),%rdi        # 11080 <__pyx_CyFunctionType_type>
    5389:	e8 42 f3 ff ff       	callq  46d0 <PyType_Ready@plt>
    538e:	85 c0                	test   %eax,%eax
    5390:	78 41                	js     53d3 <__pyx_pymod_exec_arrow_mouse+0x242>
    5392:	48 8b 35 ff bc 00 00 	mov    0xbcff(%rip),%rsi        # 11098 <__pyx_CyFunctionType_type+0x18>
    5399:	48 8d 15 e0 bc 00 00 	lea    0xbce0(%rip),%rdx        # 11080 <__pyx_CyFunctionType_type>
    53a0:	4c 89 ef             	mov    %r13,%rdi
    53a3:	e8 a8 f6 ff ff       	callq  4a50 <PyObject_SetAttrString@plt>
    53a8:	85 c0                	test   %eax,%eax
    53aa:	78 27                	js     53d3 <__pyx_pymod_exec_arrow_mouse+0x242>
    53ac:	48 ff 05 cd bc 00 00 	incq   0xbccd(%rip)        # 11080 <__pyx_CyFunctionType_type>
    53b3:	4c 8d 25 c6 bc 00 00 	lea    0xbcc6(%rip),%r12        # 11080 <__pyx_CyFunctionType_type>
    53ba:	4c 89 ef             	mov    %r13,%rdi
    53bd:	e8 ad 53 00 00       	callq  a76f <_Py_DECREF.isra.0>
    53c2:	4c 89 25 a7 ec 00 00 	mov    %r12,0xeca7(%rip)        # 14070 <__pyx_CyFunctionType>
    53c9:	4d 85 e4             	test   %r12,%r12
    53cc:	75 3a                	jne    5408 <__pyx_pymod_exec_arrow_mouse+0x277>
    53ce:	e9 d1 01 00 00       	jmpq   55a4 <__pyx_pymod_exec_arrow_mouse+0x413>
    53d3:	4c 89 e7             	mov    %r12,%rdi
    53d6:	45 31 e4             	xor    %r12d,%r12d
    53d9:	e8 81 54 00 00       	callq  a85f <_Py_XDECREF>
    53de:	eb da                	jmp    53ba <__pyx_pymod_exec_arrow_mouse+0x229>
    53e0:	31 db                	xor    %ebx,%ebx
    53e2:	45 31 f6             	xor    %r14d,%r14d
    53e5:	45 31 c9             	xor    %r9d,%r9d
    53e8:	45 31 e4             	xor    %r12d,%r12d
    53eb:	31 ed                	xor    %ebp,%ebp
    53ed:	41 bf 11 0b 00 00    	mov    $0xb11,%r15d
    53f3:	ba 01 00 00 00       	mov    $0x1,%edx
    53f8:	48 c7 05 6d ec 00 00 	movq   $0x0,0xec6d(%rip)        # 14070 <__pyx_CyFunctionType>
    53ff:	00 00 00 00 
    5403:	e9 3f 03 00 00       	jmpq   5747 <__pyx_pymod_exec_arrow_mouse+0x5b6>
    5408:	49 ff 06             	incq   (%r14)
    540b:	4c 89 f7             	mov    %r14,%rdi
    540e:	4c 89 35 93 ec 00 00 	mov    %r14,0xec93(%rip)        # 140a8 <__pyx_m>
    5415:	e8 16 f5 ff ff       	callq  4930 <PyModule_GetDict@plt>
    541a:	48 89 05 7f ec 00 00 	mov    %rax,0xec7f(%rip)        # 140a0 <__pyx_d>
    5421:	49 89 c4             	mov    %rax,%r12
    5424:	48 85 c0             	test   %rax,%rax
    5427:	0f 84 94 01 00 00    	je     55c1 <__pyx_pymod_exec_arrow_mouse+0x430>
    542d:	48 ff 00             	incq   (%rax)
    5430:	48 8d 3d 95 84 00 00 	lea    0x8495(%rip),%rdi        # d8cc <_IO_stdin_used+0x8cc>
    5437:	e8 94 f3 ff ff       	callq  47d0 <PyImport_AddModule@plt>
    543c:	48 89 05 55 ec 00 00 	mov    %rax,0xec55(%rip)        # 14098 <__pyx_b>
    5443:	49 89 c4             	mov    %rax,%r12
    5446:	48 85 c0             	test   %rax,%rax
    5449:	0f 84 8f 01 00 00    	je     55de <__pyx_pymod_exec_arrow_mouse+0x44d>
    544f:	48 ff 00             	incq   (%rax)
    5452:	48 8d 3d 7c 84 00 00 	lea    0x847c(%rip),%rdi        # d8d5 <_IO_stdin_used+0x8d5>
    5459:	e8 72 f3 ff ff       	callq  47d0 <PyImport_AddModule@plt>
    545e:	48 89 05 2b ec 00 00 	mov    %rax,0xec2b(%rip)        # 14090 <__pyx_cython_runtime>
    5465:	49 89 c4             	mov    %rax,%r12
    5468:	48 85 c0             	test   %rax,%rax
    546b:	0f 84 8a 01 00 00    	je     55fb <__pyx_pymod_exec_arrow_mouse+0x46a>
    5471:	48 ff 00             	incq   (%rax)
    5474:	48 8b 15 1d ec 00 00 	mov    0xec1d(%rip),%rdx        # 14098 <__pyx_b>
    547b:	48 8d 35 62 84 00 00 	lea    0x8462(%rip),%rsi        # d8e4 <_IO_stdin_used+0x8e4>
    5482:	48 8d 1d 37 c1 00 00 	lea    0xc137(%rip),%rbx        # 115c0 <__pyx_string_tab>
    5489:	48 8b 3d 18 ec 00 00 	mov    0xec18(%rip),%rdi        # 140a8 <__pyx_m>
    5490:	e8 bb f5 ff ff       	callq  4a50 <PyObject_SetAttrString@plt>
    5495:	85 c0                	test   %eax,%eax
    5497:	0f 88 7b 01 00 00    	js     5618 <__pyx_pymod_exec_arrow_mouse+0x487>
    549d:	4c 8b 33             	mov    (%rbx),%r14
    54a0:	4d 85 f6             	test   %r14,%r14
    54a3:	0f 84 8d 01 00 00    	je     5636 <__pyx_pymod_exec_arrow_mouse+0x4a5>
    54a9:	8a 43 20             	mov    0x20(%rbx),%al
    54ac:	0a 43 21             	or     0x21(%rbx),%al
    54af:	48 8b 7b 08          	mov    0x8(%rbx),%rdi
    54b3:	74 2e                	je     54e3 <__pyx_pymod_exec_arrow_mouse+0x352>
    54b5:	80 7b 22 00          	cmpb   $0x0,0x22(%rbx)
    54b9:	74 07                	je     54c2 <__pyx_pymod_exec_arrow_mouse+0x331>
    54bb:	e8 f0 f3 ff ff       	callq  48b0 <PyUnicode_InternFromString@plt>
    54c0:	eb 2e                	jmp    54f0 <__pyx_pymod_exec_arrow_mouse+0x35f>
    54c2:	48 8b 43 10          	mov    0x10(%rbx),%rax
    54c6:	48 8b 53 18          	mov    0x18(%rbx),%rdx
    54ca:	48 8d 70 ff          	lea    -0x1(%rax),%rsi
    54ce:	48 85 d2             	test   %rdx,%rdx
    54d1:	74 09                	je     54dc <__pyx_pymod_exec_arrow_mouse+0x34b>
    54d3:	31 c9                	xor    %ecx,%ecx
    54d5:	e8 d6 f4 ff ff       	callq  49b0 <PyUnicode_Decode@plt>
    54da:	eb 14                	jmp    54f0 <__pyx_pymod_exec_arrow_mouse+0x35f>
    54dc:	e8 ff f6 ff ff       	callq  4be0 <PyUnicode_FromStringAndSize@plt>
    54e1:	eb 0d                	jmp    54f0 <__pyx_pymod_exec_arrow_mouse+0x35f>
    54e3:	48 8b 43 10          	mov    0x10(%rbx),%rax
    54e7:	48 8d 70 ff          	lea    -0x1(%rax),%rsi
    54eb:	e8 90 f5 ff ff       	callq  4a80 <PyBytes_FromStringAndSize@plt>
    54f0:	49 89 06             	mov    %rax,(%r14)
    54f3:	48 8b 03             	mov    (%rbx),%rax
    54f6:	48 8b 38             	mov    (%rax),%rdi
    54f9:	48 85 ff             	test   %rdi,%rdi
    54fc:	75 1e                	jne    551c <__pyx_pymod_exec_arrow_mouse+0x38b>
    54fe:	31 db                	xor    %ebx,%ebx
    5500:	45 31 f6             	xor    %r14d,%r14d
    5503:	45 31 c9             	xor    %r9d,%r9d
    5506:	45 31 ed             	xor    %r13d,%r13d
    5509:	45 31 e4             	xor    %r12d,%r12d
    550c:	41 bf 3b 0b 00 00    	mov    $0xb3b,%r15d
    5512:	ba 01 00 00 00       	mov    $0x1,%edx
    5517:	e9 2b 02 00 00       	jmpq   5747 <__pyx_pymod_exec_arrow_mouse+0x5b6>
    551c:	e8 cf f4 ff ff       	callq  49f0 <PyObject_Hash@plt>
    5521:	48 ff c0             	inc    %rax
    5524:	74 d8                	je     54fe <__pyx_pymod_exec_arrow_mouse+0x36d>
    5526:	48 83 c3 28          	add    $0x28,%rbx
    552a:	e9 6e ff ff ff       	jmpq   549d <__pyx_pymod_exec_arrow_mouse+0x30c>
    552f:	31 db                	xor    %ebx,%ebx
    5531:	45 31 f6             	xor    %r14d,%r14d
    5534:	45 31 c9             	xor    %r9d,%r9d
    5537:	45 31 ed             	xor    %r13d,%r13d
    553a:	45 31 e4             	xor    %r12d,%r12d
    553d:	41 bf 09 0b 00 00    	mov    $0xb09,%r15d
    5543:	ba 01 00 00 00       	mov    $0x1,%edx
    5548:	e9 fa 01 00 00       	jmpq   5747 <__pyx_pymod_exec_arrow_mouse+0x5b6>
    554d:	31 db                	xor    %ebx,%ebx
    554f:	45 31 f6             	xor    %r14d,%r14d
    5552:	45 31 c9             	xor    %r9d,%r9d
    5555:	45 31 ed             	xor    %r13d,%r13d
    5558:	31 ed                	xor    %ebp,%ebp
    555a:	41 bf 0d 0b 00 00    	mov    $0xb0d,%r15d
    5560:	ba 01 00 00 00       	mov    $0x1,%edx
    5565:	e9 dd 01 00 00       	jmpq   5747 <__pyx_pymod_exec_arrow_mouse+0x5b6>
    556a:	31 db                	xor    %ebx,%ebx
    556c:	45 31 f6             	xor    %r14d,%r14d
    556f:	45 31 c9             	xor    %r9d,%r9d
    5572:	45 31 ed             	xor    %r13d,%r13d
    5575:	31 ed                	xor    %ebp,%ebp
    5577:	41 bf 0e 0b 00 00    	mov    $0xb0e,%r15d
    557d:	ba 01 00 00 00       	mov    $0x1,%edx
    5582:	e9 c0 01 00 00       	jmpq   5747 <__pyx_pymod_exec_arrow_mouse+0x5b6>
    5587:	31 db                	xor    %ebx,%ebx
    5589:	45 31 f6             	xor    %r14d,%r14d
    558c:	45 31 c9             	xor    %r9d,%r9d
    558f:	45 31 ed             	xor    %r13d,%r13d
    5592:	31 ed                	xor    %ebp,%ebp
    5594:	41 bf 0f 0b 00 00    	mov    $0xb0f,%r15d
    559a:	ba 01 00 00 00       	mov    $0x1,%edx
    559f:	e9 a3 01 00 00       	jmpq   5747 <__pyx_pymod_exec_arrow_mouse+0x5b6>
    55a4:	31 db                	xor    %ebx,%ebx
    55a6:	45 31 f6             	xor    %r14d,%r14d
    55a9:	45 31 c9             	xor    %r9d,%r9d
    55ac:	45 31 ed             	xor    %r13d,%r13d
    55af:	31 ed                	xor    %ebp,%ebp
    55b1:	41 bf 11 0b 00 00    	mov    $0xb11,%r15d
    55b7:	ba 01 00 00 00       	mov    $0x1,%edx
    55bc:	e9 86 01 00 00       	jmpq   5747 <__pyx_pymod_exec_arrow_mouse+0x5b6>
    55c1:	31 db                	xor    %ebx,%ebx
    55c3:	45 31 f6             	xor    %r14d,%r14d
    55c6:	45 31 c9             	xor    %r9d,%r9d
    55c9:	45 31 ed             	xor    %r13d,%r13d
    55cc:	31 ed                	xor    %ebp,%ebp
    55ce:	41 bf 33 0b 00 00    	mov    $0xb33,%r15d
    55d4:	ba 01 00 00 00       	mov    $0x1,%edx
    55d9:	e9 69 01 00 00       	jmpq   5747 <__pyx_pymod_exec_arrow_mouse+0x5b6>
    55de:	31 db                	xor    %ebx,%ebx
    55e0:	45 31 f6             	xor    %r14d,%r14d
    55e3:	45 31 c9             	xor    %r9d,%r9d
    55e6:	45 31 ed             	xor    %r13d,%r13d
    55e9:	31 ed                	xor    %ebp,%ebp
    55eb:	41 bf 35 0b 00 00    	mov    $0xb35,%r15d
    55f1:	ba 01 00 00 00       	mov    $0x1,%edx
    55f6:	e9 4c 01 00 00       	jmpq   5747 <__pyx_pymod_exec_arrow_mouse+0x5b6>
    55fb:	31 db                	xor    %ebx,%ebx
    55fd:	45 31 f6             	xor    %r14d,%r14d
    5600:	45 31 c9             	xor    %r9d,%r9d
    5603:	45 31 ed             	xor    %r13d,%r13d
    5606:	31 ed                	xor    %ebp,%ebp
    5608:	41 bf 37 0b 00 00    	mov    $0xb37,%r15d
    560e:	ba 01 00 00 00       	mov    $0x1,%edx
    5613:	e9 2f 01 00 00       	jmpq   5747 <__pyx_pymod_exec_arrow_mouse+0x5b6>
    5618:	31 db                	xor    %ebx,%ebx
    561a:	45 31 f6             	xor    %r14d,%r14d
    561d:	45 31 c9             	xor    %r9d,%r9d
    5620:	45 31 ed             	xor    %r13d,%r13d
    5623:	45 31 e4             	xor    %r12d,%r12d
    5626:	41 bf 39 0b 00 00    	mov    $0xb39,%r15d
    562c:	ba 01 00 00 00       	mov    $0x1,%edx
    5631:	e9 11 01 00 00       	jmpq   5747 <__pyx_pymod_exec_arrow_mouse+0x5b6>
    5636:	f2 0f 10 05 3a 8b 00 	movsd  0x8b3a(%rip),%xmm0        # e178 <__pyx_k_a+0x19>
    563d:	00 
    563e:	e8 ad f1 ff ff       	callq  47f0 <PyFloat_FromDouble@plt>
    5643:	48 89 05 d6 e7 00 00 	mov    %rax,0xe7d6(%rip)        # 13e20 <__pyx_float_0_2>
    564a:	49 89 c4             	mov    %rax,%r12
    564d:	48 85 c0             	test   %rax,%rax
    5650:	0f 84 de 43 00 00    	je     9a34 <__pyx_pymod_exec_arrow_mouse+0x48a3>
    5656:	31 ff                	xor    %edi,%edi
    5658:	e8 73 f4 ff ff       	callq  4ad0 <PyLong_FromLong@plt>
    565d:	48 89 05 b4 e7 00 00 	mov    %rax,0xe7b4(%rip)        # 13e18 <__pyx_int_0>
    5664:	48 85 c0             	test   %rax,%rax
    5667:	0f 84 91 fe ff ff    	je     54fe <__pyx_pymod_exec_arrow_mouse+0x36d>
    566d:	bf 01 00 00 00       	mov    $0x1,%edi
    5672:	e8 59 f4 ff ff       	callq  4ad0 <PyLong_FromLong@plt>
    5677:	48 89 05 92 e7 00 00 	mov    %rax,0xe792(%rip)        # 13e10 <__pyx_int_1>
    567e:	48 85 c0             	test   %rax,%rax
    5681:	0f 84 77 fe ff ff    	je     54fe <__pyx_pymod_exec_arrow_mouse+0x36d>
    5687:	bf 90 00 00 00       	mov    $0x90,%edi
    568c:	e8 3f f4 ff ff       	callq  4ad0 <PyLong_FromLong@plt>
    5691:	48 89 05 70 e7 00 00 	mov    %rax,0xe770(%rip)        # 13e08 <__pyx_int_144>
    5698:	48 85 c0             	test   %rax,%rax
    569b:	0f 84 5d fe ff ff    	je     54fe <__pyx_pymod_exec_arrow_mouse+0x36d>
    56a1:	bf e8 03 00 00       	mov    $0x3e8,%edi
    56a6:	e8 25 f4 ff ff       	callq  4ad0 <PyLong_FromLong@plt>
    56ab:	48 89 05 4e e7 00 00 	mov    %rax,0xe74e(%rip)        # 13e00 <__pyx_int_1000>
    56b2:	48 85 c0             	test   %rax,%rax
    56b5:	0f 84 43 fe ff ff    	je     54fe <__pyx_pymod_exec_arrow_mouse+0x36d>
    56bb:	83 3d de e3 00 00 00 	cmpl   $0x0,0xe3de(%rip)        # 13aa0 <__pyx_module_is_main_arrow_mouse>
    56c2:	0f 85 38 01 00 00    	jne    5800 <__pyx_pymod_exec_arrow_mouse+0x66f>
    56c8:	e8 93 f4 ff ff       	callq  4b60 <PyImport_GetModuleDict@plt>
    56cd:	49 89 c4             	mov    %rax,%r12
    56d0:	48 85 c0             	test   %rax,%rax
    56d3:	0f 84 84 31 00 00    	je     885d <__pyx_pymod_exec_arrow_mouse+0x36cc>
    56d9:	48 8d 35 25 83 00 00 	lea    0x8325(%rip),%rsi        # da05 <_IO_stdin_used+0xa05>
    56e0:	48 89 c7             	mov    %rax,%rdi
    56e3:	e8 a8 f3 ff ff       	callq  4a90 <PyDict_GetItemString@plt>
    56e8:	48 89 c5             	mov    %rax,%rbp
    56eb:	48 85 c0             	test   %rax,%rax
    56ee:	0f 84 4b 01 00 00    	je     583f <__pyx_pymod_exec_arrow_mouse+0x6ae>
    56f4:	48 8b 3d d5 e7 00 00 	mov    0xe7d5(%rip),%rdi        # 13ed0 <__pyx_n_s_property>
    56fb:	e8 c7 4f 00 00       	callq  a6c7 <__Pyx_GetBuiltinName>
    5700:	48 89 05 49 e9 00 00 	mov    %rax,0xe949(%rip)        # 14050 <__pyx_builtin_property>
    5707:	48 89 c5             	mov    %rax,%rbp
    570a:	48 85 c0             	test   %rax,%rax
    570d:	0f 84 67 31 00 00    	je     887a <__pyx_pymod_exec_arrow_mouse+0x36e9>
    5713:	48 8b 35 8e e7 00 00 	mov    0xe78e(%rip),%rsi        # 13ea8 <__pyx_n_s_self>
    571a:	31 c0                	xor    %eax,%eax
    571c:	bf 01 00 00 00       	mov    $0x1,%edi
    5721:	e8 ca f1 ff ff       	callq  48f0 <PyTuple_Pack@plt>
    5726:	48 85 c0             	test   %rax,%rax
    5729:	0f 85 4c 01 00 00    	jne    587b <__pyx_pymod_exec_arrow_mouse+0x6ea>
    572f:	31 db                	xor    %ebx,%ebx
    5731:	45 31 c9             	xor    %r9d,%r9d
    5734:	45 31 ed             	xor    %r13d,%r13d
    5737:	45 31 e4             	xor    %r12d,%r12d
    573a:	31 ed                	xor    %ebp,%ebp
    573c:	41 bf 4d 0b 00 00    	mov    $0xb4d,%r15d
    5742:	ba 01 00 00 00       	mov    $0x1,%edx
    5747:	48 89 ef             	mov    %rbp,%rdi
    574a:	89 54 24 08          	mov    %edx,0x8(%rsp)
    574e:	4c 89 0c 24          	mov    %r9,(%rsp)
    5752:	e8 08 51 00 00       	callq  a85f <_Py_XDECREF>
    5757:	4c 89 e7             	mov    %r12,%rdi
    575a:	e8 00 51 00 00       	callq  a85f <_Py_XDECREF>
    575f:	4c 89 ef             	mov    %r13,%rdi
    5762:	e8 f8 50 00 00       	callq  a85f <_Py_XDECREF>
    5767:	4c 8b 0c 24          	mov    (%rsp),%r9
    576b:	4c 89 cf             	mov    %r9,%rdi
    576e:	e8 ec 50 00 00       	callq  a85f <_Py_XDECREF>
    5773:	4c 89 f7             	mov    %r14,%rdi
    5776:	e8 e4 50 00 00       	callq  a85f <_Py_XDECREF>
    577b:	48 89 df             	mov    %rbx,%rdi
    577e:	e8 dc 50 00 00       	callq  a85f <_Py_XDECREF>
    5783:	48 83 3d 1d e9 00 00 	cmpq   $0x0,0xe91d(%rip)        # 140a8 <__pyx_m>
    578a:	00 
    578b:	74 42                	je     57cf <__pyx_pymod_exec_arrow_mouse+0x63e>
    578d:	48 83 3d 0b e9 00 00 	cmpq   $0x0,0xe90b(%rip)        # 140a0 <__pyx_d>
    5794:	00 
    5795:	74 1a                	je     57b1 <__pyx_pymod_exec_arrow_mouse+0x620>
    5797:	8b 54 24 08          	mov    0x8(%rsp),%edx
    579b:	48 8d 0d 91 7e 00 00 	lea    0x7e91(%rip),%rcx        # d633 <_IO_stdin_used+0x633>
    57a2:	44 89 fe             	mov    %r15d,%esi
    57a5:	48 8d 3d 54 82 00 00 	lea    0x8254(%rip),%rdi        # da00 <_IO_stdin_used+0xa00>
    57ac:	e8 ce 5e 00 00       	callq  b67f <__Pyx_AddTraceback>
    57b1:	48 8b 3d f0 e8 00 00 	mov    0xe8f0(%rip),%rdi        # 140a8 <__pyx_m>
    57b8:	48 85 ff             	test   %rdi,%rdi
    57bb:	74 2f                	je     57ec <__pyx_pymod_exec_arrow_mouse+0x65b>
    57bd:	48 c7 05 e0 e8 00 00 	movq   $0x0,0xe8e0(%rip)        # 140a8 <__pyx_m>
    57c4:	00 00 00 00 
    57c8:	e8 a2 4f 00 00       	callq  a76f <_Py_DECREF.isra.0>
    57cd:	eb 1d                	jmp    57ec <__pyx_pymod_exec_arrow_mouse+0x65b>
    57cf:	e8 7c f0 ff ff       	callq  4850 <PyErr_Occurred@plt>
    57d4:	48 85 c0             	test   %rax,%rax
    57d7:	75 13                	jne    57ec <__pyx_pymod_exec_arrow_mouse+0x65b>
    57d9:	48 8b 3d 80 ca 00 00 	mov    0xca80(%rip),%rdi        # 12260 <PyExc_ImportError>
    57e0:	48 8d 35 19 82 00 00 	lea    0x8219(%rip),%rsi        # da00 <_IO_stdin_used+0xa00>
    57e7:	e8 a4 f3 ff ff       	callq  4b90 <PyErr_SetString@plt>
    57ec:	31 c0                	xor    %eax,%eax
    57ee:	48 83 3d b2 e8 00 00 	cmpq   $0x0,0xe8b2(%rip)        # 140a8 <__pyx_m>
    57f5:	00 
    57f6:	0f 94 c0             	sete   %al
    57f9:	f7 d8                	neg    %eax
    57fb:	e9 51 42 00 00       	jmpq   9a51 <__pyx_pymod_exec_arrow_mouse+0x48c0>
    5800:	48 8b 15 31 e7 00 00 	mov    0xe731(%rip),%rdx        # 13f38 <__pyx_n_s_main>
    5807:	48 8b 35 ea e6 00 00 	mov    0xe6ea(%rip),%rsi        # 13ef8 <__pyx_n_s_name>
    580e:	48 8b 3d 93 e8 00 00 	mov    0xe893(%rip),%rdi        # 140a8 <__pyx_m>
    5815:	e8 56 f2 ff ff       	callq  4a70 <PyObject_SetAttr@plt>
    581a:	85 c0                	test   %eax,%eax
    581c:	0f 89 a6 fe ff ff    	jns    56c8 <__pyx_pymod_exec_arrow_mouse+0x537>
    5822:	31 db                	xor    %ebx,%ebx
    5824:	45 31 c9             	xor    %r9d,%r9d
    5827:	45 31 ed             	xor    %r13d,%r13d
    582a:	45 31 e4             	xor    %r12d,%r12d
    582d:	31 ed                	xor    %ebp,%ebp
    582f:	41 bf 40 0b 00 00    	mov    $0xb40,%r15d
    5835:	ba 01 00 00 00       	mov    $0x1,%edx
    583a:	e9 08 ff ff ff       	jmpq   5747 <__pyx_pymod_exec_arrow_mouse+0x5b6>
    583f:	48 8b 15 62 e8 00 00 	mov    0xe862(%rip),%rdx        # 140a8 <__pyx_m>
    5846:	48 8d 35 b8 81 00 00 	lea    0x81b8(%rip),%rsi        # da05 <_IO_stdin_used+0xa05>
    584d:	4c 89 e7             	mov    %r12,%rdi
    5850:	e8 1b ee ff ff       	callq  4670 <PyDict_SetItemString@plt>
    5855:	85 c0                	test   %eax,%eax
    5857:	0f 89 97 fe ff ff    	jns    56f4 <__pyx_pymod_exec_arrow_mouse+0x563>
    585d:	31 db                	xor    %ebx,%ebx
    585f:	45 31 f6             	xor    %r14d,%r14d
    5862:	45 31 c9             	xor    %r9d,%r9d
    5865:	45 31 ed             	xor    %r13d,%r13d
    5868:	45 31 e4             	xor    %r12d,%r12d
    586b:	41 bf 46 0b 00 00    	mov    $0xb46,%r15d
    5871:	ba 01 00 00 00       	mov    $0x1,%edx
    5876:	e9 cc fe ff ff       	jmpq   5747 <__pyx_pymod_exec_arrow_mouse+0x5b6>
    587b:	48 8b 15 06 e8 00 00 	mov    0xe806(%rip),%rdx        # 14088 <__pyx_empty_tuple>
    5882:	31 c9                	xor    %ecx,%ecx
    5884:	31 f6                	xor    %esi,%esi
    5886:	bf 01 00 00 00       	mov    $0x1,%edi
    588b:	4c 8b 0d ee e7 00 00 	mov    0xe7ee(%rip),%r9        # 14080 <__pyx_empty_bytes>
    5892:	53                   	push   %rbx
    5893:	41 b8 03 00 00 00    	mov    $0x3,%r8d
    5899:	41 51                	push   %r9
    589b:	6a 07                	pushq  $0x7
    589d:	ff 35 dd e6 00 00    	pushq  0xe6dd(%rip)        # 13f80 <__pyx_n_s_init>
    58a3:	ff 35 4f e7 00 00    	pushq  0xe74f(%rip)        # 13ff8 <__pyx_kp_s_arrow_mouse_pyx>
    58a9:	52                   	push   %rdx
    58aa:	52                   	push   %rdx
    58ab:	50                   	push   %rax
    58ac:	52                   	push   %rdx
    58ad:	52                   	push   %rdx
    58ae:	ba 01 00 00 00       	mov    $0x1,%edx
    58b3:	e8 58 ef ff ff       	callq  4810 <PyCode_New@plt>
    58b8:	48 83 c4 50          	add    $0x50,%rsp
    58bc:	48 89 05 35 e5 00 00 	mov    %rax,0xe535(%rip)        # 13df8 <__pyx_codeobj__2>
    58c3:	48 85 c0             	test   %rax,%rax
    58c6:	0f 84 63 fe ff ff    	je     572f <__pyx_pymod_exec_arrow_mouse+0x59e>
    58cc:	48 8b 35 d5 e5 00 00 	mov    0xe5d5(%rip),%rsi        # 13ea8 <__pyx_n_s_self>
    58d3:	31 c0                	xor    %eax,%eax
    58d5:	bf 01 00 00 00       	mov    $0x1,%edi
    58da:	e8 11 f0 ff ff       	callq  48f0 <PyTuple_Pack@plt>
    58df:	48 85 c0             	test   %rax,%rax
    58e2:	0f 84 47 fe ff ff    	je     572f <__pyx_pymod_exec_arrow_mouse+0x59e>
    58e8:	48 8b 15 99 e7 00 00 	mov    0xe799(%rip),%rdx        # 14088 <__pyx_empty_tuple>
    58ef:	31 c9                	xor    %ecx,%ecx
    58f1:	31 f6                	xor    %esi,%esi
    58f3:	bf 01 00 00 00       	mov    $0x1,%edi
    58f8:	4c 8b 0d 81 e7 00 00 	mov    0xe781(%rip),%r9        # 14080 <__pyx_empty_bytes>
    58ff:	41 53                	push   %r11
    5901:	41 b8 03 00 00 00    	mov    $0x3,%r8d
    5907:	41 51                	push   %r9
    5909:	6a 0a                	pushq  $0xa
    590b:	ff 35 17 e6 00 00    	pushq  0xe617(%rip)        # 13f28 <__pyx_n_s_measure>
    5911:	ff 35 e1 e6 00 00    	pushq  0xe6e1(%rip)        # 13ff8 <__pyx_kp_s_arrow_mouse_pyx>
    5917:	52                   	push   %rdx
    5918:	52                   	push   %rdx
    5919:	50                   	push   %rax
    591a:	52                   	push   %rdx
    591b:	52                   	push   %rdx
    591c:	ba 01 00 00 00       	mov    $0x1,%edx
    5921:	e8 ea ee ff ff       	callq  4810 <PyCode_New@plt>
    5926:	48 83 c4 50          	add    $0x50,%rsp
    592a:	48 89 05 bf e4 00 00 	mov    %rax,0xe4bf(%rip)        # 13df0 <__pyx_codeobj__4>
    5931:	48 85 c0             	test   %rax,%rax
    5934:	0f 84 f5 fd ff ff    	je     572f <__pyx_pymod_exec_arrow_mouse+0x59e>
    593a:	48 8b 0d 07 e6 00 00 	mov    0xe607(%rip),%rcx        # 13f48 <__pyx_n_s_last_ts_ms>
    5941:	48 8b 15 68 e5 00 00 	mov    0xe568(%rip),%rdx        # 13eb0 <__pyx_n_s_second_last_ts_ms>
    5948:	31 c0                	xor    %eax,%eax
    594a:	bf 03 00 00 00       	mov    $0x3,%edi
    594f:	48 8b 35 52 e5 00 00 	mov    0xe552(%rip),%rsi        # 13ea8 <__pyx_n_s_self>
    5956:	e8 95 ef ff ff       	callq  48f0 <PyTuple_Pack@plt>
    595b:	48 85 c0             	test   %rax,%rax
    595e:	0f 84 cb fd ff ff    	je     572f <__pyx_pymod_exec_arrow_mouse+0x59e>
    5964:	48 8b 15 1d e7 00 00 	mov    0xe71d(%rip),%rdx        # 14088 <__pyx_empty_tuple>
    596b:	31 c9                	xor    %ecx,%ecx
    596d:	31 f6                	xor    %esi,%esi
    596f:	bf 01 00 00 00       	mov    $0x1,%edi
    5974:	4c 8b 0d 05 e7 00 00 	mov    0xe705(%rip),%r9        # 14080 <__pyx_empty_bytes>
    597b:	41 52                	push   %r10
    597d:	41 b8 03 00 00 00    	mov    $0x3,%r8d
    5983:	41 51                	push   %r9
    5985:	6a 0e                	pushq  $0xe
    5987:	ff 35 3b e6 00 00    	pushq  0xe63b(%rip)        # 13fc8 <__pyx_n_s_delta_ts_ms>
    598d:	ff 35 65 e6 00 00    	pushq  0xe665(%rip)        # 13ff8 <__pyx_kp_s_arrow_mouse_pyx>
    5993:	52                   	push   %rdx
    5994:	52                   	push   %rdx
    5995:	50                   	push   %rax
    5996:	52                   	push   %rdx
    5997:	52                   	push   %rdx
    5998:	ba 03 00 00 00       	mov    $0x3,%edx
    599d:	e8 6e ee ff ff       	callq  4810 <PyCode_New@plt>
    59a2:	48 83 c4 50          	add    $0x50,%rsp
    59a6:	48 89 05 3b e4 00 00 	mov    %rax,0xe43b(%rip)        # 13de8 <__pyx_codeobj__6>
    59ad:	48 85 c0             	test   %rax,%rax
    59b0:	0f 84 79 fd ff ff    	je     572f <__pyx_pymod_exec_arrow_mouse+0x59e>
    59b6:	48 8b 35 eb e4 00 00 	mov    0xe4eb(%rip),%rsi        # 13ea8 <__pyx_n_s_self>
    59bd:	31 c0                	xor    %eax,%eax
    59bf:	bf 01 00 00 00       	mov    $0x1,%edi
    59c4:	e8 27 ef ff ff       	callq  48f0 <PyTuple_Pack@plt>
    59c9:	48 85 c0             	test   %rax,%rax
    59cc:	0f 84 5d fd ff ff    	je     572f <__pyx_pymod_exec_arrow_mouse+0x59e>
    59d2:	48 8b 15 af e6 00 00 	mov    0xe6af(%rip),%rdx        # 14088 <__pyx_empty_tuple>
    59d9:	31 c9                	xor    %ecx,%ecx
    59db:	31 f6                	xor    %esi,%esi
    59dd:	bf 01 00 00 00       	mov    $0x1,%edi
    59e2:	4c 8b 0d 97 e6 00 00 	mov    0xe697(%rip),%r9        # 14080 <__pyx_empty_bytes>
    59e9:	41 50                	push   %r8
    59eb:	41 b8 03 00 00 00    	mov    $0x3,%r8d
    59f1:	41 51                	push   %r9
    59f3:	6a 16                	pushq  $0x16
    59f5:	ff 35 ad e5 00 00    	pushq  0xe5ad(%rip)        # 13fa8 <__pyx_n_s_fps>
    59fb:	ff 35 f7 e5 00 00    	pushq  0xe5f7(%rip)        # 13ff8 <__pyx_kp_s_arrow_mouse_pyx>
    5a01:	52                   	push   %rdx
    5a02:	52                   	push   %rdx
    5a03:	50                   	push   %rax
    5a04:	52                   	push   %rdx
    5a05:	52                   	push   %rdx
    5a06:	ba 01 00 00 00       	mov    $0x1,%edx
    5a0b:	e8 00 ee ff ff       	callq  4810 <PyCode_New@plt>
    5a10:	48 83 c4 50          	add    $0x50,%rsp
    5a14:	48 89 05 c5 e3 00 00 	mov    %rax,0xe3c5(%rip)        # 13de0 <__pyx_codeobj__8>
    5a1b:	48 85 c0             	test   %rax,%rax
    5a1e:	0f 84 0b fd ff ff    	je     572f <__pyx_pymod_exec_arrow_mouse+0x59e>
    5a24:	48 8b 0d f5 e5 00 00 	mov    0xe5f5(%rip),%rcx        # 14020 <__pyx_n_s_a>
    5a2b:	48 8b 15 3e e4 00 00 	mov    0xe43e(%rip),%rdx        # 13e70 <__pyx_n_s_t>
    5a32:	31 c0                	xor    %eax,%eax
    5a34:	bf 03 00 00 00       	mov    $0x3,%edi
    5a39:	48 8b 35 50 e4 00 00 	mov    0xe450(%rip),%rsi        # 13e90 <__pyx_n_s_speed>
    5a40:	e8 ab ee ff ff       	callq  48f0 <PyTuple_Pack@plt>
    5a45:	48 85 c0             	test   %rax,%rax
    5a48:	0f 84 e1 fc ff ff    	je     572f <__pyx_pymod_exec_arrow_mouse+0x59e>
    5a4e:	48 8b 15 33 e6 00 00 	mov    0xe633(%rip),%rdx        # 14088 <__pyx_empty_tuple>
    5a55:	4c 8b 0d 24 e6 00 00 	mov    0xe624(%rip),%r9        # 14080 <__pyx_empty_bytes>
    5a5c:	57                   	push   %rdi
    5a5d:	41 b8 03 00 00 00    	mov    $0x3,%r8d
    5a63:	31 c9                	xor    %ecx,%ecx
    5a65:	31 f6                	xor    %esi,%esi
    5a67:	bf 02 00 00 00       	mov    $0x2,%edi
    5a6c:	41 51                	push   %r9
    5a6e:	6a 26                	pushq  $0x26
    5a70:	ff 35 02 e4 00 00    	pushq  0xe402(%rip)        # 13e78 <__pyx_n_s_speed_function_quadric>
    5a76:	ff 35 7c e5 00 00    	pushq  0xe57c(%rip)        # 13ff8 <__pyx_kp_s_arrow_mouse_pyx>
    5a7c:	52                   	push   %rdx
    5a7d:	52                   	push   %rdx
    5a7e:	50                   	push   %rax
    5a7f:	52                   	push   %rdx
    5a80:	52                   	push   %rdx
    5a81:	ba 03 00 00 00       	mov    $0x3,%edx
    5a86:	e8 85 ed ff ff       	callq  4810 <PyCode_New@plt>
    5a8b:	48 83 c4 50          	add    $0x50,%rsp
    5a8f:	48 85 c0             	test   %rax,%rax
    5a92:	0f 84 97 fc ff ff    	je     572f <__pyx_pymod_exec_arrow_mouse+0x59e>
    5a98:	48 8b 0d 91 e4 00 00 	mov    0xe491(%rip),%rcx        # 13f30 <__pyx_n_s_max_speed>
    5a9f:	48 8b 15 ca e3 00 00 	mov    0xe3ca(%rip),%rdx        # 13e70 <__pyx_n_s_t>
    5aa6:	31 c0                	xor    %eax,%eax
    5aa8:	bf 03 00 00 00       	mov    $0x3,%edi
    5aad:	48 8b 35 dc e3 00 00 	mov    0xe3dc(%rip),%rsi        # 13e90 <__pyx_n_s_speed>
    5ab4:	e8 37 ee ff ff       	callq  48f0 <PyTuple_Pack@plt>
    5ab9:	48 85 c0             	test   %rax,%rax
    5abc:	0f 84 6d fc ff ff    	je     572f <__pyx_pymod_exec_arrow_mouse+0x59e>
    5ac2:	48 8b 15 bf e5 00 00 	mov    0xe5bf(%rip),%rdx        # 14088 <__pyx_empty_tuple>
    5ac9:	4c 8b 0d b0 e5 00 00 	mov    0xe5b0(%rip),%r9        # 14080 <__pyx_empty_bytes>
    5ad0:	56                   	push   %rsi
    5ad1:	41 b8 03 00 00 00    	mov    $0x3,%r8d
    5ad7:	31 c9                	xor    %ecx,%ecx
    5ad9:	31 f6                	xor    %esi,%esi
    5adb:	bf 02 00 00 00       	mov    $0x2,%edi
    5ae0:	41 51                	push   %r9
    5ae2:	6a 2b                	pushq  $0x2b
    5ae4:	ff 35 96 e3 00 00    	pushq  0xe396(%rip)        # 13e80 <__pyx_n_s_speed_function_linear>
    5aea:	ff 35 08 e5 00 00    	pushq  0xe508(%rip)        # 13ff8 <__pyx_kp_s_arrow_mouse_pyx>
    5af0:	52                   	push   %rdx
    5af1:	52                   	push   %rdx
    5af2:	50                   	push   %rax
    5af3:	52                   	push   %rdx
    5af4:	52                   	push   %rdx
    5af5:	ba 03 00 00 00       	mov    $0x3,%edx
    5afa:	e8 11 ed ff ff       	callq  4810 <PyCode_New@plt>
    5aff:	48 83 c4 50          	add    $0x50,%rsp
    5b03:	48 85 c0             	test   %rax,%rax
    5b06:	0f 84 23 fc ff ff    	je     572f <__pyx_pymod_exec_arrow_mouse+0x59e>
    5b0c:	48 8b 15 5d e3 00 00 	mov    0xe35d(%rip),%rdx        # 13e70 <__pyx_n_s_t>
    5b13:	48 8b 35 76 e3 00 00 	mov    0xe376(%rip),%rsi        # 13e90 <__pyx_n_s_speed>
    5b1a:	31 c0                	xor    %eax,%eax
    5b1c:	bf 02 00 00 00       	mov    $0x2,%edi
    5b21:	e8 ca ed ff ff       	callq  48f0 <PyTuple_Pack@plt>
    5b26:	48 85 c0             	test   %rax,%rax
    5b29:	0f 84 00 fc ff ff    	je     572f <__pyx_pymod_exec_arrow_mouse+0x59e>
    5b2f:	48 8b 15 52 e5 00 00 	mov    0xe552(%rip),%rdx        # 14088 <__pyx_empty_tuple>
    5b36:	4c 8b 0d 43 e5 00 00 	mov    0xe543(%rip),%r9        # 14080 <__pyx_empty_bytes>
    5b3d:	51                   	push   %rcx
    5b3e:	41 b8 03 00 00 00    	mov    $0x3,%r8d
    5b44:	31 c9                	xor    %ecx,%ecx
    5b46:	31 f6                	xor    %esi,%esi
    5b48:	bf 02 00 00 00       	mov    $0x2,%edi
    5b4d:	41 51                	push   %r9
    5b4f:	6a 34                	pushq  $0x34
    5b51:	ff 35 31 e3 00 00    	pushq  0xe331(%rip)        # 13e88 <__pyx_n_s_speed_function>
    5b57:	ff 35 9b e4 00 00    	pushq  0xe49b(%rip)        # 13ff8 <__pyx_kp_s_arrow_mouse_pyx>
    5b5d:	52                   	push   %rdx
    5b5e:	52                   	push   %rdx
    5b5f:	50                   	push   %rax
    5b60:	52                   	push   %rdx
    5b61:	52                   	push   %rdx
    5b62:	ba 02 00 00 00       	mov    $0x2,%edx
    5b67:	e8 a4 ec ff ff       	callq  4810 <PyCode_New@plt>
    5b6c:	48 83 c4 50          	add    $0x50,%rsp
    5b70:	48 85 c0             	test   %rax,%rax
    5b73:	0f 84 b6 fb ff ff    	je     572f <__pyx_pymod_exec_arrow_mouse+0x59e>
    5b79:	48 8b 3d d0 e2 00 00 	mov    0xe2d0(%rip),%rdi        # 13e50 <__pyx_n_s_time>
    5b80:	e8 12 f4 ff ff       	callq  4f97 <__Pyx_Import.constprop.0>
    5b85:	48 89 c5             	mov    %rax,%rbp
    5b88:	48 85 c0             	test   %rax,%rax
    5b8b:	0f 84 07 2d 00 00    	je     8898 <__pyx_pymod_exec_arrow_mouse+0x3707>
    5b91:	48 8b 35 b8 e2 00 00 	mov    0xe2b8(%rip),%rsi        # 13e50 <__pyx_n_s_time>
    5b98:	48 8b 3d 01 e5 00 00 	mov    0xe501(%rip),%rdi        # 140a0 <__pyx_d>
    5b9f:	48 89 c2             	mov    %rax,%rdx
    5ba2:	e8 a9 f0 ff ff       	callq  4c50 <PyDict_SetItem@plt>
    5ba7:	85 c0                	test   %eax,%eax
    5ba9:	0f 88 07 2d 00 00    	js     88b6 <__pyx_pymod_exec_arrow_mouse+0x3725>
    5baf:	48 89 ef             	mov    %rbp,%rdi
    5bb2:	e8 b8 4b 00 00       	callq  a76f <_Py_DECREF.isra.0>
    5bb7:	48 8b 3d a2 e3 00 00 	mov    0xe3a2(%rip),%rdi        # 13f60 <__pyx_n_s_keyboard>
    5bbe:	e8 d4 f3 ff ff       	callq  4f97 <__Pyx_Import.constprop.0>
    5bc3:	48 89 c5             	mov    %rax,%rbp
    5bc6:	48 85 c0             	test   %rax,%rax
    5bc9:	0f 84 02 2d 00 00    	je     88d1 <__pyx_pymod_exec_arrow_mouse+0x3740>
    5bcf:	48 8b 35 8a e3 00 00 	mov    0xe38a(%rip),%rsi        # 13f60 <__pyx_n_s_keyboard>
    5bd6:	48 8b 3d c3 e4 00 00 	mov    0xe4c3(%rip),%rdi        # 140a0 <__pyx_d>
    5bdd:	48 89 c2             	mov    %rax,%rdx
    5be0:	e8 6b f0 ff ff       	callq  4c50 <PyDict_SetItem@plt>
    5be5:	85 c0                	test   %eax,%eax
    5be7:	0f 88 02 2d 00 00    	js     88ef <__pyx_pymod_exec_arrow_mouse+0x375e>
    5bed:	48 89 ef             	mov    %rbp,%rdi
    5bf0:	e8 7a 4b 00 00       	callq  a76f <_Py_DECREF.isra.0>
    5bf5:	48 8b 3d 14 e3 00 00 	mov    0xe314(%rip),%rdi        # 13f10 <__pyx_n_s_mouse>
    5bfc:	e8 96 f3 ff ff       	callq  4f97 <__Pyx_Import.constprop.0>
    5c01:	48 89 c5             	mov    %rax,%rbp
    5c04:	48 85 c0             	test   %rax,%rax
    5c07:	0f 84 fd 2c 00 00    	je     890a <__pyx_pymod_exec_arrow_mouse+0x3779>
    5c0d:	48 8b 35 fc e2 00 00 	mov    0xe2fc(%rip),%rsi        # 13f10 <__pyx_n_s_mouse>
    5c14:	48 8b 3d 85 e4 00 00 	mov    0xe485(%rip),%rdi        # 140a0 <__pyx_d>
    5c1b:	48 89 c2             	mov    %rax,%rdx
    5c1e:	e8 2d f0 ff ff       	callq  4c50 <PyDict_SetItem@plt>
    5c23:	85 c0                	test   %eax,%eax
    5c25:	0f 88 fd 2c 00 00    	js     8928 <__pyx_pymod_exec_arrow_mouse+0x3797>
    5c2b:	48 89 ef             	mov    %rbp,%rdi
    5c2e:	e8 3c 4b 00 00       	callq  a76f <_Py_DECREF.isra.0>
    5c33:	4c 8b 2d c6 e3 00 00 	mov    0xe3c6(%rip),%r13        # 14000 <__pyx_n_s_arrow_mouse>
    5c3a:	4c 8b 25 07 e4 00 00 	mov    0xe407(%rip),%r12        # 14048 <__pyx_n_s_Time_measuring>
    5c41:	e8 1a f0 ff ff       	callq  4c60 <PyDict_New@plt>
    5c46:	48 89 c5             	mov    %rax,%rbp
    5c49:	48 85 c0             	test   %rax,%rax
    5c4c:	0f 84 f1 2c 00 00    	je     8943 <__pyx_pymod_exec_arrow_mouse+0x37b2>
    5c52:	48 8b 35 bf e2 00 00 	mov    0xe2bf(%rip),%rsi        # 13f18 <__pyx_n_s_module>
    5c59:	4c 89 ea             	mov    %r13,%rdx
    5c5c:	48 89 c7             	mov    %rax,%rdi
    5c5f:	e8 ec ec ff ff       	callq  4950 <PyObject_SetItem@plt>
    5c64:	85 c0                	test   %eax,%eax
    5c66:	79 25                	jns    5c8d <__pyx_pymod_exec_arrow_mouse+0xafc>
    5c68:	48 89 ef             	mov    %rbp,%rdi
    5c6b:	31 db                	xor    %ebx,%ebx
    5c6d:	45 31 ed             	xor    %r13d,%r13d
    5c70:	45 31 e4             	xor    %r12d,%r12d
    5c73:	e8 f7 4a 00 00       	callq  a76f <_Py_DECREF.isra.0>
    5c78:	31 ed                	xor    %ebp,%ebp
    5c7a:	45 31 c9             	xor    %r9d,%r9d
    5c7d:	41 bf 83 0b 00 00    	mov    $0xb83,%r15d
    5c83:	ba 06 00 00 00       	mov    $0x6,%edx
    5c88:	e9 ba fa ff ff       	jmpq   5747 <__pyx_pymod_exec_arrow_mouse+0x5b6>
    5c8d:	48 8b 35 2c e2 00 00 	mov    0xe22c(%rip),%rsi        # 13ec0 <__pyx_n_s_qualname>
    5c94:	4c 89 e2             	mov    %r12,%rdx
    5c97:	48 89 ef             	mov    %rbp,%rdi
    5c9a:	e8 b1 ec ff ff       	callq  4950 <PyObject_SetItem@plt>
    5c9f:	85 c0                	test   %eax,%eax
    5ca1:	78 c5                	js     5c68 <__pyx_pymod_exec_arrow_mouse+0xad7>
    5ca3:	4c 8b 05 4e e1 00 00 	mov    0xe14e(%rip),%r8        # 13df8 <__pyx_codeobj__2>
    5caa:	48 8b 0d ef e3 00 00 	mov    0xe3ef(%rip),%rcx        # 140a0 <__pyx_d>
    5cb1:	48 8d 3d 88 c5 00 00 	lea    0xc588(%rip),%rdi        # 12240 <__pyx_mdef_11arrow_mouse_14Time_measuring_1__init__>
    5cb8:	48 8b 15 41 e3 00 00 	mov    0xe341(%rip),%rdx        # 14000 <__pyx_n_s_arrow_mouse>
    5cbf:	48 8b 35 7a e3 00 00 	mov    0xe37a(%rip),%rsi        # 14040 <__pyx_n_s_Time_measuring___init>
    5cc6:	e8 c4 f3 ff ff       	callq  508f <__Pyx_CyFunction_New.constprop.0>
    5ccb:	49 89 c4             	mov    %rax,%r12
    5cce:	48 85 c0             	test   %rax,%rax
    5cd1:	0f 84 8a 2c 00 00    	je     8961 <__pyx_pymod_exec_arrow_mouse+0x37d0>
    5cd7:	48 8b 35 a2 e2 00 00 	mov    0xe2a2(%rip),%rsi        # 13f80 <__pyx_n_s_init>
    5cde:	48 8d 1d 1b c9 00 00 	lea    0xc91b(%rip),%rbx        # 12600 <PyDict_Type>
    5ce5:	48 39 5d 08          	cmp    %rbx,0x8(%rbp)
    5ce9:	75 11                	jne    5cfc <__pyx_pymod_exec_arrow_mouse+0xb6b>
    5ceb:	48 8b 4e 18          	mov    0x18(%rsi),%rcx
    5cef:	48 89 c2             	mov    %rax,%rdx
    5cf2:	48 89 ef             	mov    %rbp,%rdi
    5cf5:	e8 06 eb ff ff       	callq  4800 <_PyDict_SetItem_KnownHash@plt>
    5cfa:	eb 0b                	jmp    5d07 <__pyx_pymod_exec_arrow_mouse+0xb76>
    5cfc:	48 89 c2             	mov    %rax,%rdx
    5cff:	48 89 ef             	mov    %rbp,%rdi
    5d02:	e8 49 ec ff ff       	callq  4950 <PyObject_SetItem@plt>
    5d07:	c1 e8 1f             	shr    $0x1f,%eax
    5d0a:	84 c0                	test   %al,%al
    5d0c:	0f 85 6a 2c 00 00    	jne    897c <__pyx_pymod_exec_arrow_mouse+0x37eb>
    5d12:	4c 89 e7             	mov    %r12,%rdi
    5d15:	e8 55 4a 00 00       	callq  a76f <_Py_DECREF.isra.0>
    5d1a:	4c 8b 05 cf e0 00 00 	mov    0xe0cf(%rip),%r8        # 13df0 <__pyx_codeobj__4>
    5d21:	48 8b 0d 78 e3 00 00 	mov    0xe378(%rip),%rcx        # 140a0 <__pyx_d>
    5d28:	48 8d 3d f1 c4 00 00 	lea    0xc4f1(%rip),%rdi        # 12220 <__pyx_mdef_11arrow_mouse_14Time_measuring_3measure>
    5d2f:	48 8b 15 ca e2 00 00 	mov    0xe2ca(%rip),%rdx        # 14000 <__pyx_n_s_arrow_mouse>
    5d36:	48 8b 35 eb e2 00 00 	mov    0xe2eb(%rip),%rsi        # 14028 <__pyx_n_s_Time_measuring_measure>
    5d3d:	e8 4d f3 ff ff       	callq  508f <__Pyx_CyFunction_New.constprop.0>
    5d42:	49 89 c4             	mov    %rax,%r12
    5d45:	48 85 c0             	test   %rax,%rax
    5d48:	0f 84 46 2c 00 00    	je     8994 <__pyx_pymod_exec_arrow_mouse+0x3803>
    5d4e:	48 8b 35 d3 e1 00 00 	mov    0xe1d3(%rip),%rsi        # 13f28 <__pyx_n_s_measure>
    5d55:	48 39 5d 08          	cmp    %rbx,0x8(%rbp)
    5d59:	75 11                	jne    5d6c <__pyx_pymod_exec_arrow_mouse+0xbdb>
    5d5b:	48 8b 4e 18          	mov    0x18(%rsi),%rcx
    5d5f:	48 89 c2             	mov    %rax,%rdx
    5d62:	48 89 ef             	mov    %rbp,%rdi
    5d65:	e8 96 ea ff ff       	callq  4800 <_PyDict_SetItem_KnownHash@plt>
    5d6a:	eb 0b                	jmp    5d77 <__pyx_pymod_exec_arrow_mouse+0xbe6>
    5d6c:	48 89 c2             	mov    %rax,%rdx
    5d6f:	48 89 ef             	mov    %rbp,%rdi
    5d72:	e8 d9 eb ff ff       	callq  4950 <PyObject_SetItem@plt>
    5d77:	c1 e8 1f             	shr    $0x1f,%eax
    5d7a:	84 c0                	test   %al,%al
    5d7c:	0f 85 2d 2c 00 00    	jne    89af <__pyx_pymod_exec_arrow_mouse+0x381e>
    5d82:	4c 89 e7             	mov    %r12,%rdi
    5d85:	e8 e5 49 00 00       	callq  a76f <_Py_DECREF.isra.0>
    5d8a:	4c 8b 05 57 e0 00 00 	mov    0xe057(%rip),%r8        # 13de8 <__pyx_codeobj__6>
    5d91:	48 8b 0d 08 e3 00 00 	mov    0xe308(%rip),%rcx        # 140a0 <__pyx_d>
    5d98:	48 8d 3d 61 c4 00 00 	lea    0xc461(%rip),%rdi        # 12200 <__pyx_mdef_11arrow_mouse_14Time_measuring_5delta_ts_ms>
    5d9f:	48 8b 15 5a e2 00 00 	mov    0xe25a(%rip),%rdx        # 14000 <__pyx_n_s_arrow_mouse>
    5da6:	48 8b 35 8b e2 00 00 	mov    0xe28b(%rip),%rsi        # 14038 <__pyx_n_s_Time_measuring_delta_ts_ms>
    5dad:	e8 dd f2 ff ff       	callq  508f <__Pyx_CyFunction_New.constprop.0>
    5db2:	49 89 c4             	mov    %rax,%r12
    5db5:	48 85 c0             	test   %rax,%rax
    5db8:	0f 84 09 2c 00 00    	je     89c7 <__pyx_pymod_exec_arrow_mouse+0x3836>
    5dbe:	48 8b 3d 8b e2 00 00 	mov    0xe28b(%rip),%rdi        # 14050 <__pyx_builtin_property>
    5dc5:	48 89 c6             	mov    %rax,%rsi
    5dc8:	e8 67 57 00 00       	callq  b534 <__Pyx_PyObject_CallOneArg>
    5dcd:	49 89 c5             	mov    %rax,%r13
    5dd0:	48 85 c0             	test   %rax,%rax
    5dd3:	0f 84 09 2c 00 00    	je     89e2 <__pyx_pymod_exec_arrow_mouse+0x3851>
    5dd9:	4c 89 e7             	mov    %r12,%rdi
    5ddc:	e8 8e 49 00 00       	callq  a76f <_Py_DECREF.isra.0>
    5de1:	48 39 5d 08          	cmp    %rbx,0x8(%rbp)
    5de5:	48 8b 35 dc e1 00 00 	mov    0xe1dc(%rip),%rsi        # 13fc8 <__pyx_n_s_delta_ts_ms>
    5dec:	75 11                	jne    5dff <__pyx_pymod_exec_arrow_mouse+0xc6e>
    5dee:	48 8b 4e 18          	mov    0x18(%rsi),%rcx
    5df2:	4c 89 ea             	mov    %r13,%rdx
    5df5:	48 89 ef             	mov    %rbp,%rdi
    5df8:	e8 03 ea ff ff       	callq  4800 <_PyDict_SetItem_KnownHash@plt>
    5dfd:	eb 0b                	jmp    5e0a <__pyx_pymod_exec_arrow_mouse+0xc79>
    5dff:	4c 89 ea             	mov    %r13,%rdx
    5e02:	48 89 ef             	mov    %rbp,%rdi
    5e05:	e8 46 eb ff ff       	callq  4950 <PyObject_SetItem@plt>
    5e0a:	c1 e8 1f             	shr    $0x1f,%eax
    5e0d:	84 c0                	test   %al,%al
    5e0f:	0f 85 e5 2b 00 00    	jne    89fa <__pyx_pymod_exec_arrow_mouse+0x3869>
    5e15:	4c 89 ef             	mov    %r13,%rdi
    5e18:	e8 52 49 00 00       	callq  a76f <_Py_DECREF.isra.0>
    5e1d:	4c 8b 05 bc df 00 00 	mov    0xdfbc(%rip),%r8        # 13de0 <__pyx_codeobj__8>
    5e24:	48 8b 0d 75 e2 00 00 	mov    0xe275(%rip),%rcx        # 140a0 <__pyx_d>
    5e2b:	48 8d 3d ae c3 00 00 	lea    0xc3ae(%rip),%rdi        # 121e0 <__pyx_mdef_11arrow_mouse_14Time_measuring_7fps>
    5e32:	48 8b 15 c7 e1 00 00 	mov    0xe1c7(%rip),%rdx        # 14000 <__pyx_n_s_arrow_mouse>
    5e39:	48 8b 35 f0 e1 00 00 	mov    0xe1f0(%rip),%rsi        # 14030 <__pyx_n_s_Time_measuring_fps>
    5e40:	e8 4a f2 ff ff       	callq  508f <__Pyx_CyFunction_New.constprop.0>
    5e45:	49 89 c5             	mov    %rax,%r13
    5e48:	48 85 c0             	test   %rax,%rax
    5e4b:	0f 84 c1 2b 00 00    	je     8a12 <__pyx_pymod_exec_arrow_mouse+0x3881>
    5e51:	48 8b 3d f8 e1 00 00 	mov    0xe1f8(%rip),%rdi        # 14050 <__pyx_builtin_property>
    5e58:	48 89 c6             	mov    %rax,%rsi
    5e5b:	e8 d4 56 00 00       	callq  b534 <__Pyx_PyObject_CallOneArg>
    5e60:	49 89 c4             	mov    %rax,%r12
    5e63:	48 85 c0             	test   %rax,%rax
    5e66:	0f 84 c1 2b 00 00    	je     8a2d <__pyx_pymod_exec_arrow_mouse+0x389c>
    5e6c:	4c 89 ef             	mov    %r13,%rdi
    5e6f:	e8 fb 48 00 00       	callq  a76f <_Py_DECREF.isra.0>
    5e74:	48 39 5d 08          	cmp    %rbx,0x8(%rbp)
    5e78:	48 8b 35 29 e1 00 00 	mov    0xe129(%rip),%rsi        # 13fa8 <__pyx_n_s_fps>
    5e7f:	75 11                	jne    5e92 <__pyx_pymod_exec_arrow_mouse+0xd01>
    5e81:	48 8b 4e 18          	mov    0x18(%rsi),%rcx
    5e85:	4c 89 e2             	mov    %r12,%rdx
    5e88:	48 89 ef             	mov    %rbp,%rdi
    5e8b:	e8 70 e9 ff ff       	callq  4800 <_PyDict_SetItem_KnownHash@plt>
    5e90:	eb 0b                	jmp    5e9d <__pyx_pymod_exec_arrow_mouse+0xd0c>
    5e92:	4c 89 e2             	mov    %r12,%rdx
    5e95:	48 89 ef             	mov    %rbp,%rdi
    5e98:	e8 b3 ea ff ff       	callq  4950 <PyObject_SetItem@plt>
    5e9d:	c1 e8 1f             	shr    $0x1f,%eax
    5ea0:	84 c0                	test   %al,%al
    5ea2:	0f 85 9d 2b 00 00    	jne    8a45 <__pyx_pymod_exec_arrow_mouse+0x38b4>
    5ea8:	4c 89 e7             	mov    %r12,%rdi
    5eab:	e8 bf 48 00 00       	callq  a76f <_Py_DECREF.isra.0>
    5eb0:	48 8b 35 69 e0 00 00 	mov    0xe069(%rip),%rsi        # 13f20 <__pyx_n_s_metaclass>
    5eb7:	48 89 ef             	mov    %rbp,%rdi
    5eba:	48 8b 1d c7 e1 00 00 	mov    0xe1c7(%rip),%rbx        # 14088 <__pyx_empty_tuple>
    5ec1:	4c 8b 25 80 e1 00 00 	mov    0xe180(%rip),%r12        # 14048 <__pyx_n_s_Time_measuring>
    5ec8:	e8 d3 e8 ff ff       	callq  47a0 <PyObject_GetItem@plt>
    5ecd:	49 89 c5             	mov    %rax,%r13
    5ed0:	48 85 c0             	test   %rax,%rax
    5ed3:	75 22                	jne    5ef7 <__pyx_pymod_exec_arrow_mouse+0xd66>
    5ed5:	48 8b 3d c4 c8 00 00 	mov    0xc8c4(%rip),%rdi        # 127a0 <PyExc_KeyError>
    5edc:	e8 5f e9 ff ff       	callq  4840 <PyErr_ExceptionMatches@plt>
    5ee1:	85 c0                	test   %eax,%eax
    5ee3:	0f 84 74 2b 00 00    	je     8a5d <__pyx_pymod_exec_arrow_mouse+0x38cc>
    5ee9:	e8 42 ec ff ff       	callq  4b30 <PyErr_Clear@plt>
    5eee:	4c 8d 3d 6b d1 00 00 	lea    0xd16b(%rip),%r15        # 13060 <PyType_Type>
    5ef5:	eb 03                	jmp    5efa <__pyx_pymod_exec_arrow_mouse+0xd69>
    5ef7:	49 89 c7             	mov    %rax,%r15
    5efa:	4c 89 e6             	mov    %r12,%rsi
    5efd:	48 89 e9             	mov    %rbp,%rcx
    5f00:	48 89 da             	mov    %rbx,%rdx
    5f03:	bf 03 00 00 00       	mov    $0x3,%edi
    5f08:	31 c0                	xor    %eax,%eax
    5f0a:	e8 e1 e9 ff ff       	callq  48f0 <PyTuple_Pack@plt>
    5f0f:	49 89 c4             	mov    %rax,%r12
    5f12:	48 85 c0             	test   %rax,%rax
    5f15:	74 1b                	je     5f32 <__pyx_pymod_exec_arrow_mouse+0xda1>
    5f17:	31 d2                	xor    %edx,%edx
    5f19:	48 89 c6             	mov    %rax,%rsi
    5f1c:	4c 89 ff             	mov    %r15,%rdi
    5f1f:	e8 7c eb ff ff       	callq  4aa0 <PyObject_Call@plt>
    5f24:	4c 89 e7             	mov    %r12,%rdi
    5f27:	48 89 c3             	mov    %rax,%rbx
    5f2a:	e8 40 48 00 00       	callq  a76f <_Py_DECREF.isra.0>
    5f2f:	49 89 dc             	mov    %rbx,%r12
    5f32:	4c 89 ef             	mov    %r13,%rdi
    5f35:	e8 25 49 00 00       	callq  a85f <_Py_XDECREF>
    5f3a:	4d 85 e4             	test   %r12,%r12
    5f3d:	0f 84 35 2b 00 00    	je     8a78 <__pyx_pymod_exec_arrow_mouse+0x38e7>
    5f43:	48 8b 35 fe e0 00 00 	mov    0xe0fe(%rip),%rsi        # 14048 <__pyx_n_s_Time_measuring>
    5f4a:	48 8b 3d 4f e1 00 00 	mov    0xe14f(%rip),%rdi        # 140a0 <__pyx_d>
    5f51:	4c 89 e2             	mov    %r12,%rdx
    5f54:	e8 f7 ec ff ff       	callq  4c50 <PyDict_SetItem@plt>
    5f59:	85 c0                	test   %eax,%eax
    5f5b:	0f 88 32 2b 00 00    	js     8a93 <__pyx_pymod_exec_arrow_mouse+0x3902>
    5f61:	4c 89 e7             	mov    %r12,%rdi
    5f64:	e8 06 48 00 00       	callq  a76f <_Py_DECREF.isra.0>
    5f69:	48 89 ef             	mov    %rbp,%rdi
    5f6c:	e8 fe 47 00 00       	callq  a76f <_Py_DECREF.isra.0>
    5f71:	48 8b 05 28 e1 00 00 	mov    0xe128(%rip),%rax        # 140a0 <__pyx_d>
    5f78:	48 8b 0d 21 de 00 00 	mov    0xde21(%rip),%rcx        # 13da0 <__pyx_dict_version.16043>
    5f7f:	48 39 48 18          	cmp    %rcx,0x18(%rax)
    5f83:	75 20                	jne    5fa5 <__pyx_pymod_exec_arrow_mouse+0xe14>
    5f85:	48 8b 2d 0c de 00 00 	mov    0xde0c(%rip),%rbp        # 13d98 <__pyx_dict_cached_value.16044>
    5f8c:	48 85 ed             	test   %rbp,%rbp
    5f8f:	74 06                	je     5f97 <__pyx_pymod_exec_arrow_mouse+0xe06>
    5f91:	48 ff 45 00          	incq   0x0(%rbp)
    5f95:	eb 34                	jmp    5fcb <__pyx_pymod_exec_arrow_mouse+0xe3a>
    5f97:	48 8b 3d 5a df 00 00 	mov    0xdf5a(%rip),%rdi        # 13ef8 <__pyx_n_s_name>
    5f9e:	e8 24 47 00 00       	callq  a6c7 <__Pyx_GetBuiltinName>
    5fa3:	eb 1a                	jmp    5fbf <__pyx_pymod_exec_arrow_mouse+0xe2e>
    5fa5:	48 8b 3d 4c df 00 00 	mov    0xdf4c(%rip),%rdi        # 13ef8 <__pyx_n_s_name>
    5fac:	48 8d 15 e5 dd 00 00 	lea    0xdde5(%rip),%rdx        # 13d98 <__pyx_dict_cached_value.16044>
    5fb3:	48 8d 35 e6 dd 00 00 	lea    0xdde6(%rip),%rsi        # 13da0 <__pyx_dict_version.16043>
    5fba:	e8 48 47 00 00       	callq  a707 <__Pyx__GetModuleGlobalName>
    5fbf:	48 89 c5             	mov    %rax,%rbp
    5fc2:	48 85 c0             	test   %rax,%rax
    5fc5:	0f 84 e0 2a 00 00    	je     8aab <__pyx_pymod_exec_arrow_mouse+0x391a>
    5fcb:	4c 8b 25 66 df 00 00 	mov    0xdf66(%rip),%r12        # 13f38 <__pyx_n_s_main>
    5fd2:	49 39 ec             	cmp    %rbp,%r12
    5fd5:	75 0a                	jne    5fe1 <__pyx_pymod_exec_arrow_mouse+0xe50>
    5fd7:	bb 01 00 00 00       	mov    $0x1,%ebx
    5fdc:	e9 89 02 00 00       	jmpq   626a <__pyx_pymod_exec_arrow_mouse+0x10d9>
    5fe1:	48 8d 05 d8 cc 00 00 	lea    0xccd8(%rip),%rax        # 12cc0 <PyUnicode_Type>
    5fe8:	48 39 45 08          	cmp    %rax,0x8(%rbp)
    5fec:	0f 94 c2             	sete   %dl
    5fef:	49 39 44 24 08       	cmp    %rax,0x8(%r12)
    5ff4:	0f 94 c1             	sete   %cl
    5ff7:	84 d2                	test   %dl,%dl
    5ff9:	0f 84 14 02 00 00    	je     6213 <__pyx_pymod_exec_arrow_mouse+0x1082>
    5fff:	84 c9                	test   %cl,%cl
    6001:	0f 84 0c 02 00 00    	je     6213 <__pyx_pymod_exec_arrow_mouse+0x1082>
    6007:	80 7d 20 00          	cmpb   $0x0,0x20(%rbp)
    600b:	79 0a                	jns    6017 <__pyx_pymod_exec_arrow_mouse+0xe86>
    600d:	41 80 7c 24 20 00    	cmpb   $0x0,0x20(%r12)
    6013:	79 52                	jns    6067 <__pyx_pymod_exec_arrow_mouse+0xed6>
    6015:	eb 27                	jmp    603e <__pyx_pymod_exec_arrow_mouse+0xead>
    6017:	48 89 ef             	mov    %rbp,%rdi
    601a:	e8 f1 eb ff ff       	callq  4c10 <_PyUnicode_Ready@plt>
    601f:	85 c0                	test   %eax,%eax
    6021:	79 ea                	jns    600d <__pyx_pymod_exec_arrow_mouse+0xe7c>
    6023:	31 db                	xor    %ebx,%ebx
    6025:	45 31 c9             	xor    %r9d,%r9d
    6028:	45 31 ed             	xor    %r13d,%r13d
    602b:	45 31 e4             	xor    %r12d,%r12d
    602e:	41 bf e2 0b 00 00    	mov    $0xbe2,%r15d
    6034:	ba 19 00 00 00       	mov    $0x19,%edx
    6039:	e9 09 f7 ff ff       	jmpq   5747 <__pyx_pymod_exec_arrow_mouse+0x5b6>
    603e:	48 8b 45 08          	mov    0x8(%rbp),%rax
    6042:	f6 80 ab 00 00 00 10 	testb  $0x10,0xab(%rax)
    6049:	75 43                	jne    608e <__pyx_pymod_exec_arrow_mouse+0xefd>
    604b:	48 8d 0d ae 7b 00 00 	lea    0x7bae(%rip),%rcx        # dc00 <__PRETTY_FUNCTION__.16781>
    6052:	ba 69 17 00 00       	mov    $0x1769,%edx
    6057:	48 8d 35 a6 6f 00 00 	lea    0x6fa6(%rip),%rsi        # d004 <_IO_stdin_used+0x4>
    605e:	48 8d 3d 8c 78 00 00 	lea    0x788c(%rip),%rdi        # d8f1 <_IO_stdin_used+0x8f1>
    6065:	eb 4a                	jmp    60b1 <__pyx_pymod_exec_arrow_mouse+0xf20>
    6067:	4c 89 e7             	mov    %r12,%rdi
    606a:	e8 a1 eb ff ff       	callq  4c10 <_PyUnicode_Ready@plt>
    606f:	85 c0                	test   %eax,%eax
    6071:	79 cb                	jns    603e <__pyx_pymod_exec_arrow_mouse+0xead>
    6073:	31 db                	xor    %ebx,%ebx
    6075:	45 31 c9             	xor    %r9d,%r9d
    6078:	45 31 ed             	xor    %r13d,%r13d
    607b:	45 31 e4             	xor    %r12d,%r12d
    607e:	41 bf e2 0b 00 00    	mov    $0xbe2,%r15d
    6084:	ba 19 00 00 00       	mov    $0x19,%edx
    6089:	e9 b9 f6 ff ff       	jmpq   5747 <__pyx_pymod_exec_arrow_mouse+0x5b6>
    608e:	40 8a 75 20          	mov    0x20(%rbp),%sil
    6092:	40 84 f6             	test   %sil,%sil
    6095:	78 1f                	js     60b6 <__pyx_pymod_exec_arrow_mouse+0xf25>
    6097:	48 8d 0d 62 7b 00 00 	lea    0x7b62(%rip),%rcx        # dc00 <__PRETTY_FUNCTION__.16781>
    609e:	ba 69 17 00 00       	mov    $0x1769,%edx
    60a3:	48 8d 35 5a 6f 00 00 	lea    0x6f5a(%rip),%rsi        # d004 <_IO_stdin_used+0x4>
    60aa:	48 8d 3d 54 78 00 00 	lea    0x7854(%rip),%rdi        # d905 <_IO_stdin_used+0x905>
    60b1:	e8 3a e6 ff ff       	callq  46f0 <__assert_fail@plt>
    60b6:	49 8b 44 24 08       	mov    0x8(%r12),%rax
    60bb:	4c 8b 45 10          	mov    0x10(%rbp),%r8
    60bf:	f6 80 ab 00 00 00 10 	testb  $0x10,0xab(%rax)
    60c6:	75 1c                	jne    60e4 <__pyx_pymod_exec_arrow_mouse+0xf53>
    60c8:	48 8d 0d 31 7b 00 00 	lea    0x7b31(%rip),%rcx        # dc00 <__PRETTY_FUNCTION__.16781>
    60cf:	ba 6a 17 00 00       	mov    $0x176a,%edx
    60d4:	48 8d 35 29 6f 00 00 	lea    0x6f29(%rip),%rsi        # d004 <_IO_stdin_used+0x4>
    60db:	48 8d 3d 3a 78 00 00 	lea    0x783a(%rip),%rdi        # d91c <_IO_stdin_used+0x91c>
    60e2:	eb cd                	jmp    60b1 <__pyx_pymod_exec_arrow_mouse+0xf20>
    60e4:	41 8a 4c 24 20       	mov    0x20(%r12),%cl
    60e9:	84 c9                	test   %cl,%cl
    60eb:	78 1c                	js     6109 <__pyx_pymod_exec_arrow_mouse+0xf78>
    60ed:	48 8d 0d 0c 7b 00 00 	lea    0x7b0c(%rip),%rcx        # dc00 <__PRETTY_FUNCTION__.16781>
    60f4:	ba 6a 17 00 00       	mov    $0x176a,%edx
    60f9:	48 8d 35 04 6f 00 00 	lea    0x6f04(%rip),%rsi        # d004 <_IO_stdin_used+0x4>
    6100:	48 8d 3d 29 78 00 00 	lea    0x7829(%rip),%rdi        # d930 <_IO_stdin_used+0x930>
    6107:	eb a8                	jmp    60b1 <__pyx_pymod_exec_arrow_mouse+0xf20>
    6109:	4d 3b 44 24 10       	cmp    0x10(%r12),%r8
    610e:	74 07                	je     6117 <__pyx_pymod_exec_arrow_mouse+0xf86>
    6110:	31 db                	xor    %ebx,%ebx
    6112:	e9 53 01 00 00       	jmpq   626a <__pyx_pymod_exec_arrow_mouse+0x10d9>
    6117:	48 8b 55 18          	mov    0x18(%rbp),%rdx
    611b:	49 8b 44 24 18       	mov    0x18(%r12),%rax
    6120:	48 39 c2             	cmp    %rax,%rdx
    6123:	40 0f 95 c7          	setne  %dil
    6127:	48 ff c2             	inc    %rdx
    612a:	0f 95 c2             	setne  %dl
    612d:	40 84 d7             	test   %dl,%dil
    6130:	74 05                	je     6137 <__pyx_pymod_exec_arrow_mouse+0xfa6>
    6132:	48 ff c0             	inc    %rax
    6135:	75 d9                	jne    6110 <__pyx_pymod_exec_arrow_mouse+0xf7f>
    6137:	89 f0                	mov    %esi,%eax
    6139:	89 ca                	mov    %ecx,%edx
    613b:	c0 e8 02             	shr    $0x2,%al
    613e:	c0 ea 02             	shr    $0x2,%dl
    6141:	83 e0 07             	and    $0x7,%eax
    6144:	83 e2 07             	and    $0x7,%edx
    6147:	44 0f b6 c8          	movzbl %al,%r9d
    614b:	38 d0                	cmp    %dl,%al
    614d:	75 c1                	jne    6110 <__pyx_pymod_exec_arrow_mouse+0xf7f>
    614f:	40 f6 c6 20          	test   $0x20,%sil
    6153:	74 10                	je     6165 <__pyx_pymod_exec_arrow_mouse+0xfd4>
    6155:	40 80 e6 40          	and    $0x40,%sil
    6159:	48 8d 7d 48          	lea    0x48(%rbp),%rdi
    615d:	74 2e                	je     618d <__pyx_pymod_exec_arrow_mouse+0xffc>
    615f:	48 8d 7d 30          	lea    0x30(%rbp),%rdi
    6163:	eb 28                	jmp    618d <__pyx_pymod_exec_arrow_mouse+0xffc>
    6165:	48 8b 7d 48          	mov    0x48(%rbp),%rdi
    6169:	48 85 ff             	test   %rdi,%rdi
    616c:	75 1f                	jne    618d <__pyx_pymod_exec_arrow_mouse+0xffc>
    616e:	48 8d 0d 8b 7a 00 00 	lea    0x7a8b(%rip),%rcx        # dc00 <__PRETTY_FUNCTION__.16781>
    6175:	ba 80 17 00 00       	mov    $0x1780,%edx
    617a:	48 8d 35 83 6e 00 00 	lea    0x6e83(%rip),%rsi        # d004 <_IO_stdin_used+0x4>
    6181:	48 8d 3d bf 77 00 00 	lea    0x77bf(%rip),%rdi        # d947 <_IO_stdin_used+0x947>
    6188:	e9 24 ff ff ff       	jmpq   60b1 <__pyx_pymod_exec_arrow_mouse+0xf20>
    618d:	f6 c1 20             	test   $0x20,%cl
    6190:	74 11                	je     61a3 <__pyx_pymod_exec_arrow_mouse+0x1012>
    6192:	80 e1 40             	and    $0x40,%cl
    6195:	49 8d 74 24 48       	lea    0x48(%r12),%rsi
    619a:	74 30                	je     61cc <__pyx_pymod_exec_arrow_mouse+0x103b>
    619c:	49 8d 74 24 30       	lea    0x30(%r12),%rsi
    61a1:	eb 29                	jmp    61cc <__pyx_pymod_exec_arrow_mouse+0x103b>
    61a3:	49 8b 74 24 48       	mov    0x48(%r12),%rsi
    61a8:	48 85 f6             	test   %rsi,%rsi
    61ab:	75 1f                	jne    61cc <__pyx_pymod_exec_arrow_mouse+0x103b>
    61ad:	48 8d 0d 4c 7a 00 00 	lea    0x7a4c(%rip),%rcx        # dc00 <__PRETTY_FUNCTION__.16781>
    61b4:	ba 81 17 00 00       	mov    $0x1781,%edx
    61b9:	48 8d 35 44 6e 00 00 	lea    0x6e44(%rip),%rsi        # d004 <_IO_stdin_used+0x4>
    61c0:	48 8d 3d a3 77 00 00 	lea    0x77a3(%rip),%rdi        # d96a <_IO_stdin_used+0x96a>
    61c7:	e9 e5 fe ff ff       	jmpq   60b1 <__pyx_pymod_exec_arrow_mouse+0xf20>
    61cc:	41 83 f9 01          	cmp    $0x1,%r9d
    61d0:	75 08                	jne    61da <__pyx_pymod_exec_arrow_mouse+0x1049>
    61d2:	0f b6 0f             	movzbl (%rdi),%ecx
    61d5:	0f b6 16             	movzbl (%rsi),%edx
    61d8:	eb 12                	jmp    61ec <__pyx_pymod_exec_arrow_mouse+0x105b>
    61da:	41 83 f9 02          	cmp    $0x2,%r9d
    61de:	75 08                	jne    61e8 <__pyx_pymod_exec_arrow_mouse+0x1057>
    61e0:	0f b7 0f             	movzwl (%rdi),%ecx
    61e3:	0f b7 16             	movzwl (%rsi),%edx
    61e6:	eb 04                	jmp    61ec <__pyx_pymod_exec_arrow_mouse+0x105b>
    61e8:	8b 0f                	mov    (%rdi),%ecx
    61ea:	8b 16                	mov    (%rsi),%edx
    61ec:	39 d1                	cmp    %edx,%ecx
    61ee:	0f 85 1c ff ff ff    	jne    6110 <__pyx_pymod_exec_arrow_mouse+0xf7f>
    61f4:	49 83 f8 01          	cmp    $0x1,%r8
    61f8:	0f 84 d9 fd ff ff    	je     5fd7 <__pyx_pymod_exec_arrow_mouse+0xe46>
    61fe:	0f b6 d0             	movzbl %al,%edx
    6201:	31 db                	xor    %ebx,%ebx
    6203:	49 0f af d0          	imul   %r8,%rdx
    6207:	e8 f4 e8 ff ff       	callq  4b00 <memcmp@plt>
    620c:	85 c0                	test   %eax,%eax
    620e:	0f 94 c3             	sete   %bl
    6211:	eb 57                	jmp    626a <__pyx_pymod_exec_arrow_mouse+0x10d9>
    6213:	48 8d 05 26 d3 00 00 	lea    0xd326(%rip),%rax        # 13540 <_Py_NoneStruct>
    621a:	48 39 c5             	cmp    %rax,%rbp
    621d:	75 08                	jne    6227 <__pyx_pymod_exec_arrow_mouse+0x1096>
    621f:	84 c9                	test   %cl,%cl
    6221:	0f 85 e9 fe ff ff    	jne    6110 <__pyx_pymod_exec_arrow_mouse+0xf7f>
    6227:	49 39 c4             	cmp    %rax,%r12
    622a:	75 08                	jne    6234 <__pyx_pymod_exec_arrow_mouse+0x10a3>
    622c:	84 d2                	test   %dl,%dl
    622e:	0f 85 dc fe ff ff    	jne    6110 <__pyx_pymod_exec_arrow_mouse+0xf7f>
    6234:	4c 89 e6             	mov    %r12,%rsi
    6237:	ba 02 00 00 00       	mov    $0x2,%edx
    623c:	48 89 ef             	mov    %rbp,%rdi
    623f:	e8 1c e7 ff ff       	callq  4960 <PyObject_RichCompare@plt>
    6244:	49 89 c4             	mov    %rax,%r12
    6247:	48 85 c0             	test   %rax,%rax
    624a:	0f 84 79 28 00 00    	je     8ac9 <__pyx_pymod_exec_arrow_mouse+0x3938>
    6250:	48 89 c7             	mov    %rax,%rdi
    6253:	e8 4e 41 00 00       	callq  a3a6 <__Pyx_PyObject_IsTrue>
    6258:	4c 89 e7             	mov    %r12,%rdi
    625b:	89 c3                	mov    %eax,%ebx
    625d:	e8 0d 45 00 00       	callq  a76f <_Py_DECREF.isra.0>
    6262:	85 db                	test   %ebx,%ebx
    6264:	0f 88 7a 28 00 00    	js     8ae4 <__pyx_pymod_exec_arrow_mouse+0x3953>
    626a:	48 89 ef             	mov    %rbp,%rdi
    626d:	e8 fd 44 00 00       	callq  a76f <_Py_DECREF.isra.0>
    6272:	85 db                	test   %ebx,%ebx
    6274:	0f 84 96 25 00 00    	je     8810 <__pyx_pymod_exec_arrow_mouse+0x367f>
    627a:	48 8b 3d e7 db 00 00 	mov    0xdbe7(%rip),%rdi        # 13e68 <__pyx_n_s_test>
    6281:	e8 88 ed ff ff       	callq  500e <__Pyx_PrintOne.constprop.0>
    6286:	85 c0                	test   %eax,%eax
    6288:	0f 88 71 28 00 00    	js     8aff <__pyx_pymod_exec_arrow_mouse+0x396e>
    628e:	48 8b 15 83 db 00 00 	mov    0xdb83(%rip),%rdx        # 13e18 <__pyx_int_0>
    6295:	48 8b 35 d4 db 00 00 	mov    0xdbd4(%rip),%rsi        # 13e70 <__pyx_n_s_t>
    629c:	48 8b 3d fd dd 00 00 	mov    0xddfd(%rip),%rdi        # 140a0 <__pyx_d>
    62a3:	e8 a8 e9 ff ff       	callq  4c50 <PyDict_SetItem@plt>
    62a8:	85 c0                	test   %eax,%eax
    62aa:	0f 88 6c 28 00 00    	js     8b1c <__pyx_pymod_exec_arrow_mouse+0x398b>
    62b0:	48 8b 15 61 db 00 00 	mov    0xdb61(%rip),%rdx        # 13e18 <__pyx_int_0>
    62b7:	48 8b 35 82 db 00 00 	mov    0xdb82(%rip),%rsi        # 13e40 <__pyx_n_s_tt>
    62be:	48 8b 3d db dd 00 00 	mov    0xdddb(%rip),%rdi        # 140a0 <__pyx_d>
    62c5:	e8 86 e9 ff ff       	callq  4c50 <PyDict_SetItem@plt>
    62ca:	85 c0                	test   %eax,%eax
    62cc:	0f 88 67 28 00 00    	js     8b39 <__pyx_pymod_exec_arrow_mouse+0x39a8>
    62d2:	48 8b 05 c7 dd 00 00 	mov    0xddc7(%rip),%rax        # 140a0 <__pyx_d>
    62d9:	48 8b 0d b0 da 00 00 	mov    0xdab0(%rip),%rcx        # 13d90 <__pyx_dict_version.16045>
    62e0:	48 39 48 18          	cmp    %rcx,0x18(%rax)
    62e4:	75 20                	jne    6306 <__pyx_pymod_exec_arrow_mouse+0x1175>
    62e6:	48 8b 2d 9b da 00 00 	mov    0xda9b(%rip),%rbp        # 13d88 <__pyx_dict_cached_value.16046>
    62ed:	48 85 ed             	test   %rbp,%rbp
    62f0:	74 06                	je     62f8 <__pyx_pymod_exec_arrow_mouse+0x1167>
    62f2:	48 ff 45 00          	incq   0x0(%rbp)
    62f6:	eb 34                	jmp    632c <__pyx_pymod_exec_arrow_mouse+0x119b>
    62f8:	48 8b 3d 49 dd 00 00 	mov    0xdd49(%rip),%rdi        # 14048 <__pyx_n_s_Time_measuring>
    62ff:	e8 c3 43 00 00       	callq  a6c7 <__Pyx_GetBuiltinName>
    6304:	eb 1a                	jmp    6320 <__pyx_pymod_exec_arrow_mouse+0x118f>
    6306:	48 8b 3d 3b dd 00 00 	mov    0xdd3b(%rip),%rdi        # 14048 <__pyx_n_s_Time_measuring>
    630d:	48 8d 15 74 da 00 00 	lea    0xda74(%rip),%rdx        # 13d88 <__pyx_dict_cached_value.16046>
    6314:	48 8d 35 75 da 00 00 	lea    0xda75(%rip),%rsi        # 13d90 <__pyx_dict_version.16045>
    631b:	e8 e7 43 00 00       	callq  a707 <__Pyx__GetModuleGlobalName>
    6320:	48 89 c5             	mov    %rax,%rbp
    6323:	48 85 c0             	test   %rax,%rax
    6326:	0f 84 2a 28 00 00    	je     8b56 <__pyx_pymod_exec_arrow_mouse+0x39c5>
    632c:	48 89 ef             	mov    %rbp,%rdi
    632f:	e8 e7 52 00 00       	callq  b61b <__Pyx_PyObject_CallNoArg>
    6334:	49 89 c4             	mov    %rax,%r12
    6337:	48 85 c0             	test   %rax,%rax
    633a:	0f 84 34 28 00 00    	je     8b74 <__pyx_pymod_exec_arrow_mouse+0x39e3>
    6340:	48 89 ef             	mov    %rbp,%rdi
    6343:	e8 27 44 00 00       	callq  a76f <_Py_DECREF.isra.0>
    6348:	48 8b 35 e9 da 00 00 	mov    0xdae9(%rip),%rsi        # 13e38 <__pyx_n_s_while_loop_t>
    634f:	48 8b 3d 4a dd 00 00 	mov    0xdd4a(%rip),%rdi        # 140a0 <__pyx_d>
    6356:	4c 89 e2             	mov    %r12,%rdx
    6359:	e8 f2 e8 ff ff       	callq  4c50 <PyDict_SetItem@plt>
    635e:	85 c0                	test   %eax,%eax
    6360:	0f 88 29 28 00 00    	js     8b8f <__pyx_pymod_exec_arrow_mouse+0x39fe>
    6366:	4c 89 e7             	mov    %r12,%rdi
    6369:	e8 01 44 00 00       	callq  a76f <_Py_DECREF.isra.0>
    636e:	48 8b 05 2b dd 00 00 	mov    0xdd2b(%rip),%rax        # 140a0 <__pyx_d>
    6375:	48 8b 0d 04 da 00 00 	mov    0xda04(%rip),%rcx        # 13d80 <__pyx_dict_version.16047>
    637c:	48 39 48 18          	cmp    %rcx,0x18(%rax)
    6380:	75 20                	jne    63a2 <__pyx_pymod_exec_arrow_mouse+0x1211>
    6382:	4c 8b 25 ef d9 00 00 	mov    0xd9ef(%rip),%r12        # 13d78 <__pyx_dict_cached_value.16048>
    6389:	4d 85 e4             	test   %r12,%r12
    638c:	74 06                	je     6394 <__pyx_pymod_exec_arrow_mouse+0x1203>
    638e:	49 ff 04 24          	incq   (%r12)
    6392:	eb 34                	jmp    63c8 <__pyx_pymod_exec_arrow_mouse+0x1237>
    6394:	48 8b 3d ad dc 00 00 	mov    0xdcad(%rip),%rdi        # 14048 <__pyx_n_s_Time_measuring>
    639b:	e8 27 43 00 00       	callq  a6c7 <__Pyx_GetBuiltinName>
    63a0:	eb 1a                	jmp    63bc <__pyx_pymod_exec_arrow_mouse+0x122b>
    63a2:	48 8b 3d 9f dc 00 00 	mov    0xdc9f(%rip),%rdi        # 14048 <__pyx_n_s_Time_measuring>
    63a9:	48 8d 15 c8 d9 00 00 	lea    0xd9c8(%rip),%rdx        # 13d78 <__pyx_dict_cached_value.16048>
    63b0:	48 8d 35 c9 d9 00 00 	lea    0xd9c9(%rip),%rsi        # 13d80 <__pyx_dict_version.16047>
    63b7:	e8 4b 43 00 00       	callq  a707 <__Pyx__GetModuleGlobalName>
    63bc:	49 89 c4             	mov    %rax,%r12
    63bf:	48 85 c0             	test   %rax,%rax
    63c2:	0f 84 e1 27 00 00    	je     8ba9 <__pyx_pymod_exec_arrow_mouse+0x3a18>
    63c8:	4c 89 e7             	mov    %r12,%rdi
    63cb:	e8 4b 52 00 00       	callq  b61b <__Pyx_PyObject_CallNoArg>
    63d0:	48 89 c5             	mov    %rax,%rbp
    63d3:	48 85 c0             	test   %rax,%rax
    63d6:	0f 84 ea 27 00 00    	je     8bc6 <__pyx_pymod_exec_arrow_mouse+0x3a35>
    63dc:	4c 89 e7             	mov    %r12,%rdi
    63df:	e8 8b 43 00 00       	callq  a76f <_Py_DECREF.isra.0>
    63e4:	48 8b 35 25 dc 00 00 	mov    0xdc25(%rip),%rsi        # 14010 <__pyx_n_s_alt_pressed_measuring>
    63eb:	48 8b 3d ae dc 00 00 	mov    0xdcae(%rip),%rdi        # 140a0 <__pyx_d>
    63f2:	48 89 ea             	mov    %rbp,%rdx
    63f5:	e8 56 e8 ff ff       	callq  4c50 <PyDict_SetItem@plt>
    63fa:	85 c0                	test   %eax,%eax
    63fc:	0f 88 df 27 00 00    	js     8be1 <__pyx_pymod_exec_arrow_mouse+0x3a50>
    6402:	48 89 ef             	mov    %rbp,%rdi
    6405:	e8 65 43 00 00       	callq  a76f <_Py_DECREF.isra.0>
    640a:	48 8b 15 f7 d9 00 00 	mov    0xd9f7(%rip),%rdx        # 13e08 <__pyx_int_144>
    6411:	48 8b 35 88 db 00 00 	mov    0xdb88(%rip),%rsi        # 13fa0 <__pyx_n_s_fps_screen_nowadays>
    6418:	48 8b 3d 81 dc 00 00 	mov    0xdc81(%rip),%rdi        # 140a0 <__pyx_d>
    641f:	e8 2c e8 ff ff       	callq  4c50 <PyDict_SetItem@plt>
    6424:	85 c0                	test   %eax,%eax
    6426:	0f 88 d0 27 00 00    	js     8bfc <__pyx_pymod_exec_arrow_mouse+0x3a6b>
    642c:	48 8b 35 1d db 00 00 	mov    0xdb1d(%rip),%rsi        # 13f50 <__pyx_n_s_last_move_mouse>
    6433:	48 8b 3d 66 dc 00 00 	mov    0xdc66(%rip),%rdi        # 140a0 <__pyx_d>
    643a:	48 8d 15 5f c8 00 00 	lea    0xc85f(%rip),%rdx        # 12ca0 <_Py_FalseStruct>
    6441:	e8 0a e8 ff ff       	callq  4c50 <PyDict_SetItem@plt>
    6446:	85 c0                	test   %eax,%eax
    6448:	0f 88 cb 27 00 00    	js     8c19 <__pyx_pymod_exec_arrow_mouse+0x3a88>
    644e:	48 8b 15 23 da 00 00 	mov    0xda23(%rip),%rdx        # 13e78 <__pyx_n_s_speed_function_quadric>
    6455:	48 8b 35 74 db 00 00 	mov    0xdb74(%rip),%rsi        # 13fd0 <__pyx_n_s_current_speed_function>
    645c:	48 8b 3d 3d dc 00 00 	mov    0xdc3d(%rip),%rdi        # 140a0 <__pyx_d>
    6463:	e8 e8 e7 ff ff       	callq  4c50 <PyDict_SetItem@plt>
    6468:	85 c0                	test   %eax,%eax
    646a:	0f 88 c6 27 00 00    	js     8c36 <__pyx_pymod_exec_arrow_mouse+0x3aa5>
    6470:	48 8b 15 89 db 00 00 	mov    0xdb89(%rip),%rdx        # 14000 <__pyx_n_s_arrow_mouse>
    6477:	31 f6                	xor    %esi,%esi
    6479:	48 8d 3d 40 bd 00 00 	lea    0xbd40(%rip),%rdi        # 121c0 <__pyx_mdef_11arrow_mouse_1speed_function_quadric>
    6480:	e8 eb e4 ff ff       	callq  4970 <PyCFunction_NewEx@plt>
    6485:	48 89 c5             	mov    %rax,%rbp
    6488:	48 85 c0             	test   %rax,%rax
    648b:	0f 84 c2 27 00 00    	je     8c53 <__pyx_pymod_exec_arrow_mouse+0x3ac2>
    6491:	48 8b 35 e0 d9 00 00 	mov    0xd9e0(%rip),%rsi        # 13e78 <__pyx_n_s_speed_function_quadric>
    6498:	48 8b 3d 01 dc 00 00 	mov    0xdc01(%rip),%rdi        # 140a0 <__pyx_d>
    649f:	48 89 c2             	mov    %rax,%rdx
    64a2:	e8 a9 e7 ff ff       	callq  4c50 <PyDict_SetItem@plt>
    64a7:	85 c0                	test   %eax,%eax
    64a9:	0f 88 c2 27 00 00    	js     8c71 <__pyx_pymod_exec_arrow_mouse+0x3ae0>
    64af:	48 89 ef             	mov    %rbp,%rdi
    64b2:	e8 b8 42 00 00       	callq  a76f <_Py_DECREF.isra.0>
    64b7:	48 8b 15 42 db 00 00 	mov    0xdb42(%rip),%rdx        # 14000 <__pyx_n_s_arrow_mouse>
    64be:	31 f6                	xor    %esi,%esi
    64c0:	48 8d 3d d9 bc 00 00 	lea    0xbcd9(%rip),%rdi        # 121a0 <__pyx_mdef_11arrow_mouse_3speed_function_linear>
    64c7:	e8 a4 e4 ff ff       	callq  4970 <PyCFunction_NewEx@plt>
    64cc:	48 89 c5             	mov    %rax,%rbp
    64cf:	48 85 c0             	test   %rax,%rax
    64d2:	0f 84 b4 27 00 00    	je     8c8c <__pyx_pymod_exec_arrow_mouse+0x3afb>
    64d8:	48 8b 35 a1 d9 00 00 	mov    0xd9a1(%rip),%rsi        # 13e80 <__pyx_n_s_speed_function_linear>
    64df:	48 8b 3d ba db 00 00 	mov    0xdbba(%rip),%rdi        # 140a0 <__pyx_d>
    64e6:	48 89 c2             	mov    %rax,%rdx
    64e9:	e8 62 e7 ff ff       	callq  4c50 <PyDict_SetItem@plt>
    64ee:	85 c0                	test   %eax,%eax
    64f0:	0f 88 b4 27 00 00    	js     8caa <__pyx_pymod_exec_arrow_mouse+0x3b19>
    64f6:	48 89 ef             	mov    %rbp,%rdi
    64f9:	e8 71 42 00 00       	callq  a76f <_Py_DECREF.isra.0>
    64fe:	48 8b 15 fb da 00 00 	mov    0xdafb(%rip),%rdx        # 14000 <__pyx_n_s_arrow_mouse>
    6505:	31 f6                	xor    %esi,%esi
    6507:	48 8d 3d 72 bc 00 00 	lea    0xbc72(%rip),%rdi        # 12180 <__pyx_mdef_11arrow_mouse_5speed_function>
    650e:	e8 5d e4 ff ff       	callq  4970 <PyCFunction_NewEx@plt>
    6513:	48 89 c5             	mov    %rax,%rbp
    6516:	48 85 c0             	test   %rax,%rax
    6519:	0f 84 a6 27 00 00    	je     8cc5 <__pyx_pymod_exec_arrow_mouse+0x3b34>
    651f:	48 8b 35 62 d9 00 00 	mov    0xd962(%rip),%rsi        # 13e88 <__pyx_n_s_speed_function>
    6526:	48 8b 3d 73 db 00 00 	mov    0xdb73(%rip),%rdi        # 140a0 <__pyx_d>
    652d:	48 89 c2             	mov    %rax,%rdx
    6530:	e8 1b e7 ff ff       	callq  4c50 <PyDict_SetItem@plt>
    6535:	85 c0                	test   %eax,%eax
    6537:	0f 88 a6 27 00 00    	js     8ce3 <__pyx_pymod_exec_arrow_mouse+0x3b52>
    653d:	48 89 ef             	mov    %rbp,%rdi
    6540:	e8 2a 42 00 00       	callq  a76f <_Py_DECREF.isra.0>
    6545:	48 8b 05 54 db 00 00 	mov    0xdb54(%rip),%rax        # 140a0 <__pyx_d>
    654c:	48 8b 0d 1d d8 00 00 	mov    0xd81d(%rip),%rcx        # 13d70 <__pyx_dict_version.16049>
    6553:	48 39 48 18          	cmp    %rcx,0x18(%rax)
    6557:	75 20                	jne    6579 <__pyx_pymod_exec_arrow_mouse+0x13e8>
    6559:	4c 8b 25 08 d8 00 00 	mov    0xd808(%rip),%r12        # 13d68 <__pyx_dict_cached_value.16050>
    6560:	4d 85 e4             	test   %r12,%r12
    6563:	74 06                	je     656b <__pyx_pymod_exec_arrow_mouse+0x13da>
    6565:	49 ff 04 24          	incq   (%r12)
    6569:	eb 34                	jmp    659f <__pyx_pymod_exec_arrow_mouse+0x140e>
    656b:	48 8b 3d c6 d8 00 00 	mov    0xd8c6(%rip),%rdi        # 13e38 <__pyx_n_s_while_loop_t>
    6572:	e8 50 41 00 00       	callq  a6c7 <__Pyx_GetBuiltinName>
    6577:	eb 1a                	jmp    6593 <__pyx_pymod_exec_arrow_mouse+0x1402>
    6579:	48 8b 3d b8 d8 00 00 	mov    0xd8b8(%rip),%rdi        # 13e38 <__pyx_n_s_while_loop_t>
    6580:	48 8d 15 e1 d7 00 00 	lea    0xd7e1(%rip),%rdx        # 13d68 <__pyx_dict_cached_value.16050>
    6587:	48 8d 35 e2 d7 00 00 	lea    0xd7e2(%rip),%rsi        # 13d70 <__pyx_dict_version.16049>
    658e:	e8 74 41 00 00       	callq  a707 <__Pyx__GetModuleGlobalName>
    6593:	49 89 c4             	mov    %rax,%r12
    6596:	48 85 c0             	test   %rax,%rax
    6599:	0f 84 5f 27 00 00    	je     8cfe <__pyx_pymod_exec_arrow_mouse+0x3b6d>
    659f:	48 8b 35 82 d9 00 00 	mov    0xd982(%rip),%rsi        # 13f28 <__pyx_n_s_measure>
    65a6:	4c 89 e7             	mov    %r12,%rdi
    65a9:	e8 67 3c 00 00       	callq  a215 <__Pyx_PyObject_GetAttrStr>
    65ae:	48 89 c5             	mov    %rax,%rbp
    65b1:	48 85 c0             	test   %rax,%rax
    65b4:	0f 84 61 27 00 00    	je     8d1b <__pyx_pymod_exec_arrow_mouse+0x3b8a>
    65ba:	4c 89 e7             	mov    %r12,%rdi
    65bd:	e8 ad 41 00 00       	callq  a76f <_Py_DECREF.isra.0>
    65c2:	48 8d 05 37 cc 00 00 	lea    0xcc37(%rip),%rax        # 13200 <PyMethod_Type>
    65c9:	48 39 45 08          	cmp    %rax,0x8(%rbp)
    65cd:	75 2a                	jne    65f9 <__pyx_pymod_exec_arrow_mouse+0x1468>
    65cf:	4c 8b 65 18          	mov    0x18(%rbp),%r12
    65d3:	4d 85 e4             	test   %r12,%r12
    65d6:	74 21                	je     65f9 <__pyx_pymod_exec_arrow_mouse+0x1468>
    65d8:	4c 8b 6d 10          	mov    0x10(%rbp),%r13
    65dc:	49 ff 04 24          	incq   (%r12)
    65e0:	48 89 ef             	mov    %rbp,%rdi
    65e3:	49 ff 45 00          	incq   0x0(%r13)
    65e7:	e8 83 41 00 00       	callq  a76f <_Py_DECREF.isra.0>
    65ec:	4c 89 e6             	mov    %r12,%rsi
    65ef:	4c 89 ef             	mov    %r13,%rdi
    65f2:	e8 3d 4f 00 00       	callq  b534 <__Pyx_PyObject_CallOneArg>
    65f7:	eb 0e                	jmp    6607 <__pyx_pymod_exec_arrow_mouse+0x1476>
    65f9:	48 89 ef             	mov    %rbp,%rdi
    65fc:	49 89 ed             	mov    %rbp,%r13
    65ff:	45 31 e4             	xor    %r12d,%r12d
    6602:	e8 14 50 00 00       	callq  b61b <__Pyx_PyObject_CallNoArg>
    6607:	48 89 c5             	mov    %rax,%rbp
    660a:	4c 89 e7             	mov    %r12,%rdi
    660d:	e8 4d 42 00 00       	callq  a85f <_Py_XDECREF>
    6612:	48 85 ed             	test   %rbp,%rbp
    6615:	0f 84 1b 27 00 00    	je     8d36 <__pyx_pymod_exec_arrow_mouse+0x3ba5>
    661b:	4c 89 ef             	mov    %r13,%rdi
    661e:	e8 4c 41 00 00       	callq  a76f <_Py_DECREF.isra.0>
    6623:	48 89 ef             	mov    %rbp,%rdi
    6626:	e8 44 41 00 00       	callq  a76f <_Py_DECREF.isra.0>
    662b:	48 8b 05 6e da 00 00 	mov    0xda6e(%rip),%rax        # 140a0 <__pyx_d>
    6632:	48 8b 0d 27 d7 00 00 	mov    0xd727(%rip),%rcx        # 13d60 <__pyx_dict_version.16053>
    6639:	48 39 48 18          	cmp    %rcx,0x18(%rax)
    663d:	75 20                	jne    665f <__pyx_pymod_exec_arrow_mouse+0x14ce>
    663f:	48 8b 2d 12 d7 00 00 	mov    0xd712(%rip),%rbp        # 13d58 <__pyx_dict_cached_value.16054>
    6646:	48 85 ed             	test   %rbp,%rbp
    6649:	74 06                	je     6651 <__pyx_pymod_exec_arrow_mouse+0x14c0>
    664b:	48 ff 45 00          	incq   0x0(%rbp)
    664f:	eb 34                	jmp    6685 <__pyx_pymod_exec_arrow_mouse+0x14f4>
    6651:	48 8b 3d e8 d7 00 00 	mov    0xd7e8(%rip),%rdi        # 13e40 <__pyx_n_s_tt>
    6658:	e8 6a 40 00 00       	callq  a6c7 <__Pyx_GetBuiltinName>
    665d:	eb 1a                	jmp    6679 <__pyx_pymod_exec_arrow_mouse+0x14e8>
    665f:	48 8b 3d da d7 00 00 	mov    0xd7da(%rip),%rdi        # 13e40 <__pyx_n_s_tt>
    6666:	48 8d 15 eb d6 00 00 	lea    0xd6eb(%rip),%rdx        # 13d58 <__pyx_dict_cached_value.16054>
    666d:	48 8d 35 ec d6 00 00 	lea    0xd6ec(%rip),%rsi        # 13d60 <__pyx_dict_version.16053>
    6674:	e8 8e 40 00 00       	callq  a707 <__Pyx__GetModuleGlobalName>
    6679:	48 89 c5             	mov    %rax,%rbp
    667c:	48 85 c0             	test   %rax,%rax
    667f:	0f 84 cc 26 00 00    	je     8d51 <__pyx_pymod_exec_arrow_mouse+0x3bc0>
    6685:	48 8b 35 84 d7 00 00 	mov    0xd784(%rip),%rsi        # 13e10 <__pyx_int_1>
    668c:	ba 01 00 00 00       	mov    $0x1,%edx
    6691:	48 89 ef             	mov    %rbp,%rdi
    6694:	e8 ef 49 00 00       	callq  b088 <__Pyx_PyInt_AddObjC.isra.0.constprop.0>
    6699:	49 89 c5             	mov    %rax,%r13
    669c:	48 85 c0             	test   %rax,%rax
    669f:	0f 84 ca 26 00 00    	je     8d6f <__pyx_pymod_exec_arrow_mouse+0x3bde>
    66a5:	48 89 ef             	mov    %rbp,%rdi
    66a8:	e8 c2 40 00 00       	callq  a76f <_Py_DECREF.isra.0>
    66ad:	48 8b 35 8c d7 00 00 	mov    0xd78c(%rip),%rsi        # 13e40 <__pyx_n_s_tt>
    66b4:	48 8b 3d e5 d9 00 00 	mov    0xd9e5(%rip),%rdi        # 140a0 <__pyx_d>
    66bb:	4c 89 ea             	mov    %r13,%rdx
    66be:	e8 8d e5 ff ff       	callq  4c50 <PyDict_SetItem@plt>
    66c3:	85 c0                	test   %eax,%eax
    66c5:	0f 88 bf 26 00 00    	js     8d8a <__pyx_pymod_exec_arrow_mouse+0x3bf9>
    66cb:	4c 89 ef             	mov    %r13,%rdi
    66ce:	e8 9c 40 00 00       	callq  a76f <_Py_DECREF.isra.0>
    66d3:	48 8b 05 c6 d9 00 00 	mov    0xd9c6(%rip),%rax        # 140a0 <__pyx_d>
    66da:	48 8b 0d 6f d6 00 00 	mov    0xd66f(%rip),%rcx        # 13d50 <__pyx_dict_version.16055>
    66e1:	48 8b 3d 68 d7 00 00 	mov    0xd768(%rip),%rdi        # 13e50 <__pyx_n_s_time>
    66e8:	48 39 48 18          	cmp    %rcx,0x18(%rax)
    66ec:	75 19                	jne    6707 <__pyx_pymod_exec_arrow_mouse+0x1576>
    66ee:	48 8b 2d 53 d6 00 00 	mov    0xd653(%rip),%rbp        # 13d48 <__pyx_dict_cached_value.16056>
    66f5:	48 85 ed             	test   %rbp,%rbp
    66f8:	74 06                	je     6700 <__pyx_pymod_exec_arrow_mouse+0x156f>
    66fa:	48 ff 45 00          	incq   0x0(%rbp)
    66fe:	eb 26                	jmp    6726 <__pyx_pymod_exec_arrow_mouse+0x1595>
    6700:	e8 c2 3f 00 00       	callq  a6c7 <__Pyx_GetBuiltinName>
    6705:	eb 13                	jmp    671a <__pyx_pymod_exec_arrow_mouse+0x1589>
    6707:	48 8d 15 3a d6 00 00 	lea    0xd63a(%rip),%rdx        # 13d48 <__pyx_dict_cached_value.16056>
    670e:	48 8d 35 3b d6 00 00 	lea    0xd63b(%rip),%rsi        # 13d50 <__pyx_dict_version.16055>
    6715:	e8 ed 3f 00 00       	callq  a707 <__Pyx__GetModuleGlobalName>
    671a:	48 89 c5             	mov    %rax,%rbp
    671d:	48 85 c0             	test   %rax,%rax
    6720:	0f 84 7e 26 00 00    	je     8da4 <__pyx_pymod_exec_arrow_mouse+0x3c13>
    6726:	48 8b 35 23 d7 00 00 	mov    0xd723(%rip),%rsi        # 13e50 <__pyx_n_s_time>
    672d:	48 89 ef             	mov    %rbp,%rdi
    6730:	e8 e0 3a 00 00       	callq  a215 <__Pyx_PyObject_GetAttrStr>
    6735:	49 89 c4             	mov    %rax,%r12
    6738:	48 85 c0             	test   %rax,%rax
    673b:	0f 84 81 26 00 00    	je     8dc2 <__pyx_pymod_exec_arrow_mouse+0x3c31>
    6741:	48 89 ef             	mov    %rbp,%rdi
    6744:	e8 26 40 00 00       	callq  a76f <_Py_DECREF.isra.0>
    6749:	48 8d 05 b0 ca 00 00 	lea    0xcab0(%rip),%rax        # 13200 <PyMethod_Type>
    6750:	49 39 44 24 08       	cmp    %rax,0x8(%r12)
    6755:	75 31                	jne    6788 <__pyx_pymod_exec_arrow_mouse+0x15f7>
    6757:	49 8b 6c 24 18       	mov    0x18(%r12),%rbp
    675c:	48 85 ed             	test   %rbp,%rbp
    675f:	74 27                	je     6788 <__pyx_pymod_exec_arrow_mouse+0x15f7>
    6761:	4d 8b 7c 24 10       	mov    0x10(%r12),%r15
    6766:	48 ff 45 00          	incq   0x0(%rbp)
    676a:	4c 89 e7             	mov    %r12,%rdi
    676d:	49 ff 07             	incq   (%r15)
    6770:	4d 89 fc             	mov    %r15,%r12
    6773:	e8 f7 3f 00 00       	callq  a76f <_Py_DECREF.isra.0>
    6778:	48 89 ee             	mov    %rbp,%rsi
    677b:	4c 89 ff             	mov    %r15,%rdi
    677e:	e8 b1 4d 00 00       	callq  b534 <__Pyx_PyObject_CallOneArg>
    6783:	49 89 c5             	mov    %rax,%r13
    6786:	eb 0d                	jmp    6795 <__pyx_pymod_exec_arrow_mouse+0x1604>
    6788:	4c 89 e7             	mov    %r12,%rdi
    678b:	31 ed                	xor    %ebp,%ebp
    678d:	e8 89 4e 00 00       	callq  b61b <__Pyx_PyObject_CallNoArg>
    6792:	49 89 c5             	mov    %rax,%r13
    6795:	48 89 ef             	mov    %rbp,%rdi
    6798:	e8 c2 40 00 00       	callq  a85f <_Py_XDECREF>
    679d:	4d 85 ed             	test   %r13,%r13
    67a0:	0f 84 37 26 00 00    	je     8ddd <__pyx_pymod_exec_arrow_mouse+0x3c4c>
    67a6:	4c 89 e7             	mov    %r12,%rdi
    67a9:	e8 c1 3f 00 00       	callq  a76f <_Py_DECREF.isra.0>
    67ae:	48 8b 35 a3 d6 00 00 	mov    0xd6a3(%rip),%rsi        # 13e58 <__pyx_n_s_this_ts_ms>
    67b5:	48 8b 3d e4 d8 00 00 	mov    0xd8e4(%rip),%rdi        # 140a0 <__pyx_d>
    67bc:	4c 89 ea             	mov    %r13,%rdx
    67bf:	e8 8c e4 ff ff       	callq  4c50 <PyDict_SetItem@plt>
    67c4:	85 c0                	test   %eax,%eax
    67c6:	0f 88 2b 26 00 00    	js     8df7 <__pyx_pymod_exec_arrow_mouse+0x3c66>
    67cc:	4c 89 ef             	mov    %r13,%rdi
    67cf:	e8 9b 3f 00 00       	callq  a76f <_Py_DECREF.isra.0>
    67d4:	48 8b 05 c5 d8 00 00 	mov    0xd8c5(%rip),%rax        # 140a0 <__pyx_d>
    67db:	48 8b 0d 5e d5 00 00 	mov    0xd55e(%rip),%rcx        # 13d40 <__pyx_dict_version.16059>
    67e2:	48 39 48 18          	cmp    %rcx,0x18(%rax)
    67e6:	75 20                	jne    6808 <__pyx_pymod_exec_arrow_mouse+0x1677>
    67e8:	4c 8b 25 49 d5 00 00 	mov    0xd549(%rip),%r12        # 13d38 <__pyx_dict_cached_value.16060>
    67ef:	4d 85 e4             	test   %r12,%r12
    67f2:	74 06                	je     67fa <__pyx_pymod_exec_arrow_mouse+0x1669>
    67f4:	49 ff 04 24          	incq   (%r12)
    67f8:	eb 34                	jmp    682e <__pyx_pymod_exec_arrow_mouse+0x169d>
    67fa:	48 8b 3d 5f d7 00 00 	mov    0xd75f(%rip),%rdi        # 13f60 <__pyx_n_s_keyboard>
    6801:	e8 c1 3e 00 00       	callq  a6c7 <__Pyx_GetBuiltinName>
    6806:	eb 1a                	jmp    6822 <__pyx_pymod_exec_arrow_mouse+0x1691>
    6808:	48 8b 3d 51 d7 00 00 	mov    0xd751(%rip),%rdi        # 13f60 <__pyx_n_s_keyboard>
    680f:	48 8d 15 22 d5 00 00 	lea    0xd522(%rip),%rdx        # 13d38 <__pyx_dict_cached_value.16060>
    6816:	48 8d 35 23 d5 00 00 	lea    0xd523(%rip),%rsi        # 13d40 <__pyx_dict_version.16059>
    681d:	e8 e5 3e 00 00       	callq  a707 <__Pyx__GetModuleGlobalName>
    6822:	49 89 c4             	mov    %rax,%r12
    6825:	48 85 c0             	test   %rax,%rax
    6828:	0f 84 e3 25 00 00    	je     8e11 <__pyx_pymod_exec_arrow_mouse+0x3c80>
    682e:	48 8b 35 43 d7 00 00 	mov    0xd743(%rip),%rsi        # 13f78 <__pyx_n_s_is_pressed>
    6835:	4c 89 e7             	mov    %r12,%rdi
    6838:	e8 d8 39 00 00       	callq  a215 <__Pyx_PyObject_GetAttrStr>
    683d:	48 89 c5             	mov    %rax,%rbp
    6840:	48 85 c0             	test   %rax,%rax
    6843:	0f 84 e5 25 00 00    	je     8e2e <__pyx_pymod_exec_arrow_mouse+0x3c9d>
    6849:	4c 89 e7             	mov    %r12,%rdi
    684c:	e8 1e 3f 00 00       	callq  a76f <_Py_DECREF.isra.0>
    6851:	48 8d 05 a8 c9 00 00 	lea    0xc9a8(%rip),%rax        # 13200 <PyMethod_Type>
    6858:	48 39 45 08          	cmp    %rax,0x8(%rbp)
    685c:	75 36                	jne    6894 <__pyx_pymod_exec_arrow_mouse+0x1703>
    685e:	4c 8b 65 18          	mov    0x18(%rbp),%r12
    6862:	4d 85 e4             	test   %r12,%r12
    6865:	74 2d                	je     6894 <__pyx_pymod_exec_arrow_mouse+0x1703>
    6867:	4c 8b 7d 10          	mov    0x10(%rbp),%r15
    686b:	49 ff 04 24          	incq   (%r12)
    686f:	48 89 ef             	mov    %rbp,%rdi
    6872:	49 ff 07             	incq   (%r15)
    6875:	4c 89 fd             	mov    %r15,%rbp
    6878:	e8 f2 3e 00 00       	callq  a76f <_Py_DECREF.isra.0>
    687d:	48 8b 15 44 d6 00 00 	mov    0xd644(%rip),%rdx        # 13ec8 <__pyx_n_s_q>
    6884:	4c 89 e6             	mov    %r12,%rsi
    6887:	4c 89 ff             	mov    %r15,%rdi
    688a:	e8 6b 4b 00 00       	callq  b3fa <__Pyx_PyObject_Call2Args>
    688f:	49 89 c5             	mov    %rax,%r13
    6892:	eb 15                	jmp    68a9 <__pyx_pymod_exec_arrow_mouse+0x1718>
    6894:	48 8b 35 2d d6 00 00 	mov    0xd62d(%rip),%rsi        # 13ec8 <__pyx_n_s_q>
    689b:	48 89 ef             	mov    %rbp,%rdi
    689e:	45 31 e4             	xor    %r12d,%r12d
    68a1:	e8 8e 4c 00 00       	callq  b534 <__Pyx_PyObject_CallOneArg>
    68a6:	49 89 c5             	mov    %rax,%r13
    68a9:	4c 89 e7             	mov    %r12,%rdi
    68ac:	e8 ae 3f 00 00       	callq  a85f <_Py_XDECREF>
    68b1:	4d 85 ed             	test   %r13,%r13
    68b4:	0f 84 8f 25 00 00    	je     8e49 <__pyx_pymod_exec_arrow_mouse+0x3cb8>
    68ba:	48 89 ef             	mov    %rbp,%rdi
    68bd:	e8 ad 3e 00 00       	callq  a76f <_Py_DECREF.isra.0>
    68c2:	4c 89 ef             	mov    %r13,%rdi
    68c5:	e8 dc 3a 00 00       	callq  a3a6 <__Pyx_PyObject_IsTrue>
    68ca:	89 04 24             	mov    %eax,(%rsp)
    68cd:	85 c0                	test   %eax,%eax
    68cf:	0f 88 8f 25 00 00    	js     8e64 <__pyx_pymod_exec_arrow_mouse+0x3cd3>
    68d5:	4c 89 ef             	mov    %r13,%rdi
    68d8:	e8 92 3e 00 00       	callq  a76f <_Py_DECREF.isra.0>
    68dd:	83 3c 24 00          	cmpl   $0x0,(%rsp)
    68e1:	74 19                	je     68fc <__pyx_pymod_exec_arrow_mouse+0x176b>
    68e3:	48 8b 3d 7e d5 00 00 	mov    0xd57e(%rip),%rdi        # 13e68 <__pyx_n_s_test>
    68ea:	e8 1f e7 ff ff       	callq  500e <__Pyx_PrintOne.constprop.0>
    68ef:	85 c0                	test   %eax,%eax
    68f1:	0f 88 87 25 00 00    	js     8e7e <__pyx_pymod_exec_arrow_mouse+0x3ced>
    68f7:	e9 14 1f 00 00       	jmpq   8810 <__pyx_pymod_exec_arrow_mouse+0x367f>
    68fc:	48 8b 05 9d d7 00 00 	mov    0xd79d(%rip),%rax        # 140a0 <__pyx_d>
    6903:	48 8b 0d 26 d4 00 00 	mov    0xd426(%rip),%rcx        # 13d30 <__pyx_dict_version.16064>
    690a:	48 39 48 18          	cmp    %rcx,0x18(%rax)
    690e:	75 20                	jne    6930 <__pyx_pymod_exec_arrow_mouse+0x179f>
    6910:	48 8b 2d 11 d4 00 00 	mov    0xd411(%rip),%rbp        # 13d28 <__pyx_dict_cached_value.16065>
    6917:	48 85 ed             	test   %rbp,%rbp
    691a:	74 06                	je     6922 <__pyx_pymod_exec_arrow_mouse+0x1791>
    691c:	48 ff 45 00          	incq   0x0(%rbp)
    6920:	eb 34                	jmp    6956 <__pyx_pymod_exec_arrow_mouse+0x17c5>
    6922:	48 8b 3d 37 d6 00 00 	mov    0xd637(%rip),%rdi        # 13f60 <__pyx_n_s_keyboard>
    6929:	e8 99 3d 00 00       	callq  a6c7 <__Pyx_GetBuiltinName>
    692e:	eb 1a                	jmp    694a <__pyx_pymod_exec_arrow_mouse+0x17b9>
    6930:	48 8b 3d 29 d6 00 00 	mov    0xd629(%rip),%rdi        # 13f60 <__pyx_n_s_keyboard>
    6937:	48 8d 15 ea d3 00 00 	lea    0xd3ea(%rip),%rdx        # 13d28 <__pyx_dict_cached_value.16065>
    693e:	48 8d 35 eb d3 00 00 	lea    0xd3eb(%rip),%rsi        # 13d30 <__pyx_dict_version.16064>
    6945:	e8 bd 3d 00 00       	callq  a707 <__Pyx__GetModuleGlobalName>
    694a:	48 89 c5             	mov    %rax,%rbp
    694d:	48 85 c0             	test   %rax,%rax
    6950:	0f 84 45 25 00 00    	je     8e9b <__pyx_pymod_exec_arrow_mouse+0x3d0a>
    6956:	48 8b 35 1b d6 00 00 	mov    0xd61b(%rip),%rsi        # 13f78 <__pyx_n_s_is_pressed>
    695d:	48 89 ef             	mov    %rbp,%rdi
    6960:	e8 b0 38 00 00       	callq  a215 <__Pyx_PyObject_GetAttrStr>
    6965:	49 89 c4             	mov    %rax,%r12
    6968:	48 85 c0             	test   %rax,%rax
    696b:	0f 84 48 25 00 00    	je     8eb9 <__pyx_pymod_exec_arrow_mouse+0x3d28>
    6971:	48 89 ef             	mov    %rbp,%rdi
    6974:	e8 f6 3d 00 00       	callq  a76f <_Py_DECREF.isra.0>
    6979:	48 8d 05 80 c8 00 00 	lea    0xc880(%rip),%rax        # 13200 <PyMethod_Type>
    6980:	49 39 44 24 08       	cmp    %rax,0x8(%r12)
    6985:	75 38                	jne    69bf <__pyx_pymod_exec_arrow_mouse+0x182e>
    6987:	49 8b 6c 24 18       	mov    0x18(%r12),%rbp
    698c:	48 85 ed             	test   %rbp,%rbp
    698f:	74 2e                	je     69bf <__pyx_pymod_exec_arrow_mouse+0x182e>
    6991:	49 8b 5c 24 10       	mov    0x10(%r12),%rbx
    6996:	48 ff 45 00          	incq   0x0(%rbp)
    699a:	4c 89 e7             	mov    %r12,%rdi
    699d:	48 ff 03             	incq   (%rbx)
    69a0:	49 89 dc             	mov    %rbx,%r12
    69a3:	e8 c7 3d 00 00       	callq  a76f <_Py_DECREF.isra.0>
    69a8:	48 8b 15 69 d6 00 00 	mov    0xd669(%rip),%rdx        # 14018 <__pyx_n_s_alt>
    69af:	48 89 ee             	mov    %rbp,%rsi
    69b2:	48 89 df             	mov    %rbx,%rdi
    69b5:	e8 40 4a 00 00       	callq  b3fa <__Pyx_PyObject_Call2Args>
    69ba:	49 89 c5             	mov    %rax,%r13
    69bd:	eb 14                	jmp    69d3 <__pyx_pymod_exec_arrow_mouse+0x1842>
    69bf:	48 8b 35 52 d6 00 00 	mov    0xd652(%rip),%rsi        # 14018 <__pyx_n_s_alt>
    69c6:	4c 89 e7             	mov    %r12,%rdi
    69c9:	31 ed                	xor    %ebp,%ebp
    69cb:	e8 64 4b 00 00       	callq  b534 <__Pyx_PyObject_CallOneArg>
    69d0:	49 89 c5             	mov    %rax,%r13
    69d3:	48 89 ef             	mov    %rbp,%rdi
    69d6:	e8 84 3e 00 00       	callq  a85f <_Py_XDECREF>
    69db:	4d 85 ed             	test   %r13,%r13
    69de:	0f 84 f0 24 00 00    	je     8ed4 <__pyx_pymod_exec_arrow_mouse+0x3d43>
    69e4:	4c 89 e7             	mov    %r12,%rdi
    69e7:	e8 83 3d 00 00       	callq  a76f <_Py_DECREF.isra.0>
    69ec:	4c 89 ef             	mov    %r13,%rdi
    69ef:	e8 b2 39 00 00       	callq  a3a6 <__Pyx_PyObject_IsTrue>
    69f4:	89 c5                	mov    %eax,%ebp
    69f6:	85 c0                	test   %eax,%eax
    69f8:	0f 88 f0 24 00 00    	js     8eee <__pyx_pymod_exec_arrow_mouse+0x3d5d>
    69fe:	4c 89 ef             	mov    %r13,%rdi
    6a01:	e8 69 3d 00 00       	callq  a76f <_Py_DECREF.isra.0>
    6a06:	85 ed                	test   %ebp,%ebp
    6a08:	0f 84 6a 1c 00 00    	je     8678 <__pyx_pymod_exec_arrow_mouse+0x34e7>
    6a0e:	48 8b 05 8b d6 00 00 	mov    0xd68b(%rip),%rax        # 140a0 <__pyx_d>
    6a15:	48 8b 0d 04 d3 00 00 	mov    0xd304(%rip),%rcx        # 13d20 <__pyx_dict_version.16068>
    6a1c:	48 39 48 18          	cmp    %rcx,0x18(%rax)
    6a20:	75 20                	jne    6a42 <__pyx_pymod_exec_arrow_mouse+0x18b1>
    6a22:	48 8b 2d ef d2 00 00 	mov    0xd2ef(%rip),%rbp        # 13d18 <__pyx_dict_cached_value.16069>
    6a29:	48 85 ed             	test   %rbp,%rbp
    6a2c:	74 06                	je     6a34 <__pyx_pymod_exec_arrow_mouse+0x18a3>
    6a2e:	48 ff 45 00          	incq   0x0(%rbp)
    6a32:	eb 34                	jmp    6a68 <__pyx_pymod_exec_arrow_mouse+0x18d7>
    6a34:	48 8b 3d d5 d5 00 00 	mov    0xd5d5(%rip),%rdi        # 14010 <__pyx_n_s_alt_pressed_measuring>
    6a3b:	e8 87 3c 00 00       	callq  a6c7 <__Pyx_GetBuiltinName>
    6a40:	eb 1a                	jmp    6a5c <__pyx_pymod_exec_arrow_mouse+0x18cb>
    6a42:	48 8b 3d c7 d5 00 00 	mov    0xd5c7(%rip),%rdi        # 14010 <__pyx_n_s_alt_pressed_measuring>
    6a49:	48 8d 15 c8 d2 00 00 	lea    0xd2c8(%rip),%rdx        # 13d18 <__pyx_dict_cached_value.16069>
    6a50:	48 8d 35 c9 d2 00 00 	lea    0xd2c9(%rip),%rsi        # 13d20 <__pyx_dict_version.16068>
    6a57:	e8 ab 3c 00 00       	callq  a707 <__Pyx__GetModuleGlobalName>
    6a5c:	48 89 c5             	mov    %rax,%rbp
    6a5f:	48 85 c0             	test   %rax,%rax
    6a62:	0f 84 a0 24 00 00    	je     8f08 <__pyx_pymod_exec_arrow_mouse+0x3d77>
    6a68:	48 8b 35 b9 d4 00 00 	mov    0xd4b9(%rip),%rsi        # 13f28 <__pyx_n_s_measure>
    6a6f:	48 89 ef             	mov    %rbp,%rdi
    6a72:	e8 9e 37 00 00       	callq  a215 <__Pyx_PyObject_GetAttrStr>
    6a77:	49 89 c5             	mov    %rax,%r13
    6a7a:	48 85 c0             	test   %rax,%rax
    6a7d:	0f 84 a3 24 00 00    	je     8f26 <__pyx_pymod_exec_arrow_mouse+0x3d95>
    6a83:	48 89 ef             	mov    %rbp,%rdi
    6a86:	e8 e4 3c 00 00       	callq  a76f <_Py_DECREF.isra.0>
    6a8b:	48 8d 05 6e c7 00 00 	lea    0xc76e(%rip),%rax        # 13200 <PyMethod_Type>
    6a92:	49 39 45 08          	cmp    %rax,0x8(%r13)
    6a96:	75 2c                	jne    6ac4 <__pyx_pymod_exec_arrow_mouse+0x1933>
    6a98:	4d 8b 7d 18          	mov    0x18(%r13),%r15
    6a9c:	4d 85 ff             	test   %r15,%r15
    6a9f:	74 23                	je     6ac4 <__pyx_pymod_exec_arrow_mouse+0x1933>
    6aa1:	49 8b 6d 10          	mov    0x10(%r13),%rbp
    6aa5:	49 ff 07             	incq   (%r15)
    6aa8:	4c 89 ef             	mov    %r13,%rdi
    6aab:	48 ff 45 00          	incq   0x0(%rbp)
    6aaf:	e8 bb 3c 00 00       	callq  a76f <_Py_DECREF.isra.0>
    6ab4:	4c 89 fe             	mov    %r15,%rsi
    6ab7:	48 89 ef             	mov    %rbp,%rdi
    6aba:	e8 75 4a 00 00       	callq  b534 <__Pyx_PyObject_CallOneArg>
    6abf:	49 89 c4             	mov    %rax,%r12
    6ac2:	eb 11                	jmp    6ad5 <__pyx_pymod_exec_arrow_mouse+0x1944>
    6ac4:	4c 89 ef             	mov    %r13,%rdi
    6ac7:	45 31 ff             	xor    %r15d,%r15d
    6aca:	4c 89 ed             	mov    %r13,%rbp
    6acd:	e8 49 4b 00 00       	callq  b61b <__Pyx_PyObject_CallNoArg>
    6ad2:	49 89 c4             	mov    %rax,%r12
    6ad5:	4c 89 ff             	mov    %r15,%rdi
    6ad8:	e8 82 3d 00 00       	callq  a85f <_Py_XDECREF>
    6add:	4d 85 e4             	test   %r12,%r12
    6ae0:	0f 84 5d 24 00 00    	je     8f43 <__pyx_pymod_exec_arrow_mouse+0x3db2>
    6ae6:	48 89 ef             	mov    %rbp,%rdi
    6ae9:	e8 81 3c 00 00       	callq  a76f <_Py_DECREF.isra.0>
    6aee:	4c 89 e7             	mov    %r12,%rdi
    6af1:	e8 79 3c 00 00       	callq  a76f <_Py_DECREF.isra.0>
    6af6:	48 8b 05 a3 d5 00 00 	mov    0xd5a3(%rip),%rax        # 140a0 <__pyx_d>
    6afd:	48 8b 0d 0c d2 00 00 	mov    0xd20c(%rip),%rcx        # 13d10 <__pyx_dict_version.16072>
    6b04:	48 39 48 18          	cmp    %rcx,0x18(%rax)
    6b08:	75 20                	jne    6b2a <__pyx_pymod_exec_arrow_mouse+0x1999>
    6b0a:	48 8b 2d f7 d1 00 00 	mov    0xd1f7(%rip),%rbp        # 13d08 <__pyx_dict_cached_value.16073>
    6b11:	48 85 ed             	test   %rbp,%rbp
    6b14:	74 06                	je     6b1c <__pyx_pymod_exec_arrow_mouse+0x198b>
    6b16:	48 ff 45 00          	incq   0x0(%rbp)
    6b1a:	eb 34                	jmp    6b50 <__pyx_pymod_exec_arrow_mouse+0x19bf>
    6b1c:	48 8b 3d ed d3 00 00 	mov    0xd3ed(%rip),%rdi        # 13f10 <__pyx_n_s_mouse>
    6b23:	e8 9f 3b 00 00       	callq  a6c7 <__Pyx_GetBuiltinName>
    6b28:	eb 1a                	jmp    6b44 <__pyx_pymod_exec_arrow_mouse+0x19b3>
    6b2a:	48 8b 3d df d3 00 00 	mov    0xd3df(%rip),%rdi        # 13f10 <__pyx_n_s_mouse>
    6b31:	48 8d 15 d0 d1 00 00 	lea    0xd1d0(%rip),%rdx        # 13d08 <__pyx_dict_cached_value.16073>
    6b38:	48 8d 35 d1 d1 00 00 	lea    0xd1d1(%rip),%rsi        # 13d10 <__pyx_dict_version.16072>
    6b3f:	e8 c3 3b 00 00       	callq  a707 <__Pyx__GetModuleGlobalName>
    6b44:	48 89 c5             	mov    %rax,%rbp
    6b47:	48 85 c0             	test   %rax,%rax
    6b4a:	0f 84 0e 24 00 00    	je     8f5e <__pyx_pymod_exec_arrow_mouse+0x3dcd>
    6b50:	48 8b 35 41 d4 00 00 	mov    0xd441(%rip),%rsi        # 13f98 <__pyx_n_s_get_position>
    6b57:	48 89 ef             	mov    %rbp,%rdi
    6b5a:	e8 b6 36 00 00       	callq  a215 <__Pyx_PyObject_GetAttrStr>
    6b5f:	49 89 c4             	mov    %rax,%r12
    6b62:	48 85 c0             	test   %rax,%rax
    6b65:	0f 84 11 24 00 00    	je     8f7c <__pyx_pymod_exec_arrow_mouse+0x3deb>
    6b6b:	48 89 ef             	mov    %rbp,%rdi
    6b6e:	e8 fc 3b 00 00       	callq  a76f <_Py_DECREF.isra.0>
    6b73:	48 8d 05 86 c6 00 00 	lea    0xc686(%rip),%rax        # 13200 <PyMethod_Type>
    6b7a:	49 39 44 24 08       	cmp    %rax,0x8(%r12)
    6b7f:	75 31                	jne    6bb2 <__pyx_pymod_exec_arrow_mouse+0x1a21>
    6b81:	49 8b 6c 24 18       	mov    0x18(%r12),%rbp
    6b86:	48 85 ed             	test   %rbp,%rbp
    6b89:	74 27                	je     6bb2 <__pyx_pymod_exec_arrow_mouse+0x1a21>
    6b8b:	49 8b 5c 24 10       	mov    0x10(%r12),%rbx
    6b90:	48 ff 45 00          	incq   0x0(%rbp)
    6b94:	4c 89 e7             	mov    %r12,%rdi
    6b97:	48 ff 03             	incq   (%rbx)
    6b9a:	49 89 dc             	mov    %rbx,%r12
    6b9d:	e8 cd 3b 00 00       	callq  a76f <_Py_DECREF.isra.0>
    6ba2:	48 89 ee             	mov    %rbp,%rsi
    6ba5:	48 89 df             	mov    %rbx,%rdi
    6ba8:	e8 87 49 00 00       	callq  b534 <__Pyx_PyObject_CallOneArg>
    6bad:	49 89 c5             	mov    %rax,%r13
    6bb0:	eb 0d                	jmp    6bbf <__pyx_pymod_exec_arrow_mouse+0x1a2e>
    6bb2:	4c 89 e7             	mov    %r12,%rdi
    6bb5:	31 ed                	xor    %ebp,%ebp
    6bb7:	e8 5f 4a 00 00       	callq  b61b <__Pyx_PyObject_CallNoArg>
    6bbc:	49 89 c5             	mov    %rax,%r13
    6bbf:	48 89 ef             	mov    %rbp,%rdi
    6bc2:	e8 98 3c 00 00       	callq  a85f <_Py_XDECREF>
    6bc7:	4d 85 ed             	test   %r13,%r13
    6bca:	0f 84 c7 23 00 00    	je     8f97 <__pyx_pymod_exec_arrow_mouse+0x3e06>
    6bd0:	4c 89 e7             	mov    %r12,%rdi
    6bd3:	e8 97 3b 00 00       	callq  a76f <_Py_DECREF.isra.0>
    6bd8:	49 8b 45 08          	mov    0x8(%r13),%rax
    6bdc:	48 8d 15 bd c2 00 00 	lea    0xc2bd(%rip),%rdx        # 12ea0 <PyTuple_Type>
    6be3:	48 39 d0             	cmp    %rdx,%rax
    6be6:	74 10                	je     6bf8 <__pyx_pymod_exec_arrow_mouse+0x1a67>
    6be8:	48 8d 0d 51 b8 00 00 	lea    0xb851(%rip),%rcx        # 12440 <PyList_Type>
    6bef:	48 39 c8             	cmp    %rcx,%rax
    6bf2:	0f 85 ba 00 00 00    	jne    6cb2 <__pyx_pymod_exec_arrow_mouse+0x1b21>
    6bf8:	49 8b 7d 10          	mov    0x10(%r13),%rdi
    6bfc:	48 83 ff 02          	cmp    $0x2,%rdi
    6c00:	74 5e                	je     6c60 <__pyx_pymod_exec_arrow_mouse+0x1acf>
    6c02:	7e 34                	jle    6c38 <__pyx_pymod_exec_arrow_mouse+0x1aa7>
    6c04:	48 8b 3d 15 b8 00 00 	mov    0xb815(%rip),%rdi        # 12420 <PyExc_ValueError>
    6c0b:	ba 02 00 00 00       	mov    $0x2,%edx
    6c10:	31 c0                	xor    %eax,%eax
    6c12:	31 db                	xor    %ebx,%ebx
    6c14:	48 8d 35 72 6d 00 00 	lea    0x6d72(%rip),%rsi        # d98d <_IO_stdin_used+0x98d>
    6c1b:	45 31 e4             	xor    %r12d,%r12d
    6c1e:	31 ed                	xor    %ebp,%ebp
    6c20:	41 bf 3f 0d 00 00    	mov    $0xd3f,%r15d
    6c26:	e8 b5 db ff ff       	callq  47e0 <PyErr_Format@plt>
    6c2b:	45 31 c9             	xor    %r9d,%r9d
    6c2e:	ba 47 00 00 00       	mov    $0x47,%edx
    6c33:	e9 0f eb ff ff       	jmpq   5747 <__pyx_pymod_exec_arrow_mouse+0x5b6>
    6c38:	48 85 ff             	test   %rdi,%rdi
    6c3b:	0f 88 70 23 00 00    	js     8fb1 <__pyx_pymod_exec_arrow_mouse+0x3e20>
    6c41:	e8 2a e0 ff ff       	callq  4c70 <__Pyx_RaiseNeedMoreValuesError>
    6c46:	31 db                	xor    %ebx,%ebx
    6c48:	45 31 c9             	xor    %r9d,%r9d
    6c4b:	45 31 e4             	xor    %r12d,%r12d
    6c4e:	31 ed                	xor    %ebp,%ebp
    6c50:	41 bf 3f 0d 00 00    	mov    $0xd3f,%r15d
    6c56:	ba 47 00 00 00       	mov    $0x47,%edx
    6c5b:	e9 e7 ea ff ff       	jmpq   5747 <__pyx_pymod_exec_arrow_mouse+0x5b6>
    6c60:	48 39 d0             	cmp    %rdx,%rax
    6c63:	75 32                	jne    6c97 <__pyx_pymod_exec_arrow_mouse+0x1b06>
    6c65:	f6 80 ab 00 00 00 04 	testb  $0x4,0xab(%rax)
    6c6c:	75 1f                	jne    6c8d <__pyx_pymod_exec_arrow_mouse+0x1afc>
    6c6e:	48 8d 0d 5b 71 00 00 	lea    0x715b(%rip),%rcx        # ddd0 <__PRETTY_FUNCTION__.16078>
    6c75:	ba 43 0d 00 00       	mov    $0xd43,%edx
    6c7a:	48 8d 35 83 63 00 00 	lea    0x6383(%rip),%rsi        # d004 <_IO_stdin_used+0x4>
    6c81:	48 8d 3d 2e 6d 00 00 	lea    0x6d2e(%rip),%rdi        # d9b6 <_IO_stdin_used+0x9b6>
    6c88:	e9 24 f4 ff ff       	jmpq   60b1 <__pyx_pymod_exec_arrow_mouse+0xf20>
    6c8d:	4d 8b 65 18          	mov    0x18(%r13),%r12
    6c91:	49 8b 6d 20          	mov    0x20(%r13),%rbp
    6c95:	eb 0b                	jmp    6ca2 <__pyx_pymod_exec_arrow_mouse+0x1b11>
    6c97:	49 8b 45 18          	mov    0x18(%r13),%rax
    6c9b:	4c 8b 20             	mov    (%rax),%r12
    6c9e:	48 8b 68 08          	mov    0x8(%rax),%rbp
    6ca2:	49 ff 04 24          	incq   (%r12)
    6ca6:	4c 89 ef             	mov    %r13,%rdi
    6ca9:	48 ff 45 00          	incq   0x0(%rbp)
    6cad:	e9 cb 00 00 00       	jmpq   6d7d <__pyx_pymod_exec_arrow_mouse+0x1bec>
    6cb2:	4c 89 ef             	mov    %r13,%rdi
    6cb5:	e8 c6 dc ff ff       	callq  4980 <PyObject_GetIter@plt>
    6cba:	49 89 c1             	mov    %rax,%r9
    6cbd:	48 85 c0             	test   %rax,%rax
    6cc0:	0f 84 05 23 00 00    	je     8fcb <__pyx_pymod_exec_arrow_mouse+0x3e3a>
    6cc6:	4c 89 ef             	mov    %r13,%rdi
    6cc9:	48 89 44 24 08       	mov    %rax,0x8(%rsp)
    6cce:	e8 9c 3a 00 00       	callq  a76f <_Py_DECREF.isra.0>
    6cd3:	4c 8b 4c 24 08       	mov    0x8(%rsp),%r9
    6cd8:	49 8b 41 08          	mov    0x8(%r9),%rax
    6cdc:	4c 89 cf             	mov    %r9,%rdi
    6cdf:	4c 8b a8 e0 00 00 00 	mov    0xe0(%rax),%r13
    6ce6:	41 ff d5             	callq  *%r13
    6ce9:	4c 8b 4c 24 08       	mov    0x8(%rsp),%r9
    6cee:	48 85 c0             	test   %rax,%rax
    6cf1:	49 89 c4             	mov    %rax,%r12
    6cf4:	0f 84 ab 00 00 00    	je     6da5 <__pyx_pymod_exec_arrow_mouse+0x1c14>
    6cfa:	4c 89 cf             	mov    %r9,%rdi
    6cfd:	41 ff d5             	callq  *%r13
    6d00:	4c 8b 4c 24 08       	mov    0x8(%rsp),%r9
    6d05:	48 85 c0             	test   %rax,%rax
    6d08:	48 89 c5             	mov    %rax,%rbp
    6d0b:	0f 84 98 00 00 00    	je     6da9 <__pyx_pymod_exec_arrow_mouse+0x1c18>
    6d11:	4c 89 cf             	mov    %r9,%rdi
    6d14:	41 ff d5             	callq  *%r13
    6d17:	4c 8b 4c 24 08       	mov    0x8(%rsp),%r9
    6d1c:	48 85 c0             	test   %rax,%rax
    6d1f:	49 89 c5             	mov    %rax,%r13
    6d22:	74 3f                	je     6d63 <__pyx_pymod_exec_arrow_mouse+0x1bd2>
    6d24:	48 89 c7             	mov    %rax,%rdi
    6d27:	4c 89 0c 24          	mov    %r9,(%rsp)
    6d2b:	31 db                	xor    %ebx,%ebx
    6d2d:	45 31 ed             	xor    %r13d,%r13d
    6d30:	e8 3a 3a 00 00       	callq  a76f <_Py_DECREF.isra.0>
    6d35:	48 8b 3d e4 b6 00 00 	mov    0xb6e4(%rip),%rdi        # 12420 <PyExc_ValueError>
    6d3c:	ba 02 00 00 00       	mov    $0x2,%edx
    6d41:	31 c0                	xor    %eax,%eax
    6d43:	48 8d 35 43 6c 00 00 	lea    0x6c43(%rip),%rsi        # d98d <_IO_stdin_used+0x98d>
    6d4a:	41 bf 5c 0d 00 00    	mov    $0xd5c,%r15d
    6d50:	e8 8b da ff ff       	callq  47e0 <PyErr_Format@plt>
    6d55:	4c 8b 0c 24          	mov    (%rsp),%r9
    6d59:	ba 47 00 00 00       	mov    $0x47,%edx
    6d5e:	e9 e4 e9 ff ff       	jmpq   5747 <__pyx_pymod_exec_arrow_mouse+0x5b6>
    6d63:	4c 89 4c 24 08       	mov    %r9,0x8(%rsp)
    6d68:	e8 31 df ff ff       	callq  4c9e <__Pyx_IterFinish>
    6d6d:	4c 8b 4c 24 08       	mov    0x8(%rsp),%r9
    6d72:	85 c0                	test   %eax,%eax
    6d74:	0f 88 6b 22 00 00    	js     8fe5 <__pyx_pymod_exec_arrow_mouse+0x3e54>
    6d7a:	4c 89 cf             	mov    %r9,%rdi
    6d7d:	f3 0f 1e fa          	endbr64 
    6d81:	e8 e9 39 00 00       	callq  a76f <_Py_DECREF.isra.0>
    6d86:	48 8b 35 63 d1 00 00 	mov    0xd163(%rip),%rsi        # 13ef0 <__pyx_n_s_o_x>
    6d8d:	48 8b 3d 0c d3 00 00 	mov    0xd30c(%rip),%rdi        # 140a0 <__pyx_d>
    6d94:	4c 89 e2             	mov    %r12,%rdx
    6d97:	e8 b4 de ff ff       	callq  4c50 <PyDict_SetItem@plt>
    6d9c:	85 c0                	test   %eax,%eax
    6d9e:	79 45                	jns    6de5 <__pyx_pymod_exec_arrow_mouse+0x1c54>
    6da0:	e9 6f 22 00 00       	jmpq   9014 <__pyx_pymod_exec_arrow_mouse+0x3e83>
    6da5:	31 ed                	xor    %ebp,%ebp
    6da7:	eb 05                	jmp    6dae <__pyx_pymod_exec_arrow_mouse+0x1c1d>
    6da9:	bd 01 00 00 00       	mov    $0x1,%ebp
    6dae:	4c 89 cf             	mov    %r9,%rdi
    6db1:	e8 b9 39 00 00       	callq  a76f <_Py_DECREF.isra.0>
    6db6:	e8 e3 de ff ff       	callq  4c9e <__Pyx_IterFinish>
    6dbb:	85 c0                	test   %eax,%eax
    6dbd:	0f 85 37 22 00 00    	jne    8ffa <__pyx_pymod_exec_arrow_mouse+0x3e69>
    6dc3:	48 89 ef             	mov    %rbp,%rdi
    6dc6:	31 db                	xor    %ebx,%ebx
    6dc8:	45 31 ed             	xor    %r13d,%r13d
    6dcb:	31 ed                	xor    %ebp,%ebp
    6dcd:	e8 9e de ff ff       	callq  4c70 <__Pyx_RaiseNeedMoreValuesError>
    6dd2:	41 bf 64 0d 00 00    	mov    $0xd64,%r15d
    6dd8:	45 31 c9             	xor    %r9d,%r9d
    6ddb:	ba 47 00 00 00       	mov    $0x47,%edx
    6de0:	e9 62 e9 ff ff       	jmpq   5747 <__pyx_pymod_exec_arrow_mouse+0x5b6>
    6de5:	4c 89 e7             	mov    %r12,%rdi
    6de8:	e8 82 39 00 00       	callq  a76f <_Py_DECREF.isra.0>
    6ded:	48 8b 35 f4 d0 00 00 	mov    0xd0f4(%rip),%rsi        # 13ee8 <__pyx_n_s_o_y>
    6df4:	48 8b 3d a5 d2 00 00 	mov    0xd2a5(%rip),%rdi        # 140a0 <__pyx_d>
    6dfb:	48 89 ea             	mov    %rbp,%rdx
    6dfe:	e8 4d de ff ff       	callq  4c50 <PyDict_SetItem@plt>
    6e03:	85 c0                	test   %eax,%eax
    6e05:	0f 88 21 22 00 00    	js     902c <__pyx_pymod_exec_arrow_mouse+0x3e9b>
    6e0b:	48 89 ef             	mov    %rbp,%rdi
    6e0e:	e8 5c 39 00 00       	callq  a76f <_Py_DECREF.isra.0>
    6e13:	48 8b 05 86 d2 00 00 	mov    0xd286(%rip),%rax        # 140a0 <__pyx_d>
    6e1a:	48 8b 0d df ce 00 00 	mov    0xcedf(%rip),%rcx        # 13d00 <__pyx_dict_version.16082>
    6e21:	48 39 48 18          	cmp    %rcx,0x18(%rax)
    6e25:	75 20                	jne    6e47 <__pyx_pymod_exec_arrow_mouse+0x1cb6>
    6e27:	4c 8b 25 ca ce 00 00 	mov    0xceca(%rip),%r12        # 13cf8 <__pyx_dict_cached_value.16083>
    6e2e:	4d 85 e4             	test   %r12,%r12
    6e31:	74 06                	je     6e39 <__pyx_pymod_exec_arrow_mouse+0x1ca8>
    6e33:	49 ff 04 24          	incq   (%r12)
    6e37:	eb 34                	jmp    6e6d <__pyx_pymod_exec_arrow_mouse+0x1cdc>
    6e39:	48 8b 3d 30 d0 00 00 	mov    0xd030(%rip),%rdi        # 13e70 <__pyx_n_s_t>
    6e40:	e8 82 38 00 00       	callq  a6c7 <__Pyx_GetBuiltinName>
    6e45:	eb 1a                	jmp    6e61 <__pyx_pymod_exec_arrow_mouse+0x1cd0>
    6e47:	48 8b 3d 22 d0 00 00 	mov    0xd022(%rip),%rdi        # 13e70 <__pyx_n_s_t>
    6e4e:	48 8d 15 a3 ce 00 00 	lea    0xcea3(%rip),%rdx        # 13cf8 <__pyx_dict_cached_value.16083>
    6e55:	48 8d 35 a4 ce 00 00 	lea    0xcea4(%rip),%rsi        # 13d00 <__pyx_dict_version.16082>
    6e5c:	e8 a6 38 00 00       	callq  a707 <__Pyx__GetModuleGlobalName>
    6e61:	49 89 c4             	mov    %rax,%r12
    6e64:	48 85 c0             	test   %rax,%rax
    6e67:	0f 84 da 21 00 00    	je     9047 <__pyx_pymod_exec_arrow_mouse+0x3eb6>
    6e6d:	48 8b 35 9c cf 00 00 	mov    0xcf9c(%rip),%rsi        # 13e10 <__pyx_int_1>
    6e74:	ba 01 00 00 00       	mov    $0x1,%edx
    6e79:	4c 89 e7             	mov    %r12,%rdi
    6e7c:	e8 07 42 00 00       	callq  b088 <__Pyx_PyInt_AddObjC.isra.0.constprop.0>
    6e81:	48 89 c5             	mov    %rax,%rbp
    6e84:	48 85 c0             	test   %rax,%rax
    6e87:	0f 84 d7 21 00 00    	je     9064 <__pyx_pymod_exec_arrow_mouse+0x3ed3>
    6e8d:	4c 89 e7             	mov    %r12,%rdi
    6e90:	e8 da 38 00 00       	callq  a76f <_Py_DECREF.isra.0>
    6e95:	48 8b 35 d4 cf 00 00 	mov    0xcfd4(%rip),%rsi        # 13e70 <__pyx_n_s_t>
    6e9c:	48 8b 3d fd d1 00 00 	mov    0xd1fd(%rip),%rdi        # 140a0 <__pyx_d>
    6ea3:	48 89 ea             	mov    %rbp,%rdx
    6ea6:	e8 a5 dd ff ff       	callq  4c50 <PyDict_SetItem@plt>
    6eab:	85 c0                	test   %eax,%eax
    6ead:	0f 88 cf 21 00 00    	js     9082 <__pyx_pymod_exec_arrow_mouse+0x3ef1>
    6eb3:	48 89 ef             	mov    %rbp,%rdi
    6eb6:	e8 b4 38 00 00       	callq  a76f <_Py_DECREF.isra.0>
    6ebb:	48 8b 05 de d1 00 00 	mov    0xd1de(%rip),%rax        # 140a0 <__pyx_d>
    6ec2:	48 8b 0d 27 ce 00 00 	mov    0xce27(%rip),%rcx        # 13cf0 <__pyx_dict_version.16084>
    6ec9:	48 39 48 18          	cmp    %rcx,0x18(%rax)
    6ecd:	75 20                	jne    6eef <__pyx_pymod_exec_arrow_mouse+0x1d5e>
    6ecf:	48 8b 2d 12 ce 00 00 	mov    0xce12(%rip),%rbp        # 13ce8 <__pyx_dict_cached_value.16085>
    6ed6:	48 85 ed             	test   %rbp,%rbp
    6ed9:	74 06                	je     6ee1 <__pyx_pymod_exec_arrow_mouse+0x1d50>
    6edb:	48 ff 45 00          	incq   0x0(%rbp)
    6edf:	eb 34                	jmp    6f15 <__pyx_pymod_exec_arrow_mouse+0x1d84>
    6ee1:	48 8b 3d 68 d0 00 00 	mov    0xd068(%rip),%rdi        # 13f50 <__pyx_n_s_last_move_mouse>
    6ee8:	e8 da 37 00 00       	callq  a6c7 <__Pyx_GetBuiltinName>
    6eed:	eb 1a                	jmp    6f09 <__pyx_pymod_exec_arrow_mouse+0x1d78>
    6eef:	48 8b 3d 5a d0 00 00 	mov    0xd05a(%rip),%rdi        # 13f50 <__pyx_n_s_last_move_mouse>
    6ef6:	48 8d 15 eb cd 00 00 	lea    0xcdeb(%rip),%rdx        # 13ce8 <__pyx_dict_cached_value.16085>
    6efd:	48 8d 35 ec cd 00 00 	lea    0xcdec(%rip),%rsi        # 13cf0 <__pyx_dict_version.16084>
    6f04:	e8 fe 37 00 00       	callq  a707 <__Pyx__GetModuleGlobalName>
    6f09:	48 89 c5             	mov    %rax,%rbp
    6f0c:	48 85 c0             	test   %rax,%rax
    6f0f:	0f 84 88 21 00 00    	je     909d <__pyx_pymod_exec_arrow_mouse+0x3f0c>
    6f15:	48 89 ef             	mov    %rbp,%rdi
    6f18:	e8 89 34 00 00       	callq  a3a6 <__Pyx_PyObject_IsTrue>
    6f1d:	41 89 c4             	mov    %eax,%r12d
    6f20:	85 c0                	test   %eax,%eax
    6f22:	0f 88 93 21 00 00    	js     90bb <__pyx_pymod_exec_arrow_mouse+0x3f2a>
    6f28:	48 89 ef             	mov    %rbp,%rdi
    6f2b:	e8 3f 38 00 00       	callq  a76f <_Py_DECREF.isra.0>
    6f30:	45 85 e4             	test   %r12d,%r12d
    6f33:	48 8b 3d 66 d1 00 00 	mov    0xd166(%rip),%rdi        # 140a0 <__pyx_d>
    6f3a:	0f 84 0b 03 00 00    	je     724b <__pyx_pymod_exec_arrow_mouse+0x20ba>
    6f40:	48 8b 05 99 cd 00 00 	mov    0xcd99(%rip),%rax        # 13ce0 <__pyx_dict_version.16086>
    6f47:	48 39 47 18          	cmp    %rax,0x18(%rdi)
    6f4b:	75 20                	jne    6f6d <__pyx_pymod_exec_arrow_mouse+0x1ddc>
    6f4d:	4c 8b 2d 84 cd 00 00 	mov    0xcd84(%rip),%r13        # 13cd8 <__pyx_dict_cached_value.16087>
    6f54:	4d 85 ed             	test   %r13,%r13
    6f57:	74 06                	je     6f5f <__pyx_pymod_exec_arrow_mouse+0x1dce>
    6f59:	49 ff 45 00          	incq   0x0(%r13)
    6f5d:	eb 37                	jmp    6f96 <__pyx_pymod_exec_arrow_mouse+0x1e05>
    6f5f:	48 8b 3d 22 cf 00 00 	mov    0xcf22(%rip),%rdi        # 13e88 <__pyx_n_s_speed_function>
    6f66:	e8 5c 37 00 00       	callq  a6c7 <__Pyx_GetBuiltinName>
    6f6b:	eb 1a                	jmp    6f87 <__pyx_pymod_exec_arrow_mouse+0x1df6>
    6f6d:	48 8b 3d 14 cf 00 00 	mov    0xcf14(%rip),%rdi        # 13e88 <__pyx_n_s_speed_function>
    6f74:	48 8d 15 5d cd 00 00 	lea    0xcd5d(%rip),%rdx        # 13cd8 <__pyx_dict_cached_value.16087>
    6f7b:	48 8d 35 5e cd 00 00 	lea    0xcd5e(%rip),%rsi        # 13ce0 <__pyx_dict_version.16086>
    6f82:	e8 80 37 00 00       	callq  a707 <__Pyx__GetModuleGlobalName>
    6f87:	48 89 c5             	mov    %rax,%rbp
    6f8a:	48 85 c0             	test   %rax,%rax
    6f8d:	0f 84 43 21 00 00    	je     90d6 <__pyx_pymod_exec_arrow_mouse+0x3f45>
    6f93:	49 89 c5             	mov    %rax,%r13
    6f96:	48 8b 05 03 d1 00 00 	mov    0xd103(%rip),%rax        # 140a0 <__pyx_d>
    6f9d:	48 8b 0d 2c cd 00 00 	mov    0xcd2c(%rip),%rcx        # 13cd0 <__pyx_dict_version.16088>
    6fa4:	48 39 48 18          	cmp    %rcx,0x18(%rax)
    6fa8:	75 20                	jne    6fca <__pyx_pymod_exec_arrow_mouse+0x1e39>
    6faa:	4c 8b 25 17 cd 00 00 	mov    0xcd17(%rip),%r12        # 13cc8 <__pyx_dict_cached_value.16089>
    6fb1:	4d 85 e4             	test   %r12,%r12
    6fb4:	74 06                	je     6fbc <__pyx_pymod_exec_arrow_mouse+0x1e2b>
    6fb6:	49 ff 04 24          	incq   (%r12)
    6fba:	eb 37                	jmp    6ff3 <__pyx_pymod_exec_arrow_mouse+0x1e62>
    6fbc:	48 8b 3d cd ce 00 00 	mov    0xcecd(%rip),%rdi        # 13e90 <__pyx_n_s_speed>
    6fc3:	e8 ff 36 00 00       	callq  a6c7 <__Pyx_GetBuiltinName>
    6fc8:	eb 1a                	jmp    6fe4 <__pyx_pymod_exec_arrow_mouse+0x1e53>
    6fca:	48 8b 3d bf ce 00 00 	mov    0xcebf(%rip),%rdi        # 13e90 <__pyx_n_s_speed>
    6fd1:	48 8d 15 f0 cc 00 00 	lea    0xccf0(%rip),%rdx        # 13cc8 <__pyx_dict_cached_value.16089>
    6fd8:	48 8d 35 f1 cc 00 00 	lea    0xccf1(%rip),%rsi        # 13cd0 <__pyx_dict_version.16088>
    6fdf:	e8 23 37 00 00       	callq  a707 <__Pyx__GetModuleGlobalName>
    6fe4:	48 89 c5             	mov    %rax,%rbp
    6fe7:	48 85 c0             	test   %rax,%rax
    6fea:	0f 84 04 21 00 00    	je     90f4 <__pyx_pymod_exec_arrow_mouse+0x3f63>
    6ff0:	49 89 c4             	mov    %rax,%r12
    6ff3:	48 8b 05 a6 d0 00 00 	mov    0xd0a6(%rip),%rax        # 140a0 <__pyx_d>
    6ffa:	48 8b 0d bf cc 00 00 	mov    0xccbf(%rip),%rcx        # 13cc0 <__pyx_dict_version.16090>
    7001:	48 39 48 18          	cmp    %rcx,0x18(%rax)
    7005:	75 1f                	jne    7026 <__pyx_pymod_exec_arrow_mouse+0x1e95>
    7007:	4c 8b 0d aa cc 00 00 	mov    0xccaa(%rip),%r9        # 13cb8 <__pyx_dict_cached_value.16091>
    700e:	4d 85 c9             	test   %r9,%r9
    7011:	74 05                	je     7018 <__pyx_pymod_exec_arrow_mouse+0x1e87>
    7013:	49 ff 01             	incq   (%r9)
    7016:	eb 37                	jmp    704f <__pyx_pymod_exec_arrow_mouse+0x1ebe>
    7018:	48 8b 3d 51 ce 00 00 	mov    0xce51(%rip),%rdi        # 13e70 <__pyx_n_s_t>
    701f:	e8 a3 36 00 00       	callq  a6c7 <__Pyx_GetBuiltinName>
    7024:	eb 1a                	jmp    7040 <__pyx_pymod_exec_arrow_mouse+0x1eaf>
    7026:	48 8b 3d 43 ce 00 00 	mov    0xce43(%rip),%rdi        # 13e70 <__pyx_n_s_t>
    702d:	48 8d 15 84 cc 00 00 	lea    0xcc84(%rip),%rdx        # 13cb8 <__pyx_dict_cached_value.16091>
    7034:	48 8d 35 85 cc 00 00 	lea    0xcc85(%rip),%rsi        # 13cc0 <__pyx_dict_version.16090>
    703b:	e8 c7 36 00 00       	callq  a707 <__Pyx__GetModuleGlobalName>
    7040:	48 89 c5             	mov    %rax,%rbp
    7043:	48 85 c0             	test   %rax,%rax
    7046:	0f 84 c3 20 00 00    	je     910f <__pyx_pymod_exec_arrow_mouse+0x3f7e>
    704c:	49 89 c1             	mov    %rax,%r9
    704f:	48 8d 05 aa c1 00 00 	lea    0xc1aa(%rip),%rax        # 13200 <PyMethod_Type>
    7056:	49 39 45 08          	cmp    %rax,0x8(%r13)
    705a:	75 32                	jne    708e <__pyx_pymod_exec_arrow_mouse+0x1efd>
    705c:	4d 8b 7d 18          	mov    0x18(%r13),%r15
    7060:	31 ed                	xor    %ebp,%ebp
    7062:	4d 85 ff             	test   %r15,%r15
    7065:	74 2c                	je     7093 <__pyx_pymod_exec_arrow_mouse+0x1f02>
    7067:	49 8b 6d 10          	mov    0x10(%r13),%rbp
    706b:	49 ff 07             	incq   (%r15)
    706e:	4c 89 ef             	mov    %r13,%rdi
    7071:	4c 89 4c 24 08       	mov    %r9,0x8(%rsp)
    7076:	48 ff 45 00          	incq   0x0(%rbp)
    707a:	49 89 ed             	mov    %rbp,%r13
    707d:	bd 01 00 00 00       	mov    $0x1,%ebp
    7082:	e8 e8 36 00 00       	callq  a76f <_Py_DECREF.isra.0>
    7087:	4c 8b 4c 24 08       	mov    0x8(%rsp),%r9
    708c:	eb 05                	jmp    7093 <__pyx_pymod_exec_arrow_mouse+0x1f02>
    708e:	31 ed                	xor    %ebp,%ebp
    7090:	45 31 ff             	xor    %r15d,%r15d
    7093:	49 8b 45 08          	mov    0x8(%r13),%rax
    7097:	8d 55 02             	lea    0x2(%rbp),%edx
    709a:	48 8d 0d 3f c8 00 00 	lea    0xc83f(%rip),%rcx        # 138e0 <PyFunction_Type>
    70a1:	48 63 d2             	movslq %edx,%rdx
    70a4:	48 39 c8             	cmp    %rcx,%rax
    70a7:	75 4b                	jne    70f4 <__pyx_pymod_exec_arrow_mouse+0x1f63>
    70a9:	b8 01 00 00 00       	mov    $0x1,%eax
    70ae:	4c 89 ef             	mov    %r13,%rdi
    70b1:	4c 89 4c 24 20       	mov    %r9,0x20(%rsp)
    70b6:	48 29 e8             	sub    %rbp,%rax
    70b9:	4c 89 4c 24 08       	mov    %r9,0x8(%rsp)
    70be:	48 8d 74 c4 10       	lea    0x10(%rsp,%rax,8),%rsi
    70c3:	4c 89 7c 24 10       	mov    %r15,0x10(%rsp)
    70c8:	4c 89 64 24 18       	mov    %r12,0x18(%rsp)
    70cd:	e8 bc 41 00 00       	callq  b28e <__Pyx_PyFunction_FastCallDict.constprop.0>
    70d2:	4c 8b 4c 24 08       	mov    0x8(%rsp),%r9
    70d7:	48 85 c0             	test   %rax,%rax
    70da:	48 89 c5             	mov    %rax,%rbp
    70dd:	75 7d                	jne    715c <__pyx_pymod_exec_arrow_mouse+0x1fcb>
    70df:	4d 89 fe             	mov    %r15,%r14
    70e2:	31 db                	xor    %ebx,%ebx
    70e4:	41 bf a4 0d 00 00    	mov    $0xda4,%r15d
    70ea:	ba 4a 00 00 00       	mov    $0x4a,%edx
    70ef:	e9 53 e6 ff ff       	jmpq   5747 <__pyx_pymod_exec_arrow_mouse+0x5b6>
    70f4:	48 8d 0d 85 c4 00 00 	lea    0xc485(%rip),%rcx        # 13580 <PyCFunction_Type>
    70fb:	48 39 c8             	cmp    %rcx,%rax
    70fe:	75 7e                	jne    717e <__pyx_pymod_exec_arrow_mouse+0x1fed>
    7100:	49 8b 45 10          	mov    0x10(%r13),%rax
    7104:	8b 40 10             	mov    0x10(%rax),%eax
    7107:	83 e0 8d             	and    $0xffffff8d,%eax
    710a:	3d 80 00 00 00       	cmp    $0x80,%eax
    710f:	75 6d                	jne    717e <__pyx_pymod_exec_arrow_mouse+0x1fed>
    7111:	b8 01 00 00 00       	mov    $0x1,%eax
    7116:	4c 89 ef             	mov    %r13,%rdi
    7119:	4c 89 4c 24 20       	mov    %r9,0x20(%rsp)
    711e:	48 29 e8             	sub    %rbp,%rax
    7121:	4c 89 4c 24 08       	mov    %r9,0x8(%rsp)
    7126:	48 8d 74 c4 10       	lea    0x10(%rsp,%rax,8),%rsi
    712b:	4c 89 7c 24 10       	mov    %r15,0x10(%rsp)
    7130:	4c 89 64 24 18       	mov    %r12,0x18(%rsp)
    7135:	e8 54 34 00 00       	callq  a58e <__Pyx_PyCFunction_FastCall>
    713a:	4c 8b 4c 24 08       	mov    0x8(%rsp),%r9
    713f:	48 85 c0             	test   %rax,%rax
    7142:	48 89 c5             	mov    %rax,%rbp
    7145:	75 15                	jne    715c <__pyx_pymod_exec_arrow_mouse+0x1fcb>
    7147:	4d 89 fe             	mov    %r15,%r14
    714a:	31 db                	xor    %ebx,%ebx
    714c:	41 bf ae 0d 00 00    	mov    $0xdae,%r15d
    7152:	ba 4a 00 00 00       	mov    $0x4a,%edx
    7157:	e9 eb e5 ff ff       	jmpq   5747 <__pyx_pymod_exec_arrow_mouse+0x5b6>
    715c:	4c 89 ff             	mov    %r15,%rdi
    715f:	4c 89 4c 24 08       	mov    %r9,0x8(%rsp)
    7164:	e8 f6 36 00 00       	callq  a85f <_Py_XDECREF>
    7169:	4c 89 e7             	mov    %r12,%rdi
    716c:	e8 fe 35 00 00       	callq  a76f <_Py_DECREF.isra.0>
    7171:	4c 8b 4c 24 08       	mov    0x8(%rsp),%r9
    7176:	4c 89 cf             	mov    %r9,%rdi
    7179:	e9 98 00 00 00       	jmpq   7216 <__pyx_pymod_exec_arrow_mouse+0x2085>
    717e:	48 89 d7             	mov    %rdx,%rdi
    7181:	4c 89 4c 24 08       	mov    %r9,0x8(%rsp)
    7186:	e8 b5 d9 ff ff       	callq  4b40 <PyTuple_New@plt>
    718b:	4c 8b 4c 24 08       	mov    0x8(%rsp),%r9
    7190:	48 85 c0             	test   %rax,%rax
    7193:	48 89 c3             	mov    %rax,%rbx
    7196:	0f 84 8b 1f 00 00    	je     9127 <__pyx_pymod_exec_arrow_mouse+0x3f96>
    719c:	48 8b 40 08          	mov    0x8(%rax),%rax
    71a0:	48 8b 80 a8 00 00 00 	mov    0xa8(%rax),%rax
    71a7:	25 00 00 00 04       	and    $0x4000000,%eax
    71ac:	4d 85 ff             	test   %r15,%r15
    71af:	74 19                	je     71ca <__pyx_pymod_exec_arrow_mouse+0x2039>
    71b1:	48 85 c0             	test   %rax,%rax
    71b4:	75 0e                	jne    71c4 <__pyx_pymod_exec_arrow_mouse+0x2033>
    71b6:	48 8d 0d 13 6c 00 00 	lea    0x6c13(%rip),%rcx        # ddd0 <__PRETTY_FUNCTION__.16078>
    71bd:	ba b9 0d 00 00       	mov    $0xdb9,%edx
    71c2:	eb 17                	jmp    71db <__pyx_pymod_exec_arrow_mouse+0x204a>
    71c4:	4c 89 7b 18          	mov    %r15,0x18(%rbx)
    71c8:	eb 24                	jmp    71ee <__pyx_pymod_exec_arrow_mouse+0x205d>
    71ca:	48 85 c0             	test   %rax,%rax
    71cd:	75 1f                	jne    71ee <__pyx_pymod_exec_arrow_mouse+0x205d>
    71cf:	48 8d 0d fa 6b 00 00 	lea    0x6bfa(%rip),%rcx        # ddd0 <__PRETTY_FUNCTION__.16078>
    71d6:	ba bc 0d 00 00       	mov    $0xdbc,%edx
    71db:	48 8d 35 22 5e 00 00 	lea    0x5e22(%rip),%rsi        # d004 <_IO_stdin_used+0x4>
    71e2:	48 8d 3d e5 67 00 00 	lea    0x67e5(%rip),%rdi        # d9ce <_IO_stdin_used+0x9ce>
    71e9:	e9 c3 ee ff ff       	jmpq   60b1 <__pyx_pymod_exec_arrow_mouse+0xf20>
    71ee:	48 8d 04 eb          	lea    (%rbx,%rbp,8),%rax
    71f2:	31 d2                	xor    %edx,%edx
    71f4:	48 89 de             	mov    %rbx,%rsi
    71f7:	4c 89 ef             	mov    %r13,%rdi
    71fa:	4c 89 60 18          	mov    %r12,0x18(%rax)
    71fe:	4c 89 48 20          	mov    %r9,0x20(%rax)
    7202:	e8 d6 30 00 00       	callq  a2dd <__Pyx_PyObject_Call>
    7207:	48 89 c5             	mov    %rax,%rbp
    720a:	48 85 c0             	test   %rax,%rax
    720d:	0f 84 29 1f 00 00    	je     913c <__pyx_pymod_exec_arrow_mouse+0x3fab>
    7213:	48 89 df             	mov    %rbx,%rdi
    7216:	e8 54 35 00 00       	callq  a76f <_Py_DECREF.isra.0>
    721b:	4c 89 ef             	mov    %r13,%rdi
    721e:	e8 4c 35 00 00       	callq  a76f <_Py_DECREF.isra.0>
    7223:	48 8b 35 66 cc 00 00 	mov    0xcc66(%rip),%rsi        # 13e90 <__pyx_n_s_speed>
    722a:	48 8b 3d 6f ce 00 00 	mov    0xce6f(%rip),%rdi        # 140a0 <__pyx_d>
    7231:	48 89 ea             	mov    %rbp,%rdx
    7234:	e8 17 da ff ff       	callq  4c50 <PyDict_SetItem@plt>
    7239:	85 c0                	test   %eax,%eax
    723b:	0f 88 14 1f 00 00    	js     9155 <__pyx_pymod_exec_arrow_mouse+0x3fc4>
    7241:	48 89 ef             	mov    %rbp,%rdi
    7244:	e8 26 35 00 00       	callq  a76f <_Py_DECREF.isra.0>
    7249:	eb 3d                	jmp    7288 <__pyx_pymod_exec_arrow_mouse+0x20f7>
    724b:	48 8b 15 be cb 00 00 	mov    0xcbbe(%rip),%rdx        # 13e10 <__pyx_int_1>
    7252:	48 8b 35 37 cc 00 00 	mov    0xcc37(%rip),%rsi        # 13e90 <__pyx_n_s_speed>
    7259:	e8 f2 d9 ff ff       	callq  4c50 <PyDict_SetItem@plt>
    725e:	85 c0                	test   %eax,%eax
    7260:	0f 88 0a 1f 00 00    	js     9170 <__pyx_pymod_exec_arrow_mouse+0x3fdf>
    7266:	48 8b 15 a3 cb 00 00 	mov    0xcba3(%rip),%rdx        # 13e10 <__pyx_int_1>
    726d:	48 8b 35 fc cb 00 00 	mov    0xcbfc(%rip),%rsi        # 13e70 <__pyx_n_s_t>
    7274:	48 8b 3d 25 ce 00 00 	mov    0xce25(%rip),%rdi        # 140a0 <__pyx_d>
    727b:	e8 d0 d9 ff ff       	callq  4c50 <PyDict_SetItem@plt>
    7280:	85 c0                	test   %eax,%eax
    7282:	0f 88 05 1f 00 00    	js     918d <__pyx_pymod_exec_arrow_mouse+0x3ffc>
    7288:	48 8b 05 11 ce 00 00 	mov    0xce11(%rip),%rax        # 140a0 <__pyx_d>
    728f:	48 8b 0d 1a ca 00 00 	mov    0xca1a(%rip),%rcx        # 13cb0 <__pyx_dict_version.16097>
    7296:	48 39 48 18          	cmp    %rcx,0x18(%rax)
    729a:	75 20                	jne    72bc <__pyx_pymod_exec_arrow_mouse+0x212b>
    729c:	48 8b 2d 05 ca 00 00 	mov    0xca05(%rip),%rbp        # 13ca8 <__pyx_dict_cached_value.16098>
    72a3:	48 85 ed             	test   %rbp,%rbp
    72a6:	74 06                	je     72ae <__pyx_pymod_exec_arrow_mouse+0x211d>
    72a8:	48 ff 45 00          	incq   0x0(%rbp)
    72ac:	eb 34                	jmp    72e2 <__pyx_pymod_exec_arrow_mouse+0x2151>
    72ae:	48 8b 3d 3b cc 00 00 	mov    0xcc3b(%rip),%rdi        # 13ef0 <__pyx_n_s_o_x>
    72b5:	e8 0d 34 00 00       	callq  a6c7 <__Pyx_GetBuiltinName>
    72ba:	eb 1a                	jmp    72d6 <__pyx_pymod_exec_arrow_mouse+0x2145>
    72bc:	48 8b 3d 2d cc 00 00 	mov    0xcc2d(%rip),%rdi        # 13ef0 <__pyx_n_s_o_x>
    72c3:	48 8d 15 de c9 00 00 	lea    0xc9de(%rip),%rdx        # 13ca8 <__pyx_dict_cached_value.16098>
    72ca:	48 8d 35 df c9 00 00 	lea    0xc9df(%rip),%rsi        # 13cb0 <__pyx_dict_version.16097>
    72d1:	e8 31 34 00 00       	callq  a707 <__Pyx__GetModuleGlobalName>
    72d6:	48 89 c5             	mov    %rax,%rbp
    72d9:	48 85 c0             	test   %rax,%rax
    72dc:	0f 84 c8 1e 00 00    	je     91aa <__pyx_pymod_exec_arrow_mouse+0x4019>
    72e2:	48 8b 35 47 cb 00 00 	mov    0xcb47(%rip),%rsi        # 13e30 <__pyx_n_s_x>
    72e9:	48 8b 3d b0 cd 00 00 	mov    0xcdb0(%rip),%rdi        # 140a0 <__pyx_d>
    72f0:	48 89 ea             	mov    %rbp,%rdx
    72f3:	e8 58 d9 ff ff       	callq  4c50 <PyDict_SetItem@plt>
    72f8:	85 c0                	test   %eax,%eax
    72fa:	0f 88 c8 1e 00 00    	js     91c8 <__pyx_pymod_exec_arrow_mouse+0x4037>
    7300:	48 89 ef             	mov    %rbp,%rdi
    7303:	e8 67 34 00 00       	callq  a76f <_Py_DECREF.isra.0>
    7308:	48 8b 05 91 cd 00 00 	mov    0xcd91(%rip),%rax        # 140a0 <__pyx_d>
    730f:	48 8b 0d 8a c9 00 00 	mov    0xc98a(%rip),%rcx        # 13ca0 <__pyx_dict_version.16099>
    7316:	48 39 48 18          	cmp    %rcx,0x18(%rax)
    731a:	75 20                	jne    733c <__pyx_pymod_exec_arrow_mouse+0x21ab>
    731c:	48 8b 2d 75 c9 00 00 	mov    0xc975(%rip),%rbp        # 13c98 <__pyx_dict_cached_value.16100>
    7323:	48 85 ed             	test   %rbp,%rbp
    7326:	74 06                	je     732e <__pyx_pymod_exec_arrow_mouse+0x219d>
    7328:	48 ff 45 00          	incq   0x0(%rbp)
    732c:	eb 34                	jmp    7362 <__pyx_pymod_exec_arrow_mouse+0x21d1>
    732e:	48 8b 3d b3 cb 00 00 	mov    0xcbb3(%rip),%rdi        # 13ee8 <__pyx_n_s_o_y>
    7335:	e8 8d 33 00 00       	callq  a6c7 <__Pyx_GetBuiltinName>
    733a:	eb 1a                	jmp    7356 <__pyx_pymod_exec_arrow_mouse+0x21c5>
    733c:	48 8b 3d a5 cb 00 00 	mov    0xcba5(%rip),%rdi        # 13ee8 <__pyx_n_s_o_y>
    7343:	48 8d 15 4e c9 00 00 	lea    0xc94e(%rip),%rdx        # 13c98 <__pyx_dict_cached_value.16100>
    734a:	48 8d 35 4f c9 00 00 	lea    0xc94f(%rip),%rsi        # 13ca0 <__pyx_dict_version.16099>
    7351:	e8 b1 33 00 00       	callq  a707 <__Pyx__GetModuleGlobalName>
    7356:	48 89 c5             	mov    %rax,%rbp
    7359:	48 85 c0             	test   %rax,%rax
    735c:	0f 84 81 1e 00 00    	je     91e3 <__pyx_pymod_exec_arrow_mouse+0x4052>
    7362:	48 8b 35 bf ca 00 00 	mov    0xcabf(%rip),%rsi        # 13e28 <__pyx_n_s_y>
    7369:	48 8b 3d 30 cd 00 00 	mov    0xcd30(%rip),%rdi        # 140a0 <__pyx_d>
    7370:	48 89 ea             	mov    %rbp,%rdx
    7373:	e8 d8 d8 ff ff       	callq  4c50 <PyDict_SetItem@plt>
    7378:	85 c0                	test   %eax,%eax
    737a:	0f 88 81 1e 00 00    	js     9201 <__pyx_pymod_exec_arrow_mouse+0x4070>
    7380:	48 89 ef             	mov    %rbp,%rdi
    7383:	e8 e7 33 00 00       	callq  a76f <_Py_DECREF.isra.0>
    7388:	48 8b 35 71 cb 00 00 	mov    0xcb71(%rip),%rsi        # 13f00 <__pyx_n_s_move_mouse>
    738f:	48 8b 3d 0a cd 00 00 	mov    0xcd0a(%rip),%rdi        # 140a0 <__pyx_d>
    7396:	48 8d 15 03 b9 00 00 	lea    0xb903(%rip),%rdx        # 12ca0 <_Py_FalseStruct>
    739d:	e8 ae d8 ff ff       	callq  4c50 <PyDict_SetItem@plt>
    73a2:	85 c0                	test   %eax,%eax
    73a4:	0f 88 72 1e 00 00    	js     921c <__pyx_pymod_exec_arrow_mouse+0x408b>
    73aa:	48 8b 05 ef cc 00 00 	mov    0xccef(%rip),%rax        # 140a0 <__pyx_d>
    73b1:	48 8b 0d d8 c8 00 00 	mov    0xc8d8(%rip),%rcx        # 13c90 <__pyx_dict_version.16101>
    73b8:	48 39 48 18          	cmp    %rcx,0x18(%rax)
    73bc:	75 20                	jne    73de <__pyx_pymod_exec_arrow_mouse+0x224d>
    73be:	48 8b 2d c3 c8 00 00 	mov    0xc8c3(%rip),%rbp        # 13c88 <__pyx_dict_cached_value.16102>
    73c5:	48 85 ed             	test   %rbp,%rbp
    73c8:	74 06                	je     73d0 <__pyx_pymod_exec_arrow_mouse+0x223f>
    73ca:	48 ff 45 00          	incq   0x0(%rbp)
    73ce:	eb 34                	jmp    7404 <__pyx_pymod_exec_arrow_mouse+0x2273>
    73d0:	48 8b 3d 89 cb 00 00 	mov    0xcb89(%rip),%rdi        # 13f60 <__pyx_n_s_keyboard>
    73d7:	e8 eb 32 00 00       	callq  a6c7 <__Pyx_GetBuiltinName>
    73dc:	eb 1a                	jmp    73f8 <__pyx_pymod_exec_arrow_mouse+0x2267>
    73de:	48 8b 3d 7b cb 00 00 	mov    0xcb7b(%rip),%rdi        # 13f60 <__pyx_n_s_keyboard>
    73e5:	48 8d 15 9c c8 00 00 	lea    0xc89c(%rip),%rdx        # 13c88 <__pyx_dict_cached_value.16102>
    73ec:	48 8d 35 9d c8 00 00 	lea    0xc89d(%rip),%rsi        # 13c90 <__pyx_dict_version.16101>
    73f3:	e8 0f 33 00 00       	callq  a707 <__Pyx__GetModuleGlobalName>
    73f8:	48 89 c5             	mov    %rax,%rbp
    73fb:	48 85 c0             	test   %rax,%rax
    73fe:	0f 84 35 1e 00 00    	je     9239 <__pyx_pymod_exec_arrow_mouse+0x40a8>
    7404:	48 8b 35 6d cb 00 00 	mov    0xcb6d(%rip),%rsi        # 13f78 <__pyx_n_s_is_pressed>
    740b:	48 89 ef             	mov    %rbp,%rdi
    740e:	e8 02 2e 00 00       	callq  a215 <__Pyx_PyObject_GetAttrStr>
    7413:	49 89 c4             	mov    %rax,%r12
    7416:	48 85 c0             	test   %rax,%rax
    7419:	0f 84 38 1e 00 00    	je     9257 <__pyx_pymod_exec_arrow_mouse+0x40c6>
    741f:	48 89 ef             	mov    %rbp,%rdi
    7422:	e8 48 33 00 00       	callq  a76f <_Py_DECREF.isra.0>
    7427:	48 8d 05 d2 bd 00 00 	lea    0xbdd2(%rip),%rax        # 13200 <PyMethod_Type>
    742e:	49 39 44 24 08       	cmp    %rax,0x8(%r12)
    7433:	75 35                	jne    746a <__pyx_pymod_exec_arrow_mouse+0x22d9>
    7435:	4d 8b 6c 24 18       	mov    0x18(%r12),%r13
    743a:	4d 85 ed             	test   %r13,%r13
    743d:	74 2b                	je     746a <__pyx_pymod_exec_arrow_mouse+0x22d9>
    743f:	49 8b 5c 24 10       	mov    0x10(%r12),%rbx
    7444:	49 ff 45 00          	incq   0x0(%r13)
    7448:	4c 89 e7             	mov    %r12,%rdi
    744b:	48 ff 03             	incq   (%rbx)
    744e:	e8 1c 33 00 00       	callq  a76f <_Py_DECREF.isra.0>
    7453:	48 8b 15 36 cb 00 00 	mov    0xcb36(%rip),%rdx        # 13f90 <__pyx_n_s_i>
    745a:	4c 89 ee             	mov    %r13,%rsi
    745d:	48 89 df             	mov    %rbx,%rdi
    7460:	e8 95 3f 00 00       	callq  b3fa <__Pyx_PyObject_Call2Args>
    7465:	48 89 c5             	mov    %rax,%rbp
    7468:	eb 18                	jmp    7482 <__pyx_pymod_exec_arrow_mouse+0x22f1>
    746a:	48 8b 35 1f cb 00 00 	mov    0xcb1f(%rip),%rsi        # 13f90 <__pyx_n_s_i>
    7471:	4c 89 e7             	mov    %r12,%rdi
    7474:	4c 89 e3             	mov    %r12,%rbx
    7477:	45 31 ed             	xor    %r13d,%r13d
    747a:	e8 b5 40 00 00       	callq  b534 <__Pyx_PyObject_CallOneArg>
    747f:	48 89 c5             	mov    %rax,%rbp
    7482:	4c 89 ef             	mov    %r13,%rdi
    7485:	e8 d5 33 00 00       	callq  a85f <_Py_XDECREF>
    748a:	48 85 ed             	test   %rbp,%rbp
    748d:	0f 84 e1 1d 00 00    	je     9274 <__pyx_pymod_exec_arrow_mouse+0x40e3>
    7493:	48 89 df             	mov    %rbx,%rdi
    7496:	e8 d4 32 00 00       	callq  a76f <_Py_DECREF.isra.0>
    749b:	48 89 ef             	mov    %rbp,%rdi
    749e:	e8 03 2f 00 00       	callq  a3a6 <__Pyx_PyObject_IsTrue>
    74a3:	41 89 c4             	mov    %eax,%r12d
    74a6:	85 c0                	test   %eax,%eax
    74a8:	0f 88 e2 1d 00 00    	js     9290 <__pyx_pymod_exec_arrow_mouse+0x40ff>
    74ae:	48 89 ef             	mov    %rbp,%rdi
    74b1:	e8 b9 32 00 00       	callq  a76f <_Py_DECREF.isra.0>
    74b6:	45 85 e4             	test   %r12d,%r12d
    74b9:	0f 84 01 01 00 00    	je     75c0 <__pyx_pymod_exec_arrow_mouse+0x242f>
    74bf:	48 8b 05 da cb 00 00 	mov    0xcbda(%rip),%rax        # 140a0 <__pyx_d>
    74c6:	48 8b 0d b3 c7 00 00 	mov    0xc7b3(%rip),%rcx        # 13c80 <__pyx_dict_version.16105>
    74cd:	48 39 48 18          	cmp    %rcx,0x18(%rax)
    74d1:	75 20                	jne    74f3 <__pyx_pymod_exec_arrow_mouse+0x2362>
    74d3:	48 8b 2d 9e c7 00 00 	mov    0xc79e(%rip),%rbp        # 13c78 <__pyx_dict_cached_value.16106>
    74da:	48 85 ed             	test   %rbp,%rbp
    74dd:	74 06                	je     74e5 <__pyx_pymod_exec_arrow_mouse+0x2354>
    74df:	48 ff 45 00          	incq   0x0(%rbp)
    74e3:	eb 34                	jmp    7519 <__pyx_pymod_exec_arrow_mouse+0x2388>
    74e5:	48 8b 3d fc c9 00 00 	mov    0xc9fc(%rip),%rdi        # 13ee8 <__pyx_n_s_o_y>
    74ec:	e8 d6 31 00 00       	callq  a6c7 <__Pyx_GetBuiltinName>
    74f1:	eb 1a                	jmp    750d <__pyx_pymod_exec_arrow_mouse+0x237c>
    74f3:	48 8b 3d ee c9 00 00 	mov    0xc9ee(%rip),%rdi        # 13ee8 <__pyx_n_s_o_y>
    74fa:	48 8d 15 77 c7 00 00 	lea    0xc777(%rip),%rdx        # 13c78 <__pyx_dict_cached_value.16106>
    7501:	48 8d 35 78 c7 00 00 	lea    0xc778(%rip),%rsi        # 13c80 <__pyx_dict_version.16105>
    7508:	e8 fa 31 00 00       	callq  a707 <__Pyx__GetModuleGlobalName>
    750d:	48 89 c5             	mov    %rax,%rbp
    7510:	48 85 c0             	test   %rax,%rax
    7513:	0f 84 92 1d 00 00    	je     92ab <__pyx_pymod_exec_arrow_mouse+0x411a>
    7519:	48 8b 05 80 cb 00 00 	mov    0xcb80(%rip),%rax        # 140a0 <__pyx_d>
    7520:	48 8b 0d 49 c7 00 00 	mov    0xc749(%rip),%rcx        # 13c70 <__pyx_dict_version.16107>
    7527:	48 39 48 18          	cmp    %rcx,0x18(%rax)
    752b:	75 20                	jne    754d <__pyx_pymod_exec_arrow_mouse+0x23bc>
    752d:	4c 8b 25 34 c7 00 00 	mov    0xc734(%rip),%r12        # 13c68 <__pyx_dict_cached_value.16108>
    7534:	4d 85 e4             	test   %r12,%r12
    7537:	74 06                	je     753f <__pyx_pymod_exec_arrow_mouse+0x23ae>
    7539:	49 ff 04 24          	incq   (%r12)
    753d:	eb 34                	jmp    7573 <__pyx_pymod_exec_arrow_mouse+0x23e2>
    753f:	48 8b 3d 4a c9 00 00 	mov    0xc94a(%rip),%rdi        # 13e90 <__pyx_n_s_speed>
    7546:	e8 7c 31 00 00       	callq  a6c7 <__Pyx_GetBuiltinName>
    754b:	eb 1a                	jmp    7567 <__pyx_pymod_exec_arrow_mouse+0x23d6>
    754d:	48 8b 3d 3c c9 00 00 	mov    0xc93c(%rip),%rdi        # 13e90 <__pyx_n_s_speed>
    7554:	48 8d 15 0d c7 00 00 	lea    0xc70d(%rip),%rdx        # 13c68 <__pyx_dict_cached_value.16108>
    755b:	48 8d 35 0e c7 00 00 	lea    0xc70e(%rip),%rsi        # 13c70 <__pyx_dict_version.16107>
    7562:	e8 a0 31 00 00       	callq  a707 <__Pyx__GetModuleGlobalName>
    7567:	49 89 c4             	mov    %rax,%r12
    756a:	48 85 c0             	test   %rax,%rax
    756d:	0f 84 56 1d 00 00    	je     92c9 <__pyx_pymod_exec_arrow_mouse+0x4138>
    7573:	4c 89 e6             	mov    %r12,%rsi
    7576:	48 89 ef             	mov    %rbp,%rdi
    7579:	e8 92 d4 ff ff       	callq  4a10 <PyNumber_Subtract@plt>
    757e:	49 89 c5             	mov    %rax,%r13
    7581:	48 85 c0             	test   %rax,%rax
    7584:	0f 84 5a 1d 00 00    	je     92e4 <__pyx_pymod_exec_arrow_mouse+0x4153>
    758a:	48 89 ef             	mov    %rbp,%rdi
    758d:	e8 dd 31 00 00       	callq  a76f <_Py_DECREF.isra.0>
    7592:	4c 89 e7             	mov    %r12,%rdi
    7595:	e8 d5 31 00 00       	callq  a76f <_Py_DECREF.isra.0>
    759a:	48 8b 35 87 c8 00 00 	mov    0xc887(%rip),%rsi        # 13e28 <__pyx_n_s_y>
    75a1:	48 8b 3d f8 ca 00 00 	mov    0xcaf8(%rip),%rdi        # 140a0 <__pyx_d>
    75a8:	4c 89 ea             	mov    %r13,%rdx
    75ab:	e8 a0 d6 ff ff       	callq  4c50 <PyDict_SetItem@plt>
    75b0:	85 c0                	test   %eax,%eax
    75b2:	0f 88 48 1d 00 00    	js     9300 <__pyx_pymod_exec_arrow_mouse+0x416f>
    75b8:	4c 89 ef             	mov    %r13,%rdi
    75bb:	e8 af 31 00 00       	callq  a76f <_Py_DECREF.isra.0>
    75c0:	48 8b 05 d9 ca 00 00 	mov    0xcad9(%rip),%rax        # 140a0 <__pyx_d>
    75c7:	48 8b 0d 92 c6 00 00 	mov    0xc692(%rip),%rcx        # 13c60 <__pyx_dict_version.16109>
    75ce:	48 39 48 18          	cmp    %rcx,0x18(%rax)
    75d2:	75 20                	jne    75f4 <__pyx_pymod_exec_arrow_mouse+0x2463>
    75d4:	48 8b 2d 7d c6 00 00 	mov    0xc67d(%rip),%rbp        # 13c58 <__pyx_dict_cached_value.16110>
    75db:	48 85 ed             	test   %rbp,%rbp
    75de:	74 06                	je     75e6 <__pyx_pymod_exec_arrow_mouse+0x2455>
    75e0:	48 ff 45 00          	incq   0x0(%rbp)
    75e4:	eb 34                	jmp    761a <__pyx_pymod_exec_arrow_mouse+0x2489>
    75e6:	48 8b 3d 73 c9 00 00 	mov    0xc973(%rip),%rdi        # 13f60 <__pyx_n_s_keyboard>
    75ed:	e8 d5 30 00 00       	callq  a6c7 <__Pyx_GetBuiltinName>
    75f2:	eb 1a                	jmp    760e <__pyx_pymod_exec_arrow_mouse+0x247d>
    75f4:	48 8b 3d 65 c9 00 00 	mov    0xc965(%rip),%rdi        # 13f60 <__pyx_n_s_keyboard>
    75fb:	48 8d 15 56 c6 00 00 	lea    0xc656(%rip),%rdx        # 13c58 <__pyx_dict_cached_value.16110>
    7602:	48 8d 35 57 c6 00 00 	lea    0xc657(%rip),%rsi        # 13c60 <__pyx_dict_version.16109>
    7609:	e8 f9 30 00 00       	callq  a707 <__Pyx__GetModuleGlobalName>
    760e:	48 89 c5             	mov    %rax,%rbp
    7611:	48 85 c0             	test   %rax,%rax
    7614:	0f 84 00 1d 00 00    	je     931a <__pyx_pymod_exec_arrow_mouse+0x4189>
    761a:	48 8b 35 57 c9 00 00 	mov    0xc957(%rip),%rsi        # 13f78 <__pyx_n_s_is_pressed>
    7621:	48 89 ef             	mov    %rbp,%rdi
    7624:	e8 ec 2b 00 00       	callq  a215 <__Pyx_PyObject_GetAttrStr>
    7629:	49 89 c4             	mov    %rax,%r12
    762c:	48 85 c0             	test   %rax,%rax
    762f:	0f 84 03 1d 00 00    	je     9338 <__pyx_pymod_exec_arrow_mouse+0x41a7>
    7635:	48 89 ef             	mov    %rbp,%rdi
    7638:	e8 32 31 00 00       	callq  a76f <_Py_DECREF.isra.0>
    763d:	48 8d 05 bc bb 00 00 	lea    0xbbbc(%rip),%rax        # 13200 <PyMethod_Type>
    7644:	49 39 44 24 08       	cmp    %rax,0x8(%r12)
    7649:	75 35                	jne    7680 <__pyx_pymod_exec_arrow_mouse+0x24ef>
    764b:	4d 8b 7c 24 18       	mov    0x18(%r12),%r15
    7650:	4d 85 ff             	test   %r15,%r15
    7653:	74 2b                	je     7680 <__pyx_pymod_exec_arrow_mouse+0x24ef>
    7655:	49 8b 6c 24 10       	mov    0x10(%r12),%rbp
    765a:	49 ff 07             	incq   (%r15)
    765d:	4c 89 e7             	mov    %r12,%rdi
    7660:	48 ff 45 00          	incq   0x0(%rbp)
    7664:	e8 06 31 00 00       	callq  a76f <_Py_DECREF.isra.0>
    7669:	48 8b 15 f8 c8 00 00 	mov    0xc8f8(%rip),%rdx        # 13f68 <__pyx_n_s_k>
    7670:	4c 89 fe             	mov    %r15,%rsi
    7673:	48 89 ef             	mov    %rbp,%rdi
    7676:	e8 7f 3d 00 00       	callq  b3fa <__Pyx_PyObject_Call2Args>
    767b:	49 89 c5             	mov    %rax,%r13
    767e:	eb 18                	jmp    7698 <__pyx_pymod_exec_arrow_mouse+0x2507>
    7680:	48 8b 35 e1 c8 00 00 	mov    0xc8e1(%rip),%rsi        # 13f68 <__pyx_n_s_k>
    7687:	4c 89 e7             	mov    %r12,%rdi
    768a:	45 31 ff             	xor    %r15d,%r15d
    768d:	4c 89 e5             	mov    %r12,%rbp
    7690:	e8 9f 3e 00 00       	callq  b534 <__Pyx_PyObject_CallOneArg>
    7695:	49 89 c5             	mov    %rax,%r13
    7698:	4c 89 ff             	mov    %r15,%rdi
    769b:	e8 bf 31 00 00       	callq  a85f <_Py_XDECREF>
    76a0:	4d 85 ed             	test   %r13,%r13
    76a3:	0f 84 ad 1c 00 00    	je     9356 <__pyx_pymod_exec_arrow_mouse+0x41c5>
    76a9:	48 89 ef             	mov    %rbp,%rdi
    76ac:	e8 be 30 00 00       	callq  a76f <_Py_DECREF.isra.0>
    76b1:	4c 89 ef             	mov    %r13,%rdi
    76b4:	e8 ed 2c 00 00       	callq  a3a6 <__Pyx_PyObject_IsTrue>
    76b9:	89 c5                	mov    %eax,%ebp
    76bb:	85 c0                	test   %eax,%eax
    76bd:	0f 88 ae 1c 00 00    	js     9371 <__pyx_pymod_exec_arrow_mouse+0x41e0>
    76c3:	4c 89 ef             	mov    %r13,%rdi
    76c6:	e8 a4 30 00 00       	callq  a76f <_Py_DECREF.isra.0>
    76cb:	85 ed                	test   %ebp,%ebp
    76cd:	0f 84 04 01 00 00    	je     77d7 <__pyx_pymod_exec_arrow_mouse+0x2646>
    76d3:	48 8b 05 c6 c9 00 00 	mov    0xc9c6(%rip),%rax        # 140a0 <__pyx_d>
    76da:	48 8b 0d 6f c5 00 00 	mov    0xc56f(%rip),%rcx        # 13c50 <__pyx_dict_version.16113>
    76e1:	48 39 48 18          	cmp    %rcx,0x18(%rax)
    76e5:	75 20                	jne    7707 <__pyx_pymod_exec_arrow_mouse+0x2576>
    76e7:	4c 8b 2d 5a c5 00 00 	mov    0xc55a(%rip),%r13        # 13c48 <__pyx_dict_cached_value.16114>
    76ee:	4d 85 ed             	test   %r13,%r13
    76f1:	74 06                	je     76f9 <__pyx_pymod_exec_arrow_mouse+0x2568>
    76f3:	49 ff 45 00          	incq   0x0(%r13)
    76f7:	eb 37                	jmp    7730 <__pyx_pymod_exec_arrow_mouse+0x259f>
    76f9:	48 8b 3d e8 c7 00 00 	mov    0xc7e8(%rip),%rdi        # 13ee8 <__pyx_n_s_o_y>
    7700:	e8 c2 2f 00 00       	callq  a6c7 <__Pyx_GetBuiltinName>
    7705:	eb 1a                	jmp    7721 <__pyx_pymod_exec_arrow_mouse+0x2590>
    7707:	48 8b 3d da c7 00 00 	mov    0xc7da(%rip),%rdi        # 13ee8 <__pyx_n_s_o_y>
    770e:	48 8d 15 33 c5 00 00 	lea    0xc533(%rip),%rdx        # 13c48 <__pyx_dict_cached_value.16114>
    7715:	48 8d 35 34 c5 00 00 	lea    0xc534(%rip),%rsi        # 13c50 <__pyx_dict_version.16113>
    771c:	e8 e6 2f 00 00       	callq  a707 <__Pyx__GetModuleGlobalName>
    7721:	48 89 c5             	mov    %rax,%rbp
    7724:	48 85 c0             	test   %rax,%rax
    7727:	0f 84 5e 1c 00 00    	je     938b <__pyx_pymod_exec_arrow_mouse+0x41fa>
    772d:	49 89 c5             	mov    %rax,%r13
    7730:	48 8b 05 69 c9 00 00 	mov    0xc969(%rip),%rax        # 140a0 <__pyx_d>
    7737:	48 8b 0d 02 c5 00 00 	mov    0xc502(%rip),%rcx        # 13c40 <__pyx_dict_version.16115>
    773e:	48 39 48 18          	cmp    %rcx,0x18(%rax)
    7742:	75 20                	jne    7764 <__pyx_pymod_exec_arrow_mouse+0x25d3>
    7744:	48 8b 2d ed c4 00 00 	mov    0xc4ed(%rip),%rbp        # 13c38 <__pyx_dict_cached_value.16116>
    774b:	48 85 ed             	test   %rbp,%rbp
    774e:	74 06                	je     7756 <__pyx_pymod_exec_arrow_mouse+0x25c5>
    7750:	48 ff 45 00          	incq   0x0(%rbp)
    7754:	eb 34                	jmp    778a <__pyx_pymod_exec_arrow_mouse+0x25f9>
    7756:	48 8b 3d 33 c7 00 00 	mov    0xc733(%rip),%rdi        # 13e90 <__pyx_n_s_speed>
    775d:	e8 65 2f 00 00       	callq  a6c7 <__Pyx_GetBuiltinName>
    7762:	eb 1a                	jmp    777e <__pyx_pymod_exec_arrow_mouse+0x25ed>
    7764:	48 8b 3d 25 c7 00 00 	mov    0xc725(%rip),%rdi        # 13e90 <__pyx_n_s_speed>
    776b:	48 8d 15 c6 c4 00 00 	lea    0xc4c6(%rip),%rdx        # 13c38 <__pyx_dict_cached_value.16116>
    7772:	48 8d 35 c7 c4 00 00 	lea    0xc4c7(%rip),%rsi        # 13c40 <__pyx_dict_version.16115>
    7779:	e8 89 2f 00 00       	callq  a707 <__Pyx__GetModuleGlobalName>
    777e:	48 89 c5             	mov    %rax,%rbp
    7781:	48 85 c0             	test   %rax,%rax
    7784:	0f 84 1f 1c 00 00    	je     93a9 <__pyx_pymod_exec_arrow_mouse+0x4218>
    778a:	48 89 ee             	mov    %rbp,%rsi
    778d:	4c 89 ef             	mov    %r13,%rdi
    7790:	e8 bb ce ff ff       	callq  4650 <PyNumber_Add@plt>
    7795:	48 89 c3             	mov    %rax,%rbx
    7798:	48 85 c0             	test   %rax,%rax
    779b:	0f 84 23 1c 00 00    	je     93c4 <__pyx_pymod_exec_arrow_mouse+0x4233>
    77a1:	4c 89 ef             	mov    %r13,%rdi
    77a4:	e8 c6 2f 00 00       	callq  a76f <_Py_DECREF.isra.0>
    77a9:	48 89 ef             	mov    %rbp,%rdi
    77ac:	e8 be 2f 00 00       	callq  a76f <_Py_DECREF.isra.0>
    77b1:	48 8b 35 70 c6 00 00 	mov    0xc670(%rip),%rsi        # 13e28 <__pyx_n_s_y>
    77b8:	48 8b 3d e1 c8 00 00 	mov    0xc8e1(%rip),%rdi        # 140a0 <__pyx_d>
    77bf:	48 89 da             	mov    %rbx,%rdx
    77c2:	e8 89 d4 ff ff       	callq  4c50 <PyDict_SetItem@plt>
    77c7:	85 c0                	test   %eax,%eax
    77c9:	0f 88 0e 1c 00 00    	js     93dd <__pyx_pymod_exec_arrow_mouse+0x424c>
    77cf:	48 89 df             	mov    %rbx,%rdi
    77d2:	e8 98 2f 00 00       	callq  a76f <_Py_DECREF.isra.0>
    77d7:	48 8b 05 c2 c8 00 00 	mov    0xc8c2(%rip),%rax        # 140a0 <__pyx_d>
    77de:	48 8b 0d 4b c4 00 00 	mov    0xc44b(%rip),%rcx        # 13c30 <__pyx_dict_version.16117>
    77e5:	48 39 48 18          	cmp    %rcx,0x18(%rax)
    77e9:	75 20                	jne    780b <__pyx_pymod_exec_arrow_mouse+0x267a>
    77eb:	48 8b 2d 36 c4 00 00 	mov    0xc436(%rip),%rbp        # 13c28 <__pyx_dict_cached_value.16118>
    77f2:	48 85 ed             	test   %rbp,%rbp
    77f5:	74 06                	je     77fd <__pyx_pymod_exec_arrow_mouse+0x266c>
    77f7:	48 ff 45 00          	incq   0x0(%rbp)
    77fb:	eb 34                	jmp    7831 <__pyx_pymod_exec_arrow_mouse+0x26a0>
    77fd:	48 8b 3d 5c c7 00 00 	mov    0xc75c(%rip),%rdi        # 13f60 <__pyx_n_s_keyboard>
    7804:	e8 be 2e 00 00       	callq  a6c7 <__Pyx_GetBuiltinName>
    7809:	eb 1a                	jmp    7825 <__pyx_pymod_exec_arrow_mouse+0x2694>
    780b:	48 8b 3d 4e c7 00 00 	mov    0xc74e(%rip),%rdi        # 13f60 <__pyx_n_s_keyboard>
    7812:	48 8d 15 0f c4 00 00 	lea    0xc40f(%rip),%rdx        # 13c28 <__pyx_dict_cached_value.16118>
    7819:	48 8d 35 10 c4 00 00 	lea    0xc410(%rip),%rsi        # 13c30 <__pyx_dict_version.16117>
    7820:	e8 e2 2e 00 00       	callq  a707 <__Pyx__GetModuleGlobalName>
    7825:	48 89 c5             	mov    %rax,%rbp
    7828:	48 85 c0             	test   %rax,%rax
    782b:	0f 84 c7 1b 00 00    	je     93f8 <__pyx_pymod_exec_arrow_mouse+0x4267>
    7831:	48 8b 35 40 c7 00 00 	mov    0xc740(%rip),%rsi        # 13f78 <__pyx_n_s_is_pressed>
    7838:	48 89 ef             	mov    %rbp,%rdi
    783b:	e8 d5 29 00 00       	callq  a215 <__Pyx_PyObject_GetAttrStr>
    7840:	49 89 c4             	mov    %rax,%r12
    7843:	48 85 c0             	test   %rax,%rax
    7846:	0f 84 ca 1b 00 00    	je     9416 <__pyx_pymod_exec_arrow_mouse+0x4285>
    784c:	48 89 ef             	mov    %rbp,%rdi
    784f:	e8 1b 2f 00 00       	callq  a76f <_Py_DECREF.isra.0>
    7854:	48 8d 05 a5 b9 00 00 	lea    0xb9a5(%rip),%rax        # 13200 <PyMethod_Type>
    785b:	49 39 44 24 08       	cmp    %rax,0x8(%r12)
    7860:	75 36                	jne    7898 <__pyx_pymod_exec_arrow_mouse+0x2707>
    7862:	49 8b 6c 24 18       	mov    0x18(%r12),%rbp
    7867:	48 85 ed             	test   %rbp,%rbp
    786a:	74 2c                	je     7898 <__pyx_pymod_exec_arrow_mouse+0x2707>
    786c:	4d 8b 6c 24 10       	mov    0x10(%r12),%r13
    7871:	48 ff 45 00          	incq   0x0(%rbp)
    7875:	4c 89 e7             	mov    %r12,%rdi
    7878:	49 ff 45 00          	incq   0x0(%r13)
    787c:	e8 ee 2e 00 00       	callq  a76f <_Py_DECREF.isra.0>
    7881:	48 8b 15 d0 c6 00 00 	mov    0xc6d0(%rip),%rdx        # 13f58 <__pyx_n_s_l>
    7888:	48 89 ee             	mov    %rbp,%rsi
    788b:	4c 89 ef             	mov    %r13,%rdi
    788e:	e8 67 3b 00 00       	callq  b3fa <__Pyx_PyObject_Call2Args>
    7893:	48 89 c3             	mov    %rax,%rbx
    7896:	eb 17                	jmp    78af <__pyx_pymod_exec_arrow_mouse+0x271e>
    7898:	48 8b 35 b9 c6 00 00 	mov    0xc6b9(%rip),%rsi        # 13f58 <__pyx_n_s_l>
    789f:	4c 89 e7             	mov    %r12,%rdi
    78a2:	4d 89 e5             	mov    %r12,%r13
    78a5:	31 ed                	xor    %ebp,%ebp
    78a7:	e8 88 3c 00 00       	callq  b534 <__Pyx_PyObject_CallOneArg>
    78ac:	48 89 c3             	mov    %rax,%rbx
    78af:	48 89 ef             	mov    %rbp,%rdi
    78b2:	e8 a8 2f 00 00       	callq  a85f <_Py_XDECREF>
    78b7:	48 85 db             	test   %rbx,%rbx
    78ba:	0f 84 71 1b 00 00    	je     9431 <__pyx_pymod_exec_arrow_mouse+0x42a0>
    78c0:	4c 89 ef             	mov    %r13,%rdi
    78c3:	e8 a7 2e 00 00       	callq  a76f <_Py_DECREF.isra.0>
    78c8:	48 89 df             	mov    %rbx,%rdi
    78cb:	e8 d6 2a 00 00       	callq  a3a6 <__Pyx_PyObject_IsTrue>
    78d0:	89 c5                	mov    %eax,%ebp
    78d2:	85 c0                	test   %eax,%eax
    78d4:	0f 88 72 1b 00 00    	js     944c <__pyx_pymod_exec_arrow_mouse+0x42bb>
    78da:	48 89 df             	mov    %rbx,%rdi
    78dd:	e8 8d 2e 00 00       	callq  a76f <_Py_DECREF.isra.0>
    78e2:	85 ed                	test   %ebp,%ebp
    78e4:	0f 84 03 01 00 00    	je     79ed <__pyx_pymod_exec_arrow_mouse+0x285c>
    78ea:	48 8b 05 af c7 00 00 	mov    0xc7af(%rip),%rax        # 140a0 <__pyx_d>
    78f1:	48 8b 0d 28 c3 00 00 	mov    0xc328(%rip),%rcx        # 13c20 <__pyx_dict_version.16121>
    78f8:	48 39 48 18          	cmp    %rcx,0x18(%rax)
    78fc:	75 1f                	jne    791d <__pyx_pymod_exec_arrow_mouse+0x278c>
    78fe:	48 8b 1d 13 c3 00 00 	mov    0xc313(%rip),%rbx        # 13c18 <__pyx_dict_cached_value.16122>
    7905:	48 85 db             	test   %rbx,%rbx
    7908:	74 05                	je     790f <__pyx_pymod_exec_arrow_mouse+0x277e>
    790a:	48 ff 03             	incq   (%rbx)
    790d:	eb 37                	jmp    7946 <__pyx_pymod_exec_arrow_mouse+0x27b5>
    790f:	48 8b 3d da c5 00 00 	mov    0xc5da(%rip),%rdi        # 13ef0 <__pyx_n_s_o_x>
    7916:	e8 ac 2d 00 00       	callq  a6c7 <__Pyx_GetBuiltinName>
    791b:	eb 1a                	jmp    7937 <__pyx_pymod_exec_arrow_mouse+0x27a6>
    791d:	48 8b 3d cc c5 00 00 	mov    0xc5cc(%rip),%rdi        # 13ef0 <__pyx_n_s_o_x>
    7924:	48 8d 15 ed c2 00 00 	lea    0xc2ed(%rip),%rdx        # 13c18 <__pyx_dict_cached_value.16122>
    792b:	48 8d 35 ee c2 00 00 	lea    0xc2ee(%rip),%rsi        # 13c20 <__pyx_dict_version.16121>
    7932:	e8 d0 2d 00 00       	callq  a707 <__Pyx__GetModuleGlobalName>
    7937:	48 89 c5             	mov    %rax,%rbp
    793a:	48 85 c0             	test   %rax,%rax
    793d:	0f 84 24 1b 00 00    	je     9467 <__pyx_pymod_exec_arrow_mouse+0x42d6>
    7943:	48 89 c3             	mov    %rax,%rbx
    7946:	48 8b 05 53 c7 00 00 	mov    0xc753(%rip),%rax        # 140a0 <__pyx_d>
    794d:	48 8b 0d bc c2 00 00 	mov    0xc2bc(%rip),%rcx        # 13c10 <__pyx_dict_version.16123>
    7954:	48 39 48 18          	cmp    %rcx,0x18(%rax)
    7958:	75 20                	jne    797a <__pyx_pymod_exec_arrow_mouse+0x27e9>
    795a:	4c 8b 25 a7 c2 00 00 	mov    0xc2a7(%rip),%r12        # 13c08 <__pyx_dict_cached_value.16124>
    7961:	4d 85 e4             	test   %r12,%r12
    7964:	74 06                	je     796c <__pyx_pymod_exec_arrow_mouse+0x27db>
    7966:	49 ff 04 24          	incq   (%r12)
    796a:	eb 34                	jmp    79a0 <__pyx_pymod_exec_arrow_mouse+0x280f>
    796c:	48 8b 3d 1d c5 00 00 	mov    0xc51d(%rip),%rdi        # 13e90 <__pyx_n_s_speed>
    7973:	e8 4f 2d 00 00       	callq  a6c7 <__Pyx_GetBuiltinName>
    7978:	eb 1a                	jmp    7994 <__pyx_pymod_exec_arrow_mouse+0x2803>
    797a:	48 8b 3d 0f c5 00 00 	mov    0xc50f(%rip),%rdi        # 13e90 <__pyx_n_s_speed>
    7981:	48 8d 15 80 c2 00 00 	lea    0xc280(%rip),%rdx        # 13c08 <__pyx_dict_cached_value.16124>
    7988:	48 8d 35 81 c2 00 00 	lea    0xc281(%rip),%rsi        # 13c10 <__pyx_dict_version.16123>
    798f:	e8 73 2d 00 00       	callq  a707 <__Pyx__GetModuleGlobalName>
    7994:	49 89 c4             	mov    %rax,%r12
    7997:	48 85 c0             	test   %rax,%rax
    799a:	0f 84 e5 1a 00 00    	je     9485 <__pyx_pymod_exec_arrow_mouse+0x42f4>
    79a0:	4c 89 e6             	mov    %r12,%rsi
    79a3:	48 89 df             	mov    %rbx,%rdi
    79a6:	e8 a5 cc ff ff       	callq  4650 <PyNumber_Add@plt>
    79ab:	48 89 c5             	mov    %rax,%rbp
    79ae:	48 85 c0             	test   %rax,%rax
    79b1:	0f 84 e9 1a 00 00    	je     94a0 <__pyx_pymod_exec_arrow_mouse+0x430f>
    79b7:	48 89 df             	mov    %rbx,%rdi
    79ba:	e8 b0 2d 00 00       	callq  a76f <_Py_DECREF.isra.0>
    79bf:	4c 89 e7             	mov    %r12,%rdi
    79c2:	e8 a8 2d 00 00       	callq  a76f <_Py_DECREF.isra.0>
    79c7:	48 8b 35 62 c4 00 00 	mov    0xc462(%rip),%rsi        # 13e30 <__pyx_n_s_x>
    79ce:	48 8b 3d cb c6 00 00 	mov    0xc6cb(%rip),%rdi        # 140a0 <__pyx_d>
    79d5:	48 89 ea             	mov    %rbp,%rdx
    79d8:	e8 73 d2 ff ff       	callq  4c50 <PyDict_SetItem@plt>
    79dd:	85 c0                	test   %eax,%eax
    79df:	0f 88 d7 1a 00 00    	js     94bc <__pyx_pymod_exec_arrow_mouse+0x432b>
    79e5:	48 89 ef             	mov    %rbp,%rdi
    79e8:	e8 82 2d 00 00       	callq  a76f <_Py_DECREF.isra.0>
    79ed:	48 8b 05 ac c6 00 00 	mov    0xc6ac(%rip),%rax        # 140a0 <__pyx_d>
    79f4:	48 8b 0d 05 c2 00 00 	mov    0xc205(%rip),%rcx        # 13c00 <__pyx_dict_version.16125>
    79fb:	48 39 48 18          	cmp    %rcx,0x18(%rax)
    79ff:	75 20                	jne    7a21 <__pyx_pymod_exec_arrow_mouse+0x2890>
    7a01:	48 8b 2d f0 c1 00 00 	mov    0xc1f0(%rip),%rbp        # 13bf8 <__pyx_dict_cached_value.16126>
    7a08:	48 85 ed             	test   %rbp,%rbp
    7a0b:	74 06                	je     7a13 <__pyx_pymod_exec_arrow_mouse+0x2882>
    7a0d:	48 ff 45 00          	incq   0x0(%rbp)
    7a11:	eb 34                	jmp    7a47 <__pyx_pymod_exec_arrow_mouse+0x28b6>
    7a13:	48 8b 3d 46 c5 00 00 	mov    0xc546(%rip),%rdi        # 13f60 <__pyx_n_s_keyboard>
    7a1a:	e8 a8 2c 00 00       	callq  a6c7 <__Pyx_GetBuiltinName>
    7a1f:	eb 1a                	jmp    7a3b <__pyx_pymod_exec_arrow_mouse+0x28aa>
    7a21:	48 8b 3d 38 c5 00 00 	mov    0xc538(%rip),%rdi        # 13f60 <__pyx_n_s_keyboard>
    7a28:	48 8d 15 c9 c1 00 00 	lea    0xc1c9(%rip),%rdx        # 13bf8 <__pyx_dict_cached_value.16126>
    7a2f:	48 8d 35 ca c1 00 00 	lea    0xc1ca(%rip),%rsi        # 13c00 <__pyx_dict_version.16125>
    7a36:	e8 cc 2c 00 00       	callq  a707 <__Pyx__GetModuleGlobalName>
    7a3b:	48 89 c5             	mov    %rax,%rbp
    7a3e:	48 85 c0             	test   %rax,%rax
    7a41:	0f 84 90 1a 00 00    	je     94d7 <__pyx_pymod_exec_arrow_mouse+0x4346>
    7a47:	48 8b 35 2a c5 00 00 	mov    0xc52a(%rip),%rsi        # 13f78 <__pyx_n_s_is_pressed>
    7a4e:	48 89 ef             	mov    %rbp,%rdi
    7a51:	e8 bf 27 00 00       	callq  a215 <__Pyx_PyObject_GetAttrStr>
    7a56:	49 89 c4             	mov    %rax,%r12
    7a59:	48 85 c0             	test   %rax,%rax
    7a5c:	0f 84 93 1a 00 00    	je     94f5 <__pyx_pymod_exec_arrow_mouse+0x4364>
    7a62:	48 89 ef             	mov    %rbp,%rdi
    7a65:	e8 05 2d 00 00       	callq  a76f <_Py_DECREF.isra.0>
    7a6a:	48 8d 05 8f b7 00 00 	lea    0xb78f(%rip),%rax        # 13200 <PyMethod_Type>
    7a71:	49 39 44 24 08       	cmp    %rax,0x8(%r12)
    7a76:	75 35                	jne    7aad <__pyx_pymod_exec_arrow_mouse+0x291c>
    7a78:	4d 8b 6c 24 18       	mov    0x18(%r12),%r13
    7a7d:	4d 85 ed             	test   %r13,%r13
    7a80:	74 2b                	je     7aad <__pyx_pymod_exec_arrow_mouse+0x291c>
    7a82:	49 8b 5c 24 10       	mov    0x10(%r12),%rbx
    7a87:	49 ff 45 00          	incq   0x0(%r13)
    7a8b:	4c 89 e7             	mov    %r12,%rdi
    7a8e:	48 ff 03             	incq   (%rbx)
    7a91:	e8 d9 2c 00 00       	callq  a76f <_Py_DECREF.isra.0>
    7a96:	48 8b 15 d3 c4 00 00 	mov    0xc4d3(%rip),%rdx        # 13f70 <__pyx_n_s_j>
    7a9d:	4c 89 ee             	mov    %r13,%rsi
    7aa0:	48 89 df             	mov    %rbx,%rdi
    7aa3:	e8 52 39 00 00       	callq  b3fa <__Pyx_PyObject_Call2Args>
    7aa8:	48 89 c5             	mov    %rax,%rbp
    7aab:	eb 18                	jmp    7ac5 <__pyx_pymod_exec_arrow_mouse+0x2934>
    7aad:	48 8b 35 bc c4 00 00 	mov    0xc4bc(%rip),%rsi        # 13f70 <__pyx_n_s_j>
    7ab4:	4c 89 e7             	mov    %r12,%rdi
    7ab7:	4c 89 e3             	mov    %r12,%rbx
    7aba:	45 31 ed             	xor    %r13d,%r13d
    7abd:	e8 72 3a 00 00       	callq  b534 <__Pyx_PyObject_CallOneArg>
    7ac2:	48 89 c5             	mov    %rax,%rbp
    7ac5:	4c 89 ef             	mov    %r13,%rdi
    7ac8:	e8 92 2d 00 00       	callq  a85f <_Py_XDECREF>
    7acd:	48 85 ed             	test   %rbp,%rbp
    7ad0:	0f 84 3c 1a 00 00    	je     9512 <__pyx_pymod_exec_arrow_mouse+0x4381>
    7ad6:	48 89 df             	mov    %rbx,%rdi
    7ad9:	e8 91 2c 00 00       	callq  a76f <_Py_DECREF.isra.0>
    7ade:	48 89 ef             	mov    %rbp,%rdi
    7ae1:	e8 c0 28 00 00       	callq  a3a6 <__Pyx_PyObject_IsTrue>
    7ae6:	41 89 c4             	mov    %eax,%r12d
    7ae9:	85 c0                	test   %eax,%eax
    7aeb:	0f 88 3d 1a 00 00    	js     952e <__pyx_pymod_exec_arrow_mouse+0x439d>
    7af1:	48 89 ef             	mov    %rbp,%rdi
    7af4:	e8 76 2c 00 00       	callq  a76f <_Py_DECREF.isra.0>
    7af9:	45 85 e4             	test   %r12d,%r12d
    7afc:	0f 84 01 01 00 00    	je     7c03 <__pyx_pymod_exec_arrow_mouse+0x2a72>
    7b02:	48 8b 05 97 c5 00 00 	mov    0xc597(%rip),%rax        # 140a0 <__pyx_d>
    7b09:	48 8b 0d e0 c0 00 00 	mov    0xc0e0(%rip),%rcx        # 13bf0 <__pyx_dict_version.16129>
    7b10:	48 39 48 18          	cmp    %rcx,0x18(%rax)
    7b14:	75 20                	jne    7b36 <__pyx_pymod_exec_arrow_mouse+0x29a5>
    7b16:	48 8b 2d cb c0 00 00 	mov    0xc0cb(%rip),%rbp        # 13be8 <__pyx_dict_cached_value.16130>
    7b1d:	48 85 ed             	test   %rbp,%rbp
    7b20:	74 06                	je     7b28 <__pyx_pymod_exec_arrow_mouse+0x2997>
    7b22:	48 ff 45 00          	incq   0x0(%rbp)
    7b26:	eb 34                	jmp    7b5c <__pyx_pymod_exec_arrow_mouse+0x29cb>
    7b28:	48 8b 3d c1 c3 00 00 	mov    0xc3c1(%rip),%rdi        # 13ef0 <__pyx_n_s_o_x>
    7b2f:	e8 93 2b 00 00       	callq  a6c7 <__Pyx_GetBuiltinName>
    7b34:	eb 1a                	jmp    7b50 <__pyx_pymod_exec_arrow_mouse+0x29bf>
    7b36:	48 8b 3d b3 c3 00 00 	mov    0xc3b3(%rip),%rdi        # 13ef0 <__pyx_n_s_o_x>
    7b3d:	48 8d 15 a4 c0 00 00 	lea    0xc0a4(%rip),%rdx        # 13be8 <__pyx_dict_cached_value.16130>
    7b44:	48 8d 35 a5 c0 00 00 	lea    0xc0a5(%rip),%rsi        # 13bf0 <__pyx_dict_version.16129>
    7b4b:	e8 b7 2b 00 00       	callq  a707 <__Pyx__GetModuleGlobalName>
    7b50:	48 89 c5             	mov    %rax,%rbp
    7b53:	48 85 c0             	test   %rax,%rax
    7b56:	0f 84 ed 19 00 00    	je     9549 <__pyx_pymod_exec_arrow_mouse+0x43b8>
    7b5c:	48 8b 05 3d c5 00 00 	mov    0xc53d(%rip),%rax        # 140a0 <__pyx_d>
    7b63:	48 8b 0d 76 c0 00 00 	mov    0xc076(%rip),%rcx        # 13be0 <__pyx_dict_version.16131>
    7b6a:	48 39 48 18          	cmp    %rcx,0x18(%rax)
    7b6e:	75 20                	jne    7b90 <__pyx_pymod_exec_arrow_mouse+0x29ff>
    7b70:	4c 8b 25 61 c0 00 00 	mov    0xc061(%rip),%r12        # 13bd8 <__pyx_dict_cached_value.16132>
    7b77:	4d 85 e4             	test   %r12,%r12
    7b7a:	74 06                	je     7b82 <__pyx_pymod_exec_arrow_mouse+0x29f1>
    7b7c:	49 ff 04 24          	incq   (%r12)
    7b80:	eb 34                	jmp    7bb6 <__pyx_pymod_exec_arrow_mouse+0x2a25>
    7b82:	48 8b 3d 07 c3 00 00 	mov    0xc307(%rip),%rdi        # 13e90 <__pyx_n_s_speed>
    7b89:	e8 39 2b 00 00       	callq  a6c7 <__Pyx_GetBuiltinName>
    7b8e:	eb 1a                	jmp    7baa <__pyx_pymod_exec_arrow_mouse+0x2a19>
    7b90:	48 8b 3d f9 c2 00 00 	mov    0xc2f9(%rip),%rdi        # 13e90 <__pyx_n_s_speed>
    7b97:	48 8d 15 3a c0 00 00 	lea    0xc03a(%rip),%rdx        # 13bd8 <__pyx_dict_cached_value.16132>
    7b9e:	48 8d 35 3b c0 00 00 	lea    0xc03b(%rip),%rsi        # 13be0 <__pyx_dict_version.16131>
    7ba5:	e8 5d 2b 00 00       	callq  a707 <__Pyx__GetModuleGlobalName>
    7baa:	49 89 c4             	mov    %rax,%r12
    7bad:	48 85 c0             	test   %rax,%rax
    7bb0:	0f 84 b1 19 00 00    	je     9567 <__pyx_pymod_exec_arrow_mouse+0x43d6>
    7bb6:	4c 89 e6             	mov    %r12,%rsi
    7bb9:	48 89 ef             	mov    %rbp,%rdi
    7bbc:	e8 4f ce ff ff       	callq  4a10 <PyNumber_Subtract@plt>
    7bc1:	49 89 c5             	mov    %rax,%r13
    7bc4:	48 85 c0             	test   %rax,%rax
    7bc7:	0f 84 b5 19 00 00    	je     9582 <__pyx_pymod_exec_arrow_mouse+0x43f1>
    7bcd:	48 89 ef             	mov    %rbp,%rdi
    7bd0:	e8 9a 2b 00 00       	callq  a76f <_Py_DECREF.isra.0>
    7bd5:	4c 89 e7             	mov    %r12,%rdi
    7bd8:	e8 92 2b 00 00       	callq  a76f <_Py_DECREF.isra.0>
    7bdd:	48 8b 35 4c c2 00 00 	mov    0xc24c(%rip),%rsi        # 13e30 <__pyx_n_s_x>
    7be4:	48 8b 3d b5 c4 00 00 	mov    0xc4b5(%rip),%rdi        # 140a0 <__pyx_d>
    7beb:	4c 89 ea             	mov    %r13,%rdx
    7bee:	e8 5d d0 ff ff       	callq  4c50 <PyDict_SetItem@plt>
    7bf3:	85 c0                	test   %eax,%eax
    7bf5:	0f 88 a3 19 00 00    	js     959e <__pyx_pymod_exec_arrow_mouse+0x440d>
    7bfb:	4c 89 ef             	mov    %r13,%rdi
    7bfe:	e8 6c 2b 00 00       	callq  a76f <_Py_DECREF.isra.0>
    7c03:	48 8b 05 96 c4 00 00 	mov    0xc496(%rip),%rax        # 140a0 <__pyx_d>
    7c0a:	48 8b 0d bf bf 00 00 	mov    0xbfbf(%rip),%rcx        # 13bd0 <__pyx_dict_version.16133>
    7c11:	48 39 48 18          	cmp    %rcx,0x18(%rax)
    7c15:	75 20                	jne    7c37 <__pyx_pymod_exec_arrow_mouse+0x2aa6>
    7c17:	48 8b 2d aa bf 00 00 	mov    0xbfaa(%rip),%rbp        # 13bc8 <__pyx_dict_cached_value.16134>
    7c1e:	48 85 ed             	test   %rbp,%rbp
    7c21:	74 06                	je     7c29 <__pyx_pymod_exec_arrow_mouse+0x2a98>
    7c23:	48 ff 45 00          	incq   0x0(%rbp)
    7c27:	eb 34                	jmp    7c5d <__pyx_pymod_exec_arrow_mouse+0x2acc>
    7c29:	48 8b 3d 30 c3 00 00 	mov    0xc330(%rip),%rdi        # 13f60 <__pyx_n_s_keyboard>
    7c30:	e8 92 2a 00 00       	callq  a6c7 <__Pyx_GetBuiltinName>
    7c35:	eb 1a                	jmp    7c51 <__pyx_pymod_exec_arrow_mouse+0x2ac0>
    7c37:	48 8b 3d 22 c3 00 00 	mov    0xc322(%rip),%rdi        # 13f60 <__pyx_n_s_keyboard>
    7c3e:	48 8d 15 83 bf 00 00 	lea    0xbf83(%rip),%rdx        # 13bc8 <__pyx_dict_cached_value.16134>
    7c45:	48 8d 35 84 bf 00 00 	lea    0xbf84(%rip),%rsi        # 13bd0 <__pyx_dict_version.16133>
    7c4c:	e8 b6 2a 00 00       	callq  a707 <__Pyx__GetModuleGlobalName>
    7c51:	48 89 c5             	mov    %rax,%rbp
    7c54:	48 85 c0             	test   %rax,%rax
    7c57:	0f 84 5b 19 00 00    	je     95b8 <__pyx_pymod_exec_arrow_mouse+0x4427>
    7c5d:	48 8b 35 14 c3 00 00 	mov    0xc314(%rip),%rsi        # 13f78 <__pyx_n_s_is_pressed>
    7c64:	48 89 ef             	mov    %rbp,%rdi
    7c67:	e8 a9 25 00 00       	callq  a215 <__Pyx_PyObject_GetAttrStr>
    7c6c:	49 89 c4             	mov    %rax,%r12
    7c6f:	48 85 c0             	test   %rax,%rax
    7c72:	0f 84 5e 19 00 00    	je     95d6 <__pyx_pymod_exec_arrow_mouse+0x4445>
    7c78:	48 89 ef             	mov    %rbp,%rdi
    7c7b:	e8 ef 2a 00 00       	callq  a76f <_Py_DECREF.isra.0>
    7c80:	48 8d 05 79 b5 00 00 	lea    0xb579(%rip),%rax        # 13200 <PyMethod_Type>
    7c87:	49 39 44 24 08       	cmp    %rax,0x8(%r12)
    7c8c:	75 35                	jne    7cc3 <__pyx_pymod_exec_arrow_mouse+0x2b32>
    7c8e:	4d 8b 7c 24 18       	mov    0x18(%r12),%r15
    7c93:	4d 85 ff             	test   %r15,%r15
    7c96:	74 2b                	je     7cc3 <__pyx_pymod_exec_arrow_mouse+0x2b32>
    7c98:	49 8b 6c 24 10       	mov    0x10(%r12),%rbp
    7c9d:	49 ff 07             	incq   (%r15)
    7ca0:	4c 89 e7             	mov    %r12,%rdi
    7ca3:	48 ff 45 00          	incq   0x0(%rbp)
    7ca7:	e8 c3 2a 00 00       	callq  a76f <_Py_DECREF.isra.0>
    7cac:	48 8b 15 25 c3 00 00 	mov    0xc325(%rip),%rdx        # 13fd8 <__pyx_n_s_ctrl>
    7cb3:	4c 89 fe             	mov    %r15,%rsi
    7cb6:	48 89 ef             	mov    %rbp,%rdi
    7cb9:	e8 3c 37 00 00       	callq  b3fa <__Pyx_PyObject_Call2Args>
    7cbe:	49 89 c5             	mov    %rax,%r13
    7cc1:	eb 18                	jmp    7cdb <__pyx_pymod_exec_arrow_mouse+0x2b4a>
    7cc3:	48 8b 35 0e c3 00 00 	mov    0xc30e(%rip),%rsi        # 13fd8 <__pyx_n_s_ctrl>
    7cca:	4c 89 e7             	mov    %r12,%rdi
    7ccd:	45 31 ff             	xor    %r15d,%r15d
    7cd0:	4c 89 e5             	mov    %r12,%rbp
    7cd3:	e8 5c 38 00 00       	callq  b534 <__Pyx_PyObject_CallOneArg>
    7cd8:	49 89 c5             	mov    %rax,%r13
    7cdb:	4c 89 ff             	mov    %r15,%rdi
    7cde:	e8 7c 2b 00 00       	callq  a85f <_Py_XDECREF>
    7ce3:	4d 85 ed             	test   %r13,%r13
    7ce6:	0f 84 08 19 00 00    	je     95f4 <__pyx_pymod_exec_arrow_mouse+0x4463>
    7cec:	48 89 ef             	mov    %rbp,%rdi
    7cef:	e8 7b 2a 00 00       	callq  a76f <_Py_DECREF.isra.0>
    7cf4:	4c 89 ef             	mov    %r13,%rdi
    7cf7:	e8 aa 26 00 00       	callq  a3a6 <__Pyx_PyObject_IsTrue>
    7cfc:	89 c5                	mov    %eax,%ebp
    7cfe:	85 c0                	test   %eax,%eax
    7d00:	0f 88 09 19 00 00    	js     960f <__pyx_pymod_exec_arrow_mouse+0x447e>
    7d06:	4c 89 ef             	mov    %r13,%rdi
    7d09:	e8 61 2a 00 00       	callq  a76f <_Py_DECREF.isra.0>
    7d0e:	85 ed                	test   %ebp,%ebp
    7d10:	0f 84 eb 02 00 00    	je     8001 <__pyx_pymod_exec_arrow_mouse+0x2e70>
    7d16:	48 8b 05 83 c3 00 00 	mov    0xc383(%rip),%rax        # 140a0 <__pyx_d>
    7d1d:	48 8b 0d 9c be 00 00 	mov    0xbe9c(%rip),%rcx        # 13bc0 <__pyx_dict_version.16137>
    7d24:	48 39 48 18          	cmp    %rcx,0x18(%rax)
    7d28:	75 20                	jne    7d4a <__pyx_pymod_exec_arrow_mouse+0x2bb9>
    7d2a:	48 8b 2d 87 be 00 00 	mov    0xbe87(%rip),%rbp        # 13bb8 <__pyx_dict_cached_value.16138>
    7d31:	48 85 ed             	test   %rbp,%rbp
    7d34:	74 06                	je     7d3c <__pyx_pymod_exec_arrow_mouse+0x2bab>
    7d36:	48 ff 45 00          	incq   0x0(%rbp)
    7d3a:	eb 34                	jmp    7d70 <__pyx_pymod_exec_arrow_mouse+0x2bdf>
    7d3c:	48 8b 3d 1d c2 00 00 	mov    0xc21d(%rip),%rdi        # 13f60 <__pyx_n_s_keyboard>
    7d43:	e8 7f 29 00 00       	callq  a6c7 <__Pyx_GetBuiltinName>
    7d48:	eb 1a                	jmp    7d64 <__pyx_pymod_exec_arrow_mouse+0x2bd3>
    7d4a:	48 8b 3d 0f c2 00 00 	mov    0xc20f(%rip),%rdi        # 13f60 <__pyx_n_s_keyboard>
    7d51:	48 8d 15 60 be 00 00 	lea    0xbe60(%rip),%rdx        # 13bb8 <__pyx_dict_cached_value.16138>
    7d58:	48 8d 35 61 be 00 00 	lea    0xbe61(%rip),%rsi        # 13bc0 <__pyx_dict_version.16137>
    7d5f:	e8 a3 29 00 00       	callq  a707 <__Pyx__GetModuleGlobalName>
    7d64:	48 89 c5             	mov    %rax,%rbp
    7d67:	48 85 c0             	test   %rax,%rax
    7d6a:	0f 84 b9 18 00 00    	je     9629 <__pyx_pymod_exec_arrow_mouse+0x4498>
    7d70:	48 8b 35 01 c2 00 00 	mov    0xc201(%rip),%rsi        # 13f78 <__pyx_n_s_is_pressed>
    7d77:	48 89 ef             	mov    %rbp,%rdi
    7d7a:	e8 96 24 00 00       	callq  a215 <__Pyx_PyObject_GetAttrStr>
    7d7f:	49 89 c4             	mov    %rax,%r12
    7d82:	48 85 c0             	test   %rax,%rax
    7d85:	0f 84 bc 18 00 00    	je     9647 <__pyx_pymod_exec_arrow_mouse+0x44b6>
    7d8b:	48 89 ef             	mov    %rbp,%rdi
    7d8e:	e8 dc 29 00 00       	callq  a76f <_Py_DECREF.isra.0>
    7d93:	48 8d 05 66 b4 00 00 	lea    0xb466(%rip),%rax        # 13200 <PyMethod_Type>
    7d9a:	49 39 44 24 08       	cmp    %rax,0x8(%r12)
    7d9f:	75 35                	jne    7dd6 <__pyx_pymod_exec_arrow_mouse+0x2c45>
    7da1:	49 8b 6c 24 18       	mov    0x18(%r12),%rbp
    7da6:	48 85 ed             	test   %rbp,%rbp
    7da9:	74 2b                	je     7dd6 <__pyx_pymod_exec_arrow_mouse+0x2c45>
    7dab:	49 8b 5c 24 10       	mov    0x10(%r12),%rbx
    7db0:	48 ff 45 00          	incq   0x0(%rbp)
    7db4:	4c 89 e7             	mov    %r12,%rdi
    7db7:	48 ff 03             	incq   (%rbx)
    7dba:	e8 b0 29 00 00       	callq  a76f <_Py_DECREF.isra.0>
    7dbf:	48 8b 15 d2 c0 00 00 	mov    0xc0d2(%rip),%rdx        # 13e98 <__pyx_n_s_space>
    7dc6:	48 89 ee             	mov    %rbp,%rsi
    7dc9:	48 89 df             	mov    %rbx,%rdi
    7dcc:	e8 29 36 00 00       	callq  b3fa <__Pyx_PyObject_Call2Args>
    7dd1:	49 89 c5             	mov    %rax,%r13
    7dd4:	eb 17                	jmp    7ded <__pyx_pymod_exec_arrow_mouse+0x2c5c>
    7dd6:	48 8b 35 bb c0 00 00 	mov    0xc0bb(%rip),%rsi        # 13e98 <__pyx_n_s_space>
    7ddd:	4c 89 e7             	mov    %r12,%rdi
    7de0:	4c 89 e3             	mov    %r12,%rbx
    7de3:	31 ed                	xor    %ebp,%ebp
    7de5:	e8 4a 37 00 00       	callq  b534 <__Pyx_PyObject_CallOneArg>
    7dea:	49 89 c5             	mov    %rax,%r13
    7ded:	48 89 ef             	mov    %rbp,%rdi
    7df0:	e8 6a 2a 00 00       	callq  a85f <_Py_XDECREF>
    7df5:	4d 85 ed             	test   %r13,%r13
    7df8:	0f 84 64 18 00 00    	je     9662 <__pyx_pymod_exec_arrow_mouse+0x44d1>
    7dfe:	48 89 df             	mov    %rbx,%rdi
    7e01:	e8 69 29 00 00       	callq  a76f <_Py_DECREF.isra.0>
    7e06:	4c 89 ef             	mov    %r13,%rdi
    7e09:	e8 98 25 00 00       	callq  a3a6 <__Pyx_PyObject_IsTrue>
    7e0e:	89 c5                	mov    %eax,%ebp
    7e10:	85 c0                	test   %eax,%eax
    7e12:	0f 88 65 18 00 00    	js     967d <__pyx_pymod_exec_arrow_mouse+0x44ec>
    7e18:	4c 89 ef             	mov    %r13,%rdi
    7e1b:	e8 4f 29 00 00       	callq  a76f <_Py_DECREF.isra.0>
    7e20:	85 ed                	test   %ebp,%ebp
    7e22:	0f 84 ee 00 00 00    	je     7f16 <__pyx_pymod_exec_arrow_mouse+0x2d85>
    7e28:	48 8b 3d 69 c0 00 00 	mov    0xc069(%rip),%rdi        # 13e98 <__pyx_n_s_space>
    7e2f:	e8 da d1 ff ff       	callq  500e <__Pyx_PrintOne.constprop.0>
    7e34:	85 c0                	test   %eax,%eax
    7e36:	0f 88 5b 18 00 00    	js     9697 <__pyx_pymod_exec_arrow_mouse+0x4506>
    7e3c:	48 8b 05 5d c2 00 00 	mov    0xc25d(%rip),%rax        # 140a0 <__pyx_d>
    7e43:	48 8b 0d 66 bd 00 00 	mov    0xbd66(%rip),%rcx        # 13bb0 <__pyx_dict_version.16141>
    7e4a:	48 39 48 18          	cmp    %rcx,0x18(%rax)
    7e4e:	75 20                	jne    7e70 <__pyx_pymod_exec_arrow_mouse+0x2cdf>
    7e50:	48 8b 2d 51 bd 00 00 	mov    0xbd51(%rip),%rbp        # 13ba8 <__pyx_dict_cached_value.16142>
    7e57:	48 85 ed             	test   %rbp,%rbp
    7e5a:	74 06                	je     7e62 <__pyx_pymod_exec_arrow_mouse+0x2cd1>
    7e5c:	48 ff 45 00          	incq   0x0(%rbp)
    7e60:	eb 34                	jmp    7e96 <__pyx_pymod_exec_arrow_mouse+0x2d05>
    7e62:	48 8b 3d a7 c0 00 00 	mov    0xc0a7(%rip),%rdi        # 13f10 <__pyx_n_s_mouse>
    7e69:	e8 59 28 00 00       	callq  a6c7 <__Pyx_GetBuiltinName>
    7e6e:	eb 1a                	jmp    7e8a <__pyx_pymod_exec_arrow_mouse+0x2cf9>
    7e70:	48 8b 3d 99 c0 00 00 	mov    0xc099(%rip),%rdi        # 13f10 <__pyx_n_s_mouse>
    7e77:	48 8d 15 2a bd 00 00 	lea    0xbd2a(%rip),%rdx        # 13ba8 <__pyx_dict_cached_value.16142>
    7e7e:	48 8d 35 2b bd 00 00 	lea    0xbd2b(%rip),%rsi        # 13bb0 <__pyx_dict_version.16141>
    7e85:	e8 7d 28 00 00       	callq  a707 <__Pyx__GetModuleGlobalName>
    7e8a:	48 89 c5             	mov    %rax,%rbp
    7e8d:	48 85 c0             	test   %rax,%rax
    7e90:	0f 84 1e 18 00 00    	je     96b4 <__pyx_pymod_exec_arrow_mouse+0x4523>
    7e96:	48 8b 35 4b c1 00 00 	mov    0xc14b(%rip),%rsi        # 13fe8 <__pyx_n_s_click>
    7e9d:	48 89 ef             	mov    %rbp,%rdi
    7ea0:	e8 70 23 00 00       	callq  a215 <__Pyx_PyObject_GetAttrStr>
    7ea5:	48 89 c3             	mov    %rax,%rbx
    7ea8:	48 85 c0             	test   %rax,%rax
    7eab:	0f 84 21 18 00 00    	je     96d2 <__pyx_pymod_exec_arrow_mouse+0x4541>
    7eb1:	48 89 ef             	mov    %rbp,%rdi
    7eb4:	e8 b6 28 00 00       	callq  a76f <_Py_DECREF.isra.0>
    7eb9:	e8 a2 cd ff ff       	callq  4c60 <PyDict_New@plt>
    7ebe:	49 89 c5             	mov    %rax,%r13
    7ec1:	48 85 c0             	test   %rax,%rax
    7ec4:	0f 84 26 18 00 00    	je     96f0 <__pyx_pymod_exec_arrow_mouse+0x455f>
    7eca:	48 8b 15 6f c0 00 00 	mov    0xc06f(%rip),%rdx        # 13f40 <__pyx_n_s_left>
    7ed1:	48 8b 35 18 c1 00 00 	mov    0xc118(%rip),%rsi        # 13ff0 <__pyx_n_s_button>
    7ed8:	48 89 c7             	mov    %rax,%rdi
    7edb:	e8 70 cd ff ff       	callq  4c50 <PyDict_SetItem@plt>
    7ee0:	85 c0                	test   %eax,%eax
    7ee2:	0f 88 23 18 00 00    	js     970b <__pyx_pymod_exec_arrow_mouse+0x457a>
    7ee8:	48 8b 35 99 c1 00 00 	mov    0xc199(%rip),%rsi        # 14088 <__pyx_empty_tuple>
    7eef:	4c 89 ea             	mov    %r13,%rdx
    7ef2:	48 89 df             	mov    %rbx,%rdi
    7ef5:	e8 e3 23 00 00       	callq  a2dd <__Pyx_PyObject_Call>
    7efa:	48 89 c5             	mov    %rax,%rbp
    7efd:	48 85 c0             	test   %rax,%rax
    7f00:	0f 84 1d 18 00 00    	je     9723 <__pyx_pymod_exec_arrow_mouse+0x4592>
    7f06:	48 89 df             	mov    %rbx,%rdi
    7f09:	e8 61 28 00 00       	callq  a76f <_Py_DECREF.isra.0>
    7f0e:	4c 89 ef             	mov    %r13,%rdi
    7f11:	e9 de 00 00 00       	jmpq   7ff4 <__pyx_pymod_exec_arrow_mouse+0x2e63>
    7f16:	48 8b 05 83 c1 00 00 	mov    0xc183(%rip),%rax        # 140a0 <__pyx_d>
    7f1d:	48 8b 0d 7c bc 00 00 	mov    0xbc7c(%rip),%rcx        # 13ba0 <__pyx_dict_version.16144>
    7f24:	48 39 48 18          	cmp    %rcx,0x18(%rax)
    7f28:	75 20                	jne    7f4a <__pyx_pymod_exec_arrow_mouse+0x2db9>
    7f2a:	48 8b 2d 67 bc 00 00 	mov    0xbc67(%rip),%rbp        # 13b98 <__pyx_dict_cached_value.16145>
    7f31:	48 85 ed             	test   %rbp,%rbp
    7f34:	74 06                	je     7f3c <__pyx_pymod_exec_arrow_mouse+0x2dab>
    7f36:	48 ff 45 00          	incq   0x0(%rbp)
    7f3a:	eb 34                	jmp    7f70 <__pyx_pymod_exec_arrow_mouse+0x2ddf>
    7f3c:	48 8b 3d cd bf 00 00 	mov    0xbfcd(%rip),%rdi        # 13f10 <__pyx_n_s_mouse>
    7f43:	e8 7f 27 00 00       	callq  a6c7 <__Pyx_GetBuiltinName>
    7f48:	eb 1a                	jmp    7f64 <__pyx_pymod_exec_arrow_mouse+0x2dd3>
    7f4a:	48 8b 3d bf bf 00 00 	mov    0xbfbf(%rip),%rdi        # 13f10 <__pyx_n_s_mouse>
    7f51:	48 8d 15 40 bc 00 00 	lea    0xbc40(%rip),%rdx        # 13b98 <__pyx_dict_cached_value.16145>
    7f58:	48 8d 35 41 bc 00 00 	lea    0xbc41(%rip),%rsi        # 13ba0 <__pyx_dict_version.16144>
    7f5f:	e8 a3 27 00 00       	callq  a707 <__Pyx__GetModuleGlobalName>
    7f64:	48 89 c5             	mov    %rax,%rbp
    7f67:	48 85 c0             	test   %rax,%rax
    7f6a:	0f 84 cc 17 00 00    	je     973c <__pyx_pymod_exec_arrow_mouse+0x45ab>
    7f70:	48 8b 35 41 bf 00 00 	mov    0xbf41(%rip),%rsi        # 13eb8 <__pyx_n_s_release>
    7f77:	48 89 ef             	mov    %rbp,%rdi
    7f7a:	e8 96 22 00 00       	callq  a215 <__Pyx_PyObject_GetAttrStr>
    7f7f:	49 89 c4             	mov    %rax,%r12
    7f82:	48 85 c0             	test   %rax,%rax
    7f85:	0f 84 cf 17 00 00    	je     975a <__pyx_pymod_exec_arrow_mouse+0x45c9>
    7f8b:	48 89 ef             	mov    %rbp,%rdi
    7f8e:	e8 dc 27 00 00       	callq  a76f <_Py_DECREF.isra.0>
    7f93:	48 8d 05 66 b2 00 00 	lea    0xb266(%rip),%rax        # 13200 <PyMethod_Type>
    7f9a:	49 39 44 24 08       	cmp    %rax,0x8(%r12)
    7f9f:	75 2e                	jne    7fcf <__pyx_pymod_exec_arrow_mouse+0x2e3e>
    7fa1:	4d 8b 6c 24 18       	mov    0x18(%r12),%r13
    7fa6:	4d 85 ed             	test   %r13,%r13
    7fa9:	74 24                	je     7fcf <__pyx_pymod_exec_arrow_mouse+0x2e3e>
    7fab:	49 8b 5c 24 10       	mov    0x10(%r12),%rbx
    7fb0:	49 ff 45 00          	incq   0x0(%r13)
    7fb4:	4c 89 e7             	mov    %r12,%rdi
    7fb7:	48 ff 03             	incq   (%rbx)
    7fba:	e8 b0 27 00 00       	callq  a76f <_Py_DECREF.isra.0>
    7fbf:	4c 89 ee             	mov    %r13,%rsi
    7fc2:	48 89 df             	mov    %rbx,%rdi
    7fc5:	e8 6a 35 00 00       	callq  b534 <__Pyx_PyObject_CallOneArg>
    7fca:	48 89 c5             	mov    %rax,%rbp
    7fcd:	eb 11                	jmp    7fe0 <__pyx_pymod_exec_arrow_mouse+0x2e4f>
    7fcf:	4c 89 e7             	mov    %r12,%rdi
    7fd2:	4c 89 e3             	mov    %r12,%rbx
    7fd5:	45 31 ed             	xor    %r13d,%r13d
    7fd8:	e8 3e 36 00 00       	callq  b61b <__Pyx_PyObject_CallNoArg>
    7fdd:	48 89 c5             	mov    %rax,%rbp
    7fe0:	4c 89 ef             	mov    %r13,%rdi
    7fe3:	e8 77 28 00 00       	callq  a85f <_Py_XDECREF>
    7fe8:	48 85 ed             	test   %rbp,%rbp
    7feb:	0f 84 86 17 00 00    	je     9777 <__pyx_pymod_exec_arrow_mouse+0x45e6>
    7ff1:	48 89 df             	mov    %rbx,%rdi
    7ff4:	e8 76 27 00 00       	callq  a76f <_Py_DECREF.isra.0>
    7ff9:	48 89 ef             	mov    %rbp,%rdi
    7ffc:	e8 6e 27 00 00       	callq  a76f <_Py_DECREF.isra.0>
    8001:	48 8b 05 98 c0 00 00 	mov    0xc098(%rip),%rax        # 140a0 <__pyx_d>
    8008:	48 8b 0d 81 bb 00 00 	mov    0xbb81(%rip),%rcx        # 13b90 <__pyx_dict_version.16148>
    800f:	48 39 48 18          	cmp    %rcx,0x18(%rax)
    8013:	75 1f                	jne    8034 <__pyx_pymod_exec_arrow_mouse+0x2ea3>
    8015:	48 8b 1d 6c bb 00 00 	mov    0xbb6c(%rip),%rbx        # 13b88 <__pyx_dict_cached_value.16149>
    801c:	48 85 db             	test   %rbx,%rbx
    801f:	74 05                	je     8026 <__pyx_pymod_exec_arrow_mouse+0x2e95>
    8021:	48 ff 03             	incq   (%rbx)
    8024:	eb 37                	jmp    805d <__pyx_pymod_exec_arrow_mouse+0x2ecc>
    8026:	48 8b 3d 03 be 00 00 	mov    0xbe03(%rip),%rdi        # 13e30 <__pyx_n_s_x>
    802d:	e8 95 26 00 00       	callq  a6c7 <__Pyx_GetBuiltinName>
    8032:	eb 1a                	jmp    804e <__pyx_pymod_exec_arrow_mouse+0x2ebd>
    8034:	48 8b 3d f5 bd 00 00 	mov    0xbdf5(%rip),%rdi        # 13e30 <__pyx_n_s_x>
    803b:	48 8d 15 46 bb 00 00 	lea    0xbb46(%rip),%rdx        # 13b88 <__pyx_dict_cached_value.16149>
    8042:	48 8d 35 47 bb 00 00 	lea    0xbb47(%rip),%rsi        # 13b90 <__pyx_dict_version.16148>
    8049:	e8 b9 26 00 00       	callq  a707 <__Pyx__GetModuleGlobalName>
    804e:	48 89 c5             	mov    %rax,%rbp
    8051:	48 85 c0             	test   %rax,%rax
    8054:	0f 84 39 17 00 00    	je     9793 <__pyx_pymod_exec_arrow_mouse+0x4602>
    805a:	48 89 c3             	mov    %rax,%rbx
    805d:	48 8b 05 3c c0 00 00 	mov    0xc03c(%rip),%rax        # 140a0 <__pyx_d>
    8064:	48 8b 0d 15 bb 00 00 	mov    0xbb15(%rip),%rcx        # 13b80 <__pyx_dict_version.16150>
    806b:	48 39 48 18          	cmp    %rcx,0x18(%rax)
    806f:	75 20                	jne    8091 <__pyx_pymod_exec_arrow_mouse+0x2f00>
    8071:	48 8b 2d 00 bb 00 00 	mov    0xbb00(%rip),%rbp        # 13b78 <__pyx_dict_cached_value.16151>
    8078:	48 85 ed             	test   %rbp,%rbp
    807b:	74 06                	je     8083 <__pyx_pymod_exec_arrow_mouse+0x2ef2>
    807d:	48 ff 45 00          	incq   0x0(%rbp)
    8081:	eb 34                	jmp    80b7 <__pyx_pymod_exec_arrow_mouse+0x2f26>
    8083:	48 8b 3d 66 be 00 00 	mov    0xbe66(%rip),%rdi        # 13ef0 <__pyx_n_s_o_x>
    808a:	e8 38 26 00 00       	callq  a6c7 <__Pyx_GetBuiltinName>
    808f:	eb 1a                	jmp    80ab <__pyx_pymod_exec_arrow_mouse+0x2f1a>
    8091:	48 8b 3d 58 be 00 00 	mov    0xbe58(%rip),%rdi        # 13ef0 <__pyx_n_s_o_x>
    8098:	48 8d 15 d9 ba 00 00 	lea    0xbad9(%rip),%rdx        # 13b78 <__pyx_dict_cached_value.16151>
    809f:	48 8d 35 da ba 00 00 	lea    0xbada(%rip),%rsi        # 13b80 <__pyx_dict_version.16150>
    80a6:	e8 5c 26 00 00       	callq  a707 <__Pyx__GetModuleGlobalName>
    80ab:	48 89 c5             	mov    %rax,%rbp
    80ae:	48 85 c0             	test   %rax,%rax
    80b1:	0f 84 fa 16 00 00    	je     97b1 <__pyx_pymod_exec_arrow_mouse+0x4620>
    80b7:	ba 03 00 00 00       	mov    $0x3,%edx
    80bc:	48 89 ee             	mov    %rbp,%rsi
    80bf:	48 89 df             	mov    %rbx,%rdi
    80c2:	e8 99 c8 ff ff       	callq  4960 <PyObject_RichCompare@plt>
    80c7:	49 89 c1             	mov    %rax,%r9
    80ca:	48 85 c0             	test   %rax,%rax
    80cd:	0f 84 fa 16 00 00    	je     97cd <__pyx_pymod_exec_arrow_mouse+0x463c>
    80d3:	48 89 df             	mov    %rbx,%rdi
    80d6:	48 89 44 24 08       	mov    %rax,0x8(%rsp)
    80db:	e8 8f 26 00 00       	callq  a76f <_Py_DECREF.isra.0>
    80e0:	48 89 ef             	mov    %rbp,%rdi
    80e3:	e8 87 26 00 00       	callq  a76f <_Py_DECREF.isra.0>
    80e8:	4c 8b 4c 24 08       	mov    0x8(%rsp),%r9
    80ed:	4c 89 cf             	mov    %r9,%rdi
    80f0:	e8 b1 22 00 00       	callq  a3a6 <__Pyx_PyObject_IsTrue>
    80f5:	4c 8b 4c 24 08       	mov    0x8(%rsp),%r9
    80fa:	85 c0                	test   %eax,%eax
    80fc:	0f 88 e6 16 00 00    	js     97e8 <__pyx_pymod_exec_arrow_mouse+0x4657>
    8102:	75 1e                	jne    8122 <__pyx_pymod_exec_arrow_mouse+0x2f91>
    8104:	4c 89 cf             	mov    %r9,%rdi
    8107:	e8 63 26 00 00       	callq  a76f <_Py_DECREF.isra.0>
    810c:	48 8b 05 8d bf 00 00 	mov    0xbf8d(%rip),%rax        # 140a0 <__pyx_d>
    8113:	48 8b 0d 56 ba 00 00 	mov    0xba56(%rip),%rcx        # 13b70 <__pyx_dict_version.16153>
    811a:	48 39 48 18          	cmp    %rcx,0x18(%rax)
    811e:	74 1f                	je     813f <__pyx_pymod_exec_arrow_mouse+0x2fae>
    8120:	eb 3c                	jmp    815e <__pyx_pymod_exec_arrow_mouse+0x2fcd>
    8122:	49 ff 01             	incq   (%r9)
    8125:	4c 89 cf             	mov    %r9,%rdi
    8128:	4c 89 4c 24 08       	mov    %r9,0x8(%rsp)
    812d:	e8 3d 26 00 00       	callq  a76f <_Py_DECREF.isra.0>
    8132:	4c 8b 4c 24 08       	mov    0x8(%rsp),%r9
    8137:	4c 89 cd             	mov    %r9,%rbp
    813a:	e9 f6 00 00 00       	jmpq   8235 <__pyx_pymod_exec_arrow_mouse+0x30a4>
    813f:	4c 8b 0d 22 ba 00 00 	mov    0xba22(%rip),%r9        # 13b68 <__pyx_dict_cached_value.16154>
    8146:	4d 85 c9             	test   %r9,%r9
    8149:	74 05                	je     8150 <__pyx_pymod_exec_arrow_mouse+0x2fbf>
    814b:	49 ff 01             	incq   (%r9)
    814e:	eb 37                	jmp    8187 <__pyx_pymod_exec_arrow_mouse+0x2ff6>
    8150:	48 8b 3d d1 bc 00 00 	mov    0xbcd1(%rip),%rdi        # 13e28 <__pyx_n_s_y>
    8157:	e8 6b 25 00 00       	callq  a6c7 <__Pyx_GetBuiltinName>
    815c:	eb 1a                	jmp    8178 <__pyx_pymod_exec_arrow_mouse+0x2fe7>
    815e:	48 8b 3d c3 bc 00 00 	mov    0xbcc3(%rip),%rdi        # 13e28 <__pyx_n_s_y>
    8165:	48 8d 15 fc b9 00 00 	lea    0xb9fc(%rip),%rdx        # 13b68 <__pyx_dict_cached_value.16154>
    816c:	48 8d 35 fd b9 00 00 	lea    0xb9fd(%rip),%rsi        # 13b70 <__pyx_dict_version.16153>
    8173:	e8 8f 25 00 00       	callq  a707 <__Pyx__GetModuleGlobalName>
    8178:	48 89 c5             	mov    %rax,%rbp
    817b:	48 85 c0             	test   %rax,%rax
    817e:	0f 84 7e 16 00 00    	je     9802 <__pyx_pymod_exec_arrow_mouse+0x4671>
    8184:	49 89 c1             	mov    %rax,%r9
    8187:	48 8b 05 12 bf 00 00 	mov    0xbf12(%rip),%rax        # 140a0 <__pyx_d>
    818e:	48 8b 0d cb b9 00 00 	mov    0xb9cb(%rip),%rcx        # 13b60 <__pyx_dict_version.16155>
    8195:	48 39 48 18          	cmp    %rcx,0x18(%rax)
    8199:	75 25                	jne    81c0 <__pyx_pymod_exec_arrow_mouse+0x302f>
    819b:	48 8b 2d b6 b9 00 00 	mov    0xb9b6(%rip),%rbp        # 13b58 <__pyx_dict_cached_value.16156>
    81a2:	48 85 ed             	test   %rbp,%rbp
    81a5:	74 06                	je     81ad <__pyx_pymod_exec_arrow_mouse+0x301c>
    81a7:	48 ff 45 00          	incq   0x0(%rbp)
    81ab:	eb 43                	jmp    81f0 <__pyx_pymod_exec_arrow_mouse+0x305f>
    81ad:	48 8b 3d 34 bd 00 00 	mov    0xbd34(%rip),%rdi        # 13ee8 <__pyx_n_s_o_y>
    81b4:	4c 89 4c 24 08       	mov    %r9,0x8(%rsp)
    81b9:	e8 09 25 00 00       	callq  a6c7 <__Pyx_GetBuiltinName>
    81be:	eb 1f                	jmp    81df <__pyx_pymod_exec_arrow_mouse+0x304e>
    81c0:	48 8b 3d 21 bd 00 00 	mov    0xbd21(%rip),%rdi        # 13ee8 <__pyx_n_s_o_y>
    81c7:	48 8d 15 8a b9 00 00 	lea    0xb98a(%rip),%rdx        # 13b58 <__pyx_dict_cached_value.16156>
    81ce:	4c 89 4c 24 08       	mov    %r9,0x8(%rsp)
    81d3:	48 8d 35 86 b9 00 00 	lea    0xb986(%rip),%rsi        # 13b60 <__pyx_dict_version.16155>
    81da:	e8 28 25 00 00       	callq  a707 <__Pyx__GetModuleGlobalName>
    81df:	4c 8b 4c 24 08       	mov    0x8(%rsp),%r9
    81e4:	48 89 c5             	mov    %rax,%rbp
    81e7:	48 85 c0             	test   %rax,%rax
    81ea:	0f 84 30 16 00 00    	je     9820 <__pyx_pymod_exec_arrow_mouse+0x468f>
    81f0:	4c 89 cf             	mov    %r9,%rdi
    81f3:	ba 03 00 00 00       	mov    $0x3,%edx
    81f8:	48 89 ee             	mov    %rbp,%rsi
    81fb:	4c 89 4c 24 08       	mov    %r9,0x8(%rsp)
    8200:	e8 5b c7 ff ff       	callq  4960 <PyObject_RichCompare@plt>
    8205:	4c 8b 4c 24 08       	mov    0x8(%rsp),%r9
    820a:	48 85 c0             	test   %rax,%rax
    820d:	49 89 c4             	mov    %rax,%r12
    8210:	0f 84 25 16 00 00    	je     983b <__pyx_pymod_exec_arrow_mouse+0x46aa>
    8216:	4c 89 cf             	mov    %r9,%rdi
    8219:	e8 51 25 00 00       	callq  a76f <_Py_DECREF.isra.0>
    821e:	48 89 ef             	mov    %rbp,%rdi
    8221:	4c 89 e5             	mov    %r12,%rbp
    8224:	e8 46 25 00 00       	callq  a76f <_Py_DECREF.isra.0>
    8229:	49 ff 04 24          	incq   (%r12)
    822d:	4c 89 e7             	mov    %r12,%rdi
    8230:	e8 3a 25 00 00       	callq  a76f <_Py_DECREF.isra.0>
    8235:	48 8b 35 c4 bc 00 00 	mov    0xbcc4(%rip),%rsi        # 13f00 <__pyx_n_s_move_mouse>
    823c:	48 8b 3d 5d be 00 00 	mov    0xbe5d(%rip),%rdi        # 140a0 <__pyx_d>
    8243:	48 89 ea             	mov    %rbp,%rdx
    8246:	e8 05 ca ff ff       	callq  4c50 <PyDict_SetItem@plt>
    824b:	85 c0                	test   %eax,%eax
    824d:	0f 88 02 16 00 00    	js     9855 <__pyx_pymod_exec_arrow_mouse+0x46c4>
    8253:	48 89 ef             	mov    %rbp,%rdi
    8256:	e8 14 25 00 00       	callq  a76f <_Py_DECREF.isra.0>
    825b:	48 8b 05 3e be 00 00 	mov    0xbe3e(%rip),%rax        # 140a0 <__pyx_d>
    8262:	48 8b 0d e7 b8 00 00 	mov    0xb8e7(%rip),%rcx        # 13b50 <__pyx_dict_version.16157>
    8269:	48 39 48 18          	cmp    %rcx,0x18(%rax)
    826d:	75 20                	jne    828f <__pyx_pymod_exec_arrow_mouse+0x30fe>
    826f:	48 8b 2d d2 b8 00 00 	mov    0xb8d2(%rip),%rbp        # 13b48 <__pyx_dict_cached_value.16158>
    8276:	48 85 ed             	test   %rbp,%rbp
    8279:	74 06                	je     8281 <__pyx_pymod_exec_arrow_mouse+0x30f0>
    827b:	48 ff 45 00          	incq   0x0(%rbp)
    827f:	eb 34                	jmp    82b5 <__pyx_pymod_exec_arrow_mouse+0x3124>
    8281:	48 8b 3d 78 bc 00 00 	mov    0xbc78(%rip),%rdi        # 13f00 <__pyx_n_s_move_mouse>
    8288:	e8 3a 24 00 00       	callq  a6c7 <__Pyx_GetBuiltinName>
    828d:	eb 1a                	jmp    82a9 <__pyx_pymod_exec_arrow_mouse+0x3118>
    828f:	48 8b 3d 6a bc 00 00 	mov    0xbc6a(%rip),%rdi        # 13f00 <__pyx_n_s_move_mouse>
    8296:	48 8d 15 ab b8 00 00 	lea    0xb8ab(%rip),%rdx        # 13b48 <__pyx_dict_cached_value.16158>
    829d:	48 8d 35 ac b8 00 00 	lea    0xb8ac(%rip),%rsi        # 13b50 <__pyx_dict_version.16157>
    82a4:	e8 5e 24 00 00       	callq  a707 <__Pyx__GetModuleGlobalName>
    82a9:	48 89 c5             	mov    %rax,%rbp
    82ac:	48 85 c0             	test   %rax,%rax
    82af:	0f 84 bb 15 00 00    	je     9870 <__pyx_pymod_exec_arrow_mouse+0x46df>
    82b5:	48 89 ef             	mov    %rbp,%rdi
    82b8:	e8 e9 20 00 00       	callq  a3a6 <__Pyx_PyObject_IsTrue>
    82bd:	41 89 c4             	mov    %eax,%r12d
    82c0:	85 c0                	test   %eax,%eax
    82c2:	0f 88 c6 15 00 00    	js     988e <__pyx_pymod_exec_arrow_mouse+0x46fd>
    82c8:	48 89 ef             	mov    %rbp,%rdi
    82cb:	e8 9f 24 00 00       	callq  a76f <_Py_DECREF.isra.0>
    82d0:	45 85 e4             	test   %r12d,%r12d
    82d3:	0f 84 1f 03 00 00    	je     85f8 <__pyx_pymod_exec_arrow_mouse+0x3467>
    82d9:	48 8b 05 c0 bd 00 00 	mov    0xbdc0(%rip),%rax        # 140a0 <__pyx_d>
    82e0:	48 8b 0d 59 b8 00 00 	mov    0xb859(%rip),%rcx        # 13b40 <__pyx_dict_version.16159>
    82e7:	48 39 48 18          	cmp    %rcx,0x18(%rax)
    82eb:	75 20                	jne    830d <__pyx_pymod_exec_arrow_mouse+0x317c>
    82ed:	48 8b 2d 44 b8 00 00 	mov    0xb844(%rip),%rbp        # 13b38 <__pyx_dict_cached_value.16160>
    82f4:	48 85 ed             	test   %rbp,%rbp
    82f7:	74 06                	je     82ff <__pyx_pymod_exec_arrow_mouse+0x316e>
    82f9:	48 ff 45 00          	incq   0x0(%rbp)
    82fd:	eb 34                	jmp    8333 <__pyx_pymod_exec_arrow_mouse+0x31a2>
    82ff:	48 8b 3d 0a bc 00 00 	mov    0xbc0a(%rip),%rdi        # 13f10 <__pyx_n_s_mouse>
    8306:	e8 bc 23 00 00       	callq  a6c7 <__Pyx_GetBuiltinName>
    830b:	eb 1a                	jmp    8327 <__pyx_pymod_exec_arrow_mouse+0x3196>
    830d:	48 8b 3d fc bb 00 00 	mov    0xbbfc(%rip),%rdi        # 13f10 <__pyx_n_s_mouse>
    8314:	48 8d 15 1d b8 00 00 	lea    0xb81d(%rip),%rdx        # 13b38 <__pyx_dict_cached_value.16160>
    831b:	48 8d 35 1e b8 00 00 	lea    0xb81e(%rip),%rsi        # 13b40 <__pyx_dict_version.16159>
    8322:	e8 e0 23 00 00       	callq  a707 <__Pyx__GetModuleGlobalName>
    8327:	48 89 c5             	mov    %rax,%rbp
    832a:	48 85 c0             	test   %rax,%rax
    832d:	0f 84 76 15 00 00    	je     98a9 <__pyx_pymod_exec_arrow_mouse+0x4718>
    8333:	48 8b 35 ce bb 00 00 	mov    0xbbce(%rip),%rsi        # 13f08 <__pyx_n_s_move>
    833a:	48 89 ef             	mov    %rbp,%rdi
    833d:	e8 d3 1e 00 00       	callq  a215 <__Pyx_PyObject_GetAttrStr>
    8342:	49 89 c5             	mov    %rax,%r13
    8345:	48 85 c0             	test   %rax,%rax
    8348:	0f 84 79 15 00 00    	je     98c7 <__pyx_pymod_exec_arrow_mouse+0x4736>
    834e:	48 89 ef             	mov    %rbp,%rdi
    8351:	e8 19 24 00 00       	callq  a76f <_Py_DECREF.isra.0>
    8356:	48 8b 05 43 bd 00 00 	mov    0xbd43(%rip),%rax        # 140a0 <__pyx_d>
    835d:	48 8b 0d cc b7 00 00 	mov    0xb7cc(%rip),%rcx        # 13b30 <__pyx_dict_version.16161>
    8364:	48 39 48 18          	cmp    %rcx,0x18(%rax)
    8368:	75 1f                	jne    8389 <__pyx_pymod_exec_arrow_mouse+0x31f8>
    836a:	48 8b 1d b7 b7 00 00 	mov    0xb7b7(%rip),%rbx        # 13b28 <__pyx_dict_cached_value.16162>
    8371:	48 85 db             	test   %rbx,%rbx
    8374:	74 05                	je     837b <__pyx_pymod_exec_arrow_mouse+0x31ea>
    8376:	48 ff 03             	incq   (%rbx)
    8379:	eb 37                	jmp    83b2 <__pyx_pymod_exec_arrow_mouse+0x3221>
    837b:	48 8b 3d ae ba 00 00 	mov    0xbaae(%rip),%rdi        # 13e30 <__pyx_n_s_x>
    8382:	e8 40 23 00 00       	callq  a6c7 <__Pyx_GetBuiltinName>
    8387:	eb 1a                	jmp    83a3 <__pyx_pymod_exec_arrow_mouse+0x3212>
    8389:	48 8b 3d a0 ba 00 00 	mov    0xbaa0(%rip),%rdi        # 13e30 <__pyx_n_s_x>
    8390:	48 8d 15 91 b7 00 00 	lea    0xb791(%rip),%rdx        # 13b28 <__pyx_dict_cached_value.16162>
    8397:	48 8d 35 92 b7 00 00 	lea    0xb792(%rip),%rsi        # 13b30 <__pyx_dict_version.16161>
    839e:	e8 64 23 00 00       	callq  a707 <__Pyx__GetModuleGlobalName>
    83a3:	48 89 c5             	mov    %rax,%rbp
    83a6:	48 85 c0             	test   %rax,%rax
    83a9:	0f 84 36 15 00 00    	je     98e5 <__pyx_pymod_exec_arrow_mouse+0x4754>
    83af:	48 89 c3             	mov    %rax,%rbx
    83b2:	48 8b 05 e7 bc 00 00 	mov    0xbce7(%rip),%rax        # 140a0 <__pyx_d>
    83b9:	48 8b 0d 60 b7 00 00 	mov    0xb760(%rip),%rcx        # 13b20 <__pyx_dict_version.16163>
    83c0:	48 39 48 18          	cmp    %rcx,0x18(%rax)
    83c4:	75 1f                	jne    83e5 <__pyx_pymod_exec_arrow_mouse+0x3254>
    83c6:	4c 8b 0d 4b b7 00 00 	mov    0xb74b(%rip),%r9        # 13b18 <__pyx_dict_cached_value.16164>
    83cd:	4d 85 c9             	test   %r9,%r9
    83d0:	74 05                	je     83d7 <__pyx_pymod_exec_arrow_mouse+0x3246>
    83d2:	49 ff 01             	incq   (%r9)
    83d5:	eb 37                	jmp    840e <__pyx_pymod_exec_arrow_mouse+0x327d>
    83d7:	48 8b 3d 4a ba 00 00 	mov    0xba4a(%rip),%rdi        # 13e28 <__pyx_n_s_y>
    83de:	e8 e4 22 00 00       	callq  a6c7 <__Pyx_GetBuiltinName>
    83e3:	eb 1a                	jmp    83ff <__pyx_pymod_exec_arrow_mouse+0x326e>
    83e5:	48 8b 3d 3c ba 00 00 	mov    0xba3c(%rip),%rdi        # 13e28 <__pyx_n_s_y>
    83ec:	48 8d 15 25 b7 00 00 	lea    0xb725(%rip),%rdx        # 13b18 <__pyx_dict_cached_value.16164>
    83f3:	48 8d 35 26 b7 00 00 	lea    0xb726(%rip),%rsi        # 13b20 <__pyx_dict_version.16163>
    83fa:	e8 08 23 00 00       	callq  a707 <__Pyx__GetModuleGlobalName>
    83ff:	48 89 c5             	mov    %rax,%rbp
    8402:	48 85 c0             	test   %rax,%rax
    8405:	0f 84 f5 14 00 00    	je     9900 <__pyx_pymod_exec_arrow_mouse+0x476f>
    840b:	49 89 c1             	mov    %rax,%r9
    840e:	45 31 e4             	xor    %r12d,%r12d
    8411:	48 8d 05 e8 ad 00 00 	lea    0xade8(%rip),%rax        # 13200 <PyMethod_Type>
    8418:	49 39 45 08          	cmp    %rax,0x8(%r13)
    841c:	75 31                	jne    844f <__pyx_pymod_exec_arrow_mouse+0x32be>
    841e:	4d 8b 65 18          	mov    0x18(%r13),%r12
    8422:	4d 85 e4             	test   %r12,%r12
    8425:	74 28                	je     844f <__pyx_pymod_exec_arrow_mouse+0x32be>
    8427:	49 8b 6d 10          	mov    0x10(%r13),%rbp
    842b:	49 ff 04 24          	incq   (%r12)
    842f:	4c 89 ef             	mov    %r13,%rdi
    8432:	4c 89 4c 24 08       	mov    %r9,0x8(%rsp)
    8437:	48 ff 45 00          	incq   0x0(%rbp)
    843b:	49 89 ed             	mov    %rbp,%r13
    843e:	e8 2c 23 00 00       	callq  a76f <_Py_DECREF.isra.0>
    8443:	c7 04 24 01 00 00 00 	movl   $0x1,(%rsp)
    844a:	4c 8b 4c 24 08       	mov    0x8(%rsp),%r9
    844f:	8b 0c 24             	mov    (%rsp),%ecx
    8452:	49 8b 45 08          	mov    0x8(%r13),%rax
    8456:	8d 51 02             	lea    0x2(%rcx),%edx
    8459:	48 8d 0d 80 b4 00 00 	lea    0xb480(%rip),%rcx        # 138e0 <PyFunction_Type>
    8460:	48 63 d2             	movslq %edx,%rdx
    8463:	48 39 c8             	cmp    %rcx,%rax
    8466:	75 4d                	jne    84b5 <__pyx_pymod_exec_arrow_mouse+0x3324>
    8468:	4c 63 3c 24          	movslq (%rsp),%r15
    846c:	b8 01 00 00 00       	mov    $0x1,%eax
    8471:	4c 89 ef             	mov    %r13,%rdi
    8474:	4c 89 4c 24 20       	mov    %r9,0x20(%rsp)
    8479:	4c 89 4c 24 08       	mov    %r9,0x8(%rsp)
    847e:	4c 29 f8             	sub    %r15,%rax
    8481:	4c 89 64 24 10       	mov    %r12,0x10(%rsp)
    8486:	48 8d 74 c4 10       	lea    0x10(%rsp,%rax,8),%rsi
    848b:	48 89 5c 24 18       	mov    %rbx,0x18(%rsp)
    8490:	e8 f9 2d 00 00       	callq  b28e <__Pyx_PyFunction_FastCallDict.constprop.0>
    8495:	4c 8b 4c 24 08       	mov    0x8(%rsp),%r9
    849a:	48 85 c0             	test   %rax,%rax
    849d:	48 89 c5             	mov    %rax,%rbp
    84a0:	75 7d                	jne    851f <__pyx_pymod_exec_arrow_mouse+0x338e>
    84a2:	45 31 f6             	xor    %r14d,%r14d
    84a5:	41 bf d1 0f 00 00    	mov    $0xfd1,%r15d
    84ab:	ba 6a 00 00 00       	mov    $0x6a,%edx
    84b0:	e9 92 d2 ff ff       	jmpq   5747 <__pyx_pymod_exec_arrow_mouse+0x5b6>
    84b5:	48 8d 0d c4 b0 00 00 	lea    0xb0c4(%rip),%rcx        # 13580 <PyCFunction_Type>
    84bc:	48 39 c8             	cmp    %rcx,%rax
    84bf:	75 7e                	jne    853f <__pyx_pymod_exec_arrow_mouse+0x33ae>
    84c1:	49 8b 45 10          	mov    0x10(%r13),%rax
    84c5:	8b 40 10             	mov    0x10(%rax),%eax
    84c8:	83 e0 8d             	and    $0xffffff8d,%eax
    84cb:	3d 80 00 00 00       	cmp    $0x80,%eax
    84d0:	75 6d                	jne    853f <__pyx_pymod_exec_arrow_mouse+0x33ae>
    84d2:	4c 63 3c 24          	movslq (%rsp),%r15
    84d6:	b8 01 00 00 00       	mov    $0x1,%eax
    84db:	4c 89 ef             	mov    %r13,%rdi
    84de:	4c 89 4c 24 20       	mov    %r9,0x20(%rsp)
    84e3:	4c 89 4c 24 08       	mov    %r9,0x8(%rsp)
    84e8:	4c 29 f8             	sub    %r15,%rax
    84eb:	4c 89 64 24 10       	mov    %r12,0x10(%rsp)
    84f0:	48 8d 74 c4 10       	lea    0x10(%rsp,%rax,8),%rsi
    84f5:	48 89 5c 24 18       	mov    %rbx,0x18(%rsp)
    84fa:	e8 8f 20 00 00       	callq  a58e <__Pyx_PyCFunction_FastCall>
    84ff:	4c 8b 4c 24 08       	mov    0x8(%rsp),%r9
    8504:	48 85 c0             	test   %rax,%rax
    8507:	48 89 c5             	mov    %rax,%rbp
    850a:	75 13                	jne    851f <__pyx_pymod_exec_arrow_mouse+0x338e>
    850c:	45 31 f6             	xor    %r14d,%r14d
    850f:	41 bf db 0f 00 00    	mov    $0xfdb,%r15d
    8515:	ba 6a 00 00 00       	mov    $0x6a,%edx
    851a:	e9 28 d2 ff ff       	jmpq   5747 <__pyx_pymod_exec_arrow_mouse+0x5b6>
    851f:	4c 89 e7             	mov    %r12,%rdi
    8522:	4c 89 0c 24          	mov    %r9,(%rsp)
    8526:	e8 34 23 00 00       	callq  a85f <_Py_XDECREF>
    852b:	48 89 df             	mov    %rbx,%rdi
    852e:	e8 3c 22 00 00       	callq  a76f <_Py_DECREF.isra.0>
    8533:	4c 8b 0c 24          	mov    (%rsp),%r9
    8537:	4c 89 cf             	mov    %r9,%rdi
    853a:	e9 a4 00 00 00       	jmpq   85e3 <__pyx_pymod_exec_arrow_mouse+0x3452>
    853f:	48 89 d7             	mov    %rdx,%rdi
    8542:	4c 89 4c 24 08       	mov    %r9,0x8(%rsp)
    8547:	e8 f4 c5 ff ff       	callq  4b40 <PyTuple_New@plt>
    854c:	4c 8b 4c 24 08       	mov    0x8(%rsp),%r9
    8551:	48 85 c0             	test   %rax,%rax
    8554:	49 89 c2             	mov    %rax,%r10
    8557:	0f 84 bc 13 00 00    	je     9919 <__pyx_pymod_exec_arrow_mouse+0x4788>
    855d:	48 8b 40 08          	mov    0x8(%rax),%rax
    8561:	48 8b 80 a8 00 00 00 	mov    0xa8(%rax),%rax
    8568:	25 00 00 00 04       	and    $0x4000000,%eax
    856d:	4d 85 e4             	test   %r12,%r12
    8570:	74 19                	je     858b <__pyx_pymod_exec_arrow_mouse+0x33fa>
    8572:	48 85 c0             	test   %rax,%rax
    8575:	75 0e                	jne    8585 <__pyx_pymod_exec_arrow_mouse+0x33f4>
    8577:	48 8d 0d 52 58 00 00 	lea    0x5852(%rip),%rcx        # ddd0 <__PRETTY_FUNCTION__.16078>
    857e:	ba e6 0f 00 00       	mov    $0xfe6,%edx
    8583:	eb 17                	jmp    859c <__pyx_pymod_exec_arrow_mouse+0x340b>
    8585:	4d 89 62 18          	mov    %r12,0x18(%r10)
    8589:	eb 24                	jmp    85af <__pyx_pymod_exec_arrow_mouse+0x341e>
    858b:	48 85 c0             	test   %rax,%rax
    858e:	75 1f                	jne    85af <__pyx_pymod_exec_arrow_mouse+0x341e>
    8590:	48 8d 0d 39 58 00 00 	lea    0x5839(%rip),%rcx        # ddd0 <__PRETTY_FUNCTION__.16078>
    8597:	ba e9 0f 00 00       	mov    $0xfe9,%edx
    859c:	48 8d 35 61 4a 00 00 	lea    0x4a61(%rip),%rsi        # d004 <_IO_stdin_used+0x4>
    85a3:	48 8d 3d 3d 54 00 00 	lea    0x543d(%rip),%rdi        # d9e7 <_IO_stdin_used+0x9e7>
    85aa:	e9 02 db ff ff       	jmpq   60b1 <__pyx_pymod_exec_arrow_mouse+0xf20>
    85af:	4c 63 3c 24          	movslq (%rsp),%r15
    85b3:	31 d2                	xor    %edx,%edx
    85b5:	4c 89 d6             	mov    %r10,%rsi
    85b8:	4c 89 ef             	mov    %r13,%rdi
    85bb:	4c 89 14 24          	mov    %r10,(%rsp)
    85bf:	4b 8d 04 fa          	lea    (%r10,%r15,8),%rax
    85c3:	48 89 58 18          	mov    %rbx,0x18(%rax)
    85c7:	4c 89 48 20          	mov    %r9,0x20(%rax)
    85cb:	e8 0d 1d 00 00       	callq  a2dd <__Pyx_PyObject_Call>
    85d0:	4c 8b 14 24          	mov    (%rsp),%r10
    85d4:	48 85 c0             	test   %rax,%rax
    85d7:	48 89 c5             	mov    %rax,%rbp
    85da:	0f 84 4e 13 00 00    	je     992e <__pyx_pymod_exec_arrow_mouse+0x479d>
    85e0:	4c 89 d7             	mov    %r10,%rdi
    85e3:	e8 87 21 00 00       	callq  a76f <_Py_DECREF.isra.0>
    85e8:	4c 89 ef             	mov    %r13,%rdi
    85eb:	e8 7f 21 00 00       	callq  a76f <_Py_DECREF.isra.0>
    85f0:	48 89 ef             	mov    %rbp,%rdi
    85f3:	e8 77 21 00 00       	callq  a76f <_Py_DECREF.isra.0>
    85f8:	48 8b 05 a1 ba 00 00 	mov    0xbaa1(%rip),%rax        # 140a0 <__pyx_d>
    85ff:	48 8b 0d 0a b5 00 00 	mov    0xb50a(%rip),%rcx        # 13b10 <__pyx_dict_version.16169>
    8606:	48 39 48 18          	cmp    %rcx,0x18(%rax)
    860a:	75 20                	jne    862c <__pyx_pymod_exec_arrow_mouse+0x349b>
    860c:	48 8b 2d f5 b4 00 00 	mov    0xb4f5(%rip),%rbp        # 13b08 <__pyx_dict_cached_value.16170>
    8613:	48 85 ed             	test   %rbp,%rbp
    8616:	74 06                	je     861e <__pyx_pymod_exec_arrow_mouse+0x348d>
    8618:	48 ff 45 00          	incq   0x0(%rbp)
    861c:	eb 34                	jmp    8652 <__pyx_pymod_exec_arrow_mouse+0x34c1>
    861e:	48 8b 3d db b8 00 00 	mov    0xb8db(%rip),%rdi        # 13f00 <__pyx_n_s_move_mouse>
    8625:	e8 9d 20 00 00       	callq  a6c7 <__Pyx_GetBuiltinName>
    862a:	eb 1a                	jmp    8646 <__pyx_pymod_exec_arrow_mouse+0x34b5>
    862c:	48 8b 3d cd b8 00 00 	mov    0xb8cd(%rip),%rdi        # 13f00 <__pyx_n_s_move_mouse>
    8633:	48 8d 15 ce b4 00 00 	lea    0xb4ce(%rip),%rdx        # 13b08 <__pyx_dict_cached_value.16170>
    863a:	48 8d 35 cf b4 00 00 	lea    0xb4cf(%rip),%rsi        # 13b10 <__pyx_dict_version.16169>
    8641:	e8 c1 20 00 00       	callq  a707 <__Pyx__GetModuleGlobalName>
    8646:	48 89 c5             	mov    %rax,%rbp
    8649:	48 85 c0             	test   %rax,%rax
    864c:	0f 84 f7 12 00 00    	je     9949 <__pyx_pymod_exec_arrow_mouse+0x47b8>
    8652:	48 8b 35 f7 b8 00 00 	mov    0xb8f7(%rip),%rsi        # 13f50 <__pyx_n_s_last_move_mouse>
    8659:	48 8b 3d 40 ba 00 00 	mov    0xba40(%rip),%rdi        # 140a0 <__pyx_d>
    8660:	48 89 ea             	mov    %rbp,%rdx
    8663:	e8 e8 c5 ff ff       	callq  4c50 <PyDict_SetItem@plt>
    8668:	85 c0                	test   %eax,%eax
    866a:	0f 88 f7 12 00 00    	js     9967 <__pyx_pymod_exec_arrow_mouse+0x47d6>
    8670:	48 89 ef             	mov    %rbp,%rdi
    8673:	e8 f7 20 00 00       	callq  a76f <_Py_DECREF.isra.0>
    8678:	48 8b 05 21 ba 00 00 	mov    0xba21(%rip),%rax        # 140a0 <__pyx_d>
    867f:	48 8b 0d 7a b4 00 00 	mov    0xb47a(%rip),%rcx        # 13b00 <__pyx_dict_version.16171>
    8686:	48 39 48 18          	cmp    %rcx,0x18(%rax)
    868a:	75 20                	jne    86ac <__pyx_pymod_exec_arrow_mouse+0x351b>
    868c:	48 8b 2d 65 b4 00 00 	mov    0xb465(%rip),%rbp        # 13af8 <__pyx_dict_cached_value.16172>
    8693:	48 85 ed             	test   %rbp,%rbp
    8696:	74 06                	je     869e <__pyx_pymod_exec_arrow_mouse+0x350d>
    8698:	48 ff 45 00          	incq   0x0(%rbp)
    869c:	eb 34                	jmp    86d2 <__pyx_pymod_exec_arrow_mouse+0x3541>
    869e:	48 8b 3d ab b7 00 00 	mov    0xb7ab(%rip),%rdi        # 13e50 <__pyx_n_s_time>
    86a5:	e8 1d 20 00 00       	callq  a6c7 <__Pyx_GetBuiltinName>
    86aa:	eb 1a                	jmp    86c6 <__pyx_pymod_exec_arrow_mouse+0x3535>
    86ac:	48 8b 3d 9d b7 00 00 	mov    0xb79d(%rip),%rdi        # 13e50 <__pyx_n_s_time>
    86b3:	48 8d 15 3e b4 00 00 	lea    0xb43e(%rip),%rdx        # 13af8 <__pyx_dict_cached_value.16172>
    86ba:	48 8d 35 3f b4 00 00 	lea    0xb43f(%rip),%rsi        # 13b00 <__pyx_dict_version.16171>
    86c1:	e8 41 20 00 00       	callq  a707 <__Pyx__GetModuleGlobalName>
    86c6:	48 89 c5             	mov    %rax,%rbp
    86c9:	48 85 c0             	test   %rax,%rax
    86cc:	0f 84 b0 12 00 00    	je     9982 <__pyx_pymod_exec_arrow_mouse+0x47f1>
    86d2:	48 8b 35 c7 b7 00 00 	mov    0xb7c7(%rip),%rsi        # 13ea0 <__pyx_n_s_sleep>
    86d9:	48 89 ef             	mov    %rbp,%rdi
    86dc:	e8 34 1b 00 00       	callq  a215 <__Pyx_PyObject_GetAttrStr>
    86e1:	49 89 c1             	mov    %rax,%r9
    86e4:	48 85 c0             	test   %rax,%rax
    86e7:	0f 84 b3 12 00 00    	je     99a0 <__pyx_pymod_exec_arrow_mouse+0x480f>
    86ed:	48 89 ef             	mov    %rbp,%rdi
    86f0:	48 89 04 24          	mov    %rax,(%rsp)
    86f4:	e8 76 20 00 00       	callq  a76f <_Py_DECREF.isra.0>
    86f9:	48 8b 05 a0 b9 00 00 	mov    0xb9a0(%rip),%rax        # 140a0 <__pyx_d>
    8700:	48 8b 0d e9 b3 00 00 	mov    0xb3e9(%rip),%rcx        # 13af0 <__pyx_dict_version.16173>
    8707:	4c 8b 0c 24          	mov    (%rsp),%r9
    870b:	48 39 48 18          	cmp    %rcx,0x18(%rax)
    870f:	75 24                	jne    8735 <__pyx_pymod_exec_arrow_mouse+0x35a4>
    8711:	48 8b 2d d0 b3 00 00 	mov    0xb3d0(%rip),%rbp        # 13ae8 <__pyx_dict_cached_value.16174>
    8718:	48 85 ed             	test   %rbp,%rbp
    871b:	74 06                	je     8723 <__pyx_pymod_exec_arrow_mouse+0x3592>
    871d:	48 ff 45 00          	incq   0x0(%rbp)
    8721:	eb 40                	jmp    8763 <__pyx_pymod_exec_arrow_mouse+0x35d2>
    8723:	48 8b 3d 76 b8 00 00 	mov    0xb876(%rip),%rdi        # 13fa0 <__pyx_n_s_fps_screen_nowadays>
    872a:	4c 89 0c 24          	mov    %r9,(%rsp)
    872e:	e8 94 1f 00 00       	callq  a6c7 <__Pyx_GetBuiltinName>
    8733:	eb 1e                	jmp    8753 <__pyx_pymod_exec_arrow_mouse+0x35c2>
    8735:	48 8b 3d 64 b8 00 00 	mov    0xb864(%rip),%rdi        # 13fa0 <__pyx_n_s_fps_screen_nowadays>
    873c:	48 8d 15 a5 b3 00 00 	lea    0xb3a5(%rip),%rdx        # 13ae8 <__pyx_dict_cached_value.16174>
    8743:	48 8d 35 a6 b3 00 00 	lea    0xb3a6(%rip),%rsi        # 13af0 <__pyx_dict_version.16173>
    874a:	4c 89 0c 24          	mov    %r9,(%rsp)
    874e:	e8 b4 1f 00 00       	callq  a707 <__Pyx__GetModuleGlobalName>
    8753:	4c 8b 0c 24          	mov    (%rsp),%r9
    8757:	48 89 c5             	mov    %rax,%rbp
    875a:	48 85 c0             	test   %rax,%rax
    875d:	0f 84 5a 12 00 00    	je     99bd <__pyx_pymod_exec_arrow_mouse+0x482c>
    8763:	48 8b 3d a6 b6 00 00 	mov    0xb6a6(%rip),%rdi        # 13e10 <__pyx_int_1>
    876a:	48 89 ee             	mov    %rbp,%rsi
    876d:	4c 89 0c 24          	mov    %r9,(%rsp)
    8771:	e8 2a c4 ff ff       	callq  4ba0 <PyNumber_TrueDivide@plt>
    8776:	4c 8b 0c 24          	mov    (%rsp),%r9
    877a:	48 85 c0             	test   %rax,%rax
    877d:	49 89 c4             	mov    %rax,%r12
    8780:	0f 84 55 12 00 00    	je     99db <__pyx_pymod_exec_arrow_mouse+0x484a>
    8786:	48 89 ef             	mov    %rbp,%rdi
    8789:	e8 e1 1f 00 00       	callq  a76f <_Py_DECREF.isra.0>
    878e:	4c 8b 0c 24          	mov    (%rsp),%r9
    8792:	48 8d 05 67 aa 00 00 	lea    0xaa67(%rip),%rax        # 13200 <PyMethod_Type>
    8799:	49 39 41 08          	cmp    %rax,0x8(%r9)
    879d:	75 2f                	jne    87ce <__pyx_pymod_exec_arrow_mouse+0x363d>
    879f:	4d 8b 79 18          	mov    0x18(%r9),%r15
    87a3:	4d 85 ff             	test   %r15,%r15
    87a6:	74 26                	je     87ce <__pyx_pymod_exec_arrow_mouse+0x363d>
    87a8:	4d 8b 69 10          	mov    0x10(%r9),%r13
    87ac:	49 ff 07             	incq   (%r15)
    87af:	4c 89 cf             	mov    %r9,%rdi
    87b2:	49 ff 45 00          	incq   0x0(%r13)
    87b6:	e8 b4 1f 00 00       	callq  a76f <_Py_DECREF.isra.0>
    87bb:	4c 89 e2             	mov    %r12,%rdx
    87be:	4c 89 fe             	mov    %r15,%rsi
    87c1:	4c 89 ef             	mov    %r13,%rdi
    87c4:	e8 31 2c 00 00       	callq  b3fa <__Pyx_PyObject_Call2Args>
    87c9:	48 89 c5             	mov    %rax,%rbp
    87cc:	eb 1c                	jmp    87ea <__pyx_pymod_exec_arrow_mouse+0x3659>
    87ce:	4c 89 cf             	mov    %r9,%rdi
    87d1:	4c 89 e6             	mov    %r12,%rsi
    87d4:	4c 89 0c 24          	mov    %r9,(%rsp)
    87d8:	45 31 ff             	xor    %r15d,%r15d
    87db:	e8 54 2d 00 00       	callq  b534 <__Pyx_PyObject_CallOneArg>
    87e0:	4c 8b 0c 24          	mov    (%rsp),%r9
    87e4:	48 89 c5             	mov    %rax,%rbp
    87e7:	4d 89 cd             	mov    %r9,%r13
    87ea:	4c 89 ff             	mov    %r15,%rdi
    87ed:	e8 6d 20 00 00       	callq  a85f <_Py_XDECREF>
    87f2:	4c 89 e7             	mov    %r12,%rdi
    87f5:	e8 75 1f 00 00       	callq  a76f <_Py_DECREF.isra.0>
    87fa:	48 85 ed             	test   %rbp,%rbp
    87fd:	0f 84 f5 11 00 00    	je     99f8 <__pyx_pymod_exec_arrow_mouse+0x4867>
    8803:	4c 89 ef             	mov    %r13,%rdi
    8806:	e8 64 1f 00 00       	callq  a76f <_Py_DECREF.isra.0>
    880b:	e9 2d dd ff ff       	jmpq   653d <__pyx_pymod_exec_arrow_mouse+0x13ac>
    8810:	e8 4b c4 ff ff       	callq  4c60 <PyDict_New@plt>
    8815:	48 89 c5             	mov    %rax,%rbp
    8818:	48 85 c0             	test   %rax,%rax
    881b:	0f 84 f5 11 00 00    	je     9a16 <__pyx_pymod_exec_arrow_mouse+0x4885>
    8821:	48 8b 3d 78 b8 00 00 	mov    0xb878(%rip),%rdi        # 140a0 <__pyx_d>
    8828:	48 8b 35 31 b6 00 00 	mov    0xb631(%rip),%rsi        # 13e60 <__pyx_n_s_test_2>
    882f:	48 89 c2             	mov    %rax,%rdx
    8832:	e8 19 c4 ff ff       	callq  4c50 <PyDict_SetItem@plt>
    8837:	48 89 ef             	mov    %rbp,%rdi
    883a:	85 c0                	test   %eax,%eax
    883c:	0f 89 86 cf ff ff    	jns    57c8 <__pyx_pymod_exec_arrow_mouse+0x637>
    8842:	31 db                	xor    %ebx,%ebx
    8844:	45 31 c9             	xor    %r9d,%r9d
    8847:	45 31 ed             	xor    %r13d,%r13d
    884a:	45 31 e4             	xor    %r12d,%r12d
    884d:	41 bf 4f 10 00 00    	mov    $0x104f,%r15d
    8853:	ba 01 00 00 00       	mov    $0x1,%edx
    8858:	e9 ea ce ff ff       	jmpq   5747 <__pyx_pymod_exec_arrow_mouse+0x5b6>
    885d:	31 db                	xor    %ebx,%ebx
    885f:	45 31 f6             	xor    %r14d,%r14d
    8862:	45 31 c9             	xor    %r9d,%r9d
    8865:	45 31 ed             	xor    %r13d,%r13d
    8868:	31 ed                	xor    %ebp,%ebp
    886a:	41 bf 44 0b 00 00    	mov    $0xb44,%r15d
    8870:	ba 01 00 00 00       	mov    $0x1,%edx
    8875:	e9 cd ce ff ff       	jmpq   5747 <__pyx_pymod_exec_arrow_mouse+0x5b6>
    887a:	31 db                	xor    %ebx,%ebx
    887c:	45 31 f6             	xor    %r14d,%r14d
    887f:	45 31 c9             	xor    %r9d,%r9d
    8882:	45 31 ed             	xor    %r13d,%r13d
    8885:	45 31 e4             	xor    %r12d,%r12d
    8888:	41 bf 4b 0b 00 00    	mov    $0xb4b,%r15d
    888e:	ba 01 00 00 00       	mov    $0x1,%edx
    8893:	e9 af ce ff ff       	jmpq   5747 <__pyx_pymod_exec_arrow_mouse+0x5b6>
    8898:	31 db                	xor    %ebx,%ebx
    889a:	45 31 f6             	xor    %r14d,%r14d
    889d:	45 31 c9             	xor    %r9d,%r9d
    88a0:	45 31 ed             	xor    %r13d,%r13d
    88a3:	45 31 e4             	xor    %r12d,%r12d
    88a6:	41 bf 60 0b 00 00    	mov    $0xb60,%r15d
    88ac:	ba 01 00 00 00       	mov    $0x1,%edx
    88b1:	e9 91 ce ff ff       	jmpq   5747 <__pyx_pymod_exec_arrow_mouse+0x5b6>
    88b6:	31 db                	xor    %ebx,%ebx
    88b8:	45 31 c9             	xor    %r9d,%r9d
    88bb:	45 31 ed             	xor    %r13d,%r13d
    88be:	45 31 e4             	xor    %r12d,%r12d
    88c1:	41 bf 62 0b 00 00    	mov    $0xb62,%r15d
    88c7:	ba 01 00 00 00       	mov    $0x1,%edx
    88cc:	e9 76 ce ff ff       	jmpq   5747 <__pyx_pymod_exec_arrow_mouse+0x5b6>
    88d1:	31 db                	xor    %ebx,%ebx
    88d3:	45 31 f6             	xor    %r14d,%r14d
    88d6:	45 31 c9             	xor    %r9d,%r9d
    88d9:	45 31 ed             	xor    %r13d,%r13d
    88dc:	45 31 e4             	xor    %r12d,%r12d
    88df:	41 bf 6b 0b 00 00    	mov    $0xb6b,%r15d
    88e5:	ba 02 00 00 00       	mov    $0x2,%edx
    88ea:	e9 58 ce ff ff       	jmpq   5747 <__pyx_pymod_exec_arrow_mouse+0x5b6>
    88ef:	31 db                	xor    %ebx,%ebx
    88f1:	45 31 c9             	xor    %r9d,%r9d
    88f4:	45 31 ed             	xor    %r13d,%r13d
    88f7:	45 31 e4             	xor    %r12d,%r12d
    88fa:	41 bf 6d 0b 00 00    	mov    $0xb6d,%r15d
    8900:	ba 02 00 00 00       	mov    $0x2,%edx
    8905:	e9 3d ce ff ff       	jmpq   5747 <__pyx_pymod_exec_arrow_mouse+0x5b6>
    890a:	31 db                	xor    %ebx,%ebx
    890c:	45 31 f6             	xor    %r14d,%r14d
    890f:	45 31 c9             	xor    %r9d,%r9d
    8912:	45 31 ed             	xor    %r13d,%r13d
    8915:	45 31 e4             	xor    %r12d,%r12d
    8918:	41 bf 77 0b 00 00    	mov    $0xb77,%r15d
    891e:	ba 03 00 00 00       	mov    $0x3,%edx
    8923:	e9 1f ce ff ff       	jmpq   5747 <__pyx_pymod_exec_arrow_mouse+0x5b6>
    8928:	31 db                	xor    %ebx,%ebx
    892a:	45 31 c9             	xor    %r9d,%r9d
    892d:	45 31 ed             	xor    %r13d,%r13d
    8930:	45 31 e4             	xor    %r12d,%r12d
    8933:	41 bf 79 0b 00 00    	mov    $0xb79,%r15d
    8939:	ba 03 00 00 00       	mov    $0x3,%edx
    893e:	e9 04 ce ff ff       	jmpq   5747 <__pyx_pymod_exec_arrow_mouse+0x5b6>
    8943:	31 db                	xor    %ebx,%ebx
    8945:	45 31 f6             	xor    %r14d,%r14d
    8948:	45 31 c9             	xor    %r9d,%r9d
    894b:	45 31 ed             	xor    %r13d,%r13d
    894e:	45 31 e4             	xor    %r12d,%r12d
    8951:	41 bf 83 0b 00 00    	mov    $0xb83,%r15d
    8957:	ba 06 00 00 00       	mov    $0x6,%edx
    895c:	e9 e6 cd ff ff       	jmpq   5747 <__pyx_pymod_exec_arrow_mouse+0x5b6>
    8961:	31 db                	xor    %ebx,%ebx
    8963:	45 31 f6             	xor    %r14d,%r14d
    8966:	45 31 c9             	xor    %r9d,%r9d
    8969:	45 31 ed             	xor    %r13d,%r13d
    896c:	41 bf 8d 0b 00 00    	mov    $0xb8d,%r15d
    8972:	ba 07 00 00 00       	mov    $0x7,%edx
    8977:	e9 cb cd ff ff       	jmpq   5747 <__pyx_pymod_exec_arrow_mouse+0x5b6>
    897c:	31 db                	xor    %ebx,%ebx
    897e:	45 31 c9             	xor    %r9d,%r9d
    8981:	45 31 ed             	xor    %r13d,%r13d
    8984:	41 bf 8f 0b 00 00    	mov    $0xb8f,%r15d
    898a:	ba 07 00 00 00       	mov    $0x7,%edx
    898f:	e9 b3 cd ff ff       	jmpq   5747 <__pyx_pymod_exec_arrow_mouse+0x5b6>
    8994:	31 db                	xor    %ebx,%ebx
    8996:	45 31 f6             	xor    %r14d,%r14d
    8999:	45 31 c9             	xor    %r9d,%r9d
    899c:	45 31 ed             	xor    %r13d,%r13d
    899f:	41 bf 99 0b 00 00    	mov    $0xb99,%r15d
    89a5:	ba 0a 00 00 00       	mov    $0xa,%edx
    89aa:	e9 98 cd ff ff       	jmpq   5747 <__pyx_pymod_exec_arrow_mouse+0x5b6>
    89af:	31 db                	xor    %ebx,%ebx
    89b1:	45 31 c9             	xor    %r9d,%r9d
    89b4:	45 31 ed             	xor    %r13d,%r13d
    89b7:	41 bf 9b 0b 00 00    	mov    $0xb9b,%r15d
    89bd:	ba 0a 00 00 00       	mov    $0xa,%edx
    89c2:	e9 80 cd ff ff       	jmpq   5747 <__pyx_pymod_exec_arrow_mouse+0x5b6>
    89c7:	31 db                	xor    %ebx,%ebx
    89c9:	45 31 f6             	xor    %r14d,%r14d
    89cc:	45 31 c9             	xor    %r9d,%r9d
    89cf:	45 31 ed             	xor    %r13d,%r13d
    89d2:	41 bf a5 0b 00 00    	mov    $0xba5,%r15d
    89d8:	ba 0e 00 00 00       	mov    $0xe,%edx
    89dd:	e9 65 cd ff ff       	jmpq   5747 <__pyx_pymod_exec_arrow_mouse+0x5b6>
    89e2:	31 db                	xor    %ebx,%ebx
    89e4:	45 31 f6             	xor    %r14d,%r14d
    89e7:	45 31 c9             	xor    %r9d,%r9d
    89ea:	41 bf af 0b 00 00    	mov    $0xbaf,%r15d
    89f0:	ba 0d 00 00 00       	mov    $0xd,%edx
    89f5:	e9 4d cd ff ff       	jmpq   5747 <__pyx_pymod_exec_arrow_mouse+0x5b6>
    89fa:	31 db                	xor    %ebx,%ebx
    89fc:	45 31 c9             	xor    %r9d,%r9d
    89ff:	45 31 e4             	xor    %r12d,%r12d
    8a02:	41 bf b2 0b 00 00    	mov    $0xbb2,%r15d
    8a08:	ba 0e 00 00 00       	mov    $0xe,%edx
    8a0d:	e9 35 cd ff ff       	jmpq   5747 <__pyx_pymod_exec_arrow_mouse+0x5b6>
    8a12:	31 db                	xor    %ebx,%ebx
    8a14:	45 31 f6             	xor    %r14d,%r14d
    8a17:	45 31 c9             	xor    %r9d,%r9d
    8a1a:	45 31 e4             	xor    %r12d,%r12d
    8a1d:	41 bf bc 0b 00 00    	mov    $0xbbc,%r15d
    8a23:	ba 16 00 00 00       	mov    $0x16,%edx
    8a28:	e9 1a cd ff ff       	jmpq   5747 <__pyx_pymod_exec_arrow_mouse+0x5b6>
    8a2d:	31 db                	xor    %ebx,%ebx
    8a2f:	45 31 f6             	xor    %r14d,%r14d
    8a32:	45 31 c9             	xor    %r9d,%r9d
    8a35:	41 bf c6 0b 00 00    	mov    $0xbc6,%r15d
    8a3b:	ba 15 00 00 00       	mov    $0x15,%edx
    8a40:	e9 02 cd ff ff       	jmpq   5747 <__pyx_pymod_exec_arrow_mouse+0x5b6>
    8a45:	31 db                	xor    %ebx,%ebx
    8a47:	45 31 c9             	xor    %r9d,%r9d
    8a4a:	45 31 ed             	xor    %r13d,%r13d
    8a4d:	41 bf c9 0b 00 00    	mov    $0xbc9,%r15d
    8a53:	ba 16 00 00 00       	mov    $0x16,%edx
    8a58:	e9 ea cc ff ff       	jmpq   5747 <__pyx_pymod_exec_arrow_mouse+0x5b6>
    8a5d:	31 db                	xor    %ebx,%ebx
    8a5f:	45 31 f6             	xor    %r14d,%r14d
    8a62:	45 31 c9             	xor    %r9d,%r9d
    8a65:	45 31 e4             	xor    %r12d,%r12d
    8a68:	41 bf d3 0b 00 00    	mov    $0xbd3,%r15d
    8a6e:	ba 06 00 00 00       	mov    $0x6,%edx
    8a73:	e9 cf cc ff ff       	jmpq   5747 <__pyx_pymod_exec_arrow_mouse+0x5b6>
    8a78:	31 db                	xor    %ebx,%ebx
    8a7a:	45 31 f6             	xor    %r14d,%r14d
    8a7d:	45 31 c9             	xor    %r9d,%r9d
    8a80:	45 31 ed             	xor    %r13d,%r13d
    8a83:	41 bf d3 0b 00 00    	mov    $0xbd3,%r15d
    8a89:	ba 06 00 00 00       	mov    $0x6,%edx
    8a8e:	e9 b4 cc ff ff       	jmpq   5747 <__pyx_pymod_exec_arrow_mouse+0x5b6>
    8a93:	31 db                	xor    %ebx,%ebx
    8a95:	45 31 c9             	xor    %r9d,%r9d
    8a98:	45 31 ed             	xor    %r13d,%r13d
    8a9b:	41 bf d5 0b 00 00    	mov    $0xbd5,%r15d
    8aa1:	ba 06 00 00 00       	mov    $0x6,%edx
    8aa6:	e9 9c cc ff ff       	jmpq   5747 <__pyx_pymod_exec_arrow_mouse+0x5b6>
    8aab:	31 db                	xor    %ebx,%ebx
    8aad:	45 31 f6             	xor    %r14d,%r14d
    8ab0:	45 31 c9             	xor    %r9d,%r9d
    8ab3:	45 31 ed             	xor    %r13d,%r13d
    8ab6:	45 31 e4             	xor    %r12d,%r12d
    8ab9:	41 bf e0 0b 00 00    	mov    $0xbe0,%r15d
    8abf:	ba 19 00 00 00       	mov    $0x19,%edx
    8ac4:	e9 7e cc ff ff       	jmpq   5747 <__pyx_pymod_exec_arrow_mouse+0x5b6>
    8ac9:	31 db                	xor    %ebx,%ebx
    8acb:	45 31 f6             	xor    %r14d,%r14d
    8ace:	45 31 c9             	xor    %r9d,%r9d
    8ad1:	45 31 ed             	xor    %r13d,%r13d
    8ad4:	41 bf e2 0b 00 00    	mov    $0xbe2,%r15d
    8ada:	ba 19 00 00 00       	mov    $0x19,%edx
    8adf:	e9 63 cc ff ff       	jmpq   5747 <__pyx_pymod_exec_arrow_mouse+0x5b6>
    8ae4:	31 db                	xor    %ebx,%ebx
    8ae6:	45 31 c9             	xor    %r9d,%r9d
    8ae9:	45 31 ed             	xor    %r13d,%r13d
    8aec:	45 31 e4             	xor    %r12d,%r12d
    8aef:	41 bf e2 0b 00 00    	mov    $0xbe2,%r15d
    8af5:	ba 19 00 00 00       	mov    $0x19,%edx
    8afa:	e9 48 cc ff ff       	jmpq   5747 <__pyx_pymod_exec_arrow_mouse+0x5b6>
    8aff:	31 db                	xor    %ebx,%ebx
    8b01:	45 31 c9             	xor    %r9d,%r9d
    8b04:	45 31 ed             	xor    %r13d,%r13d
    8b07:	45 31 e4             	xor    %r12d,%r12d
    8b0a:	31 ed                	xor    %ebp,%ebp
    8b0c:	41 bf ed 0b 00 00    	mov    $0xbed,%r15d
    8b12:	ba 1c 00 00 00       	mov    $0x1c,%edx
    8b17:	e9 2b cc ff ff       	jmpq   5747 <__pyx_pymod_exec_arrow_mouse+0x5b6>
    8b1c:	31 db                	xor    %ebx,%ebx
    8b1e:	45 31 c9             	xor    %r9d,%r9d
    8b21:	45 31 ed             	xor    %r13d,%r13d
    8b24:	45 31 e4             	xor    %r12d,%r12d
    8b27:	31 ed                	xor    %ebp,%ebp
    8b29:	41 bf f6 0b 00 00    	mov    $0xbf6,%r15d
    8b2f:	ba 1d 00 00 00       	mov    $0x1d,%edx
    8b34:	e9 0e cc ff ff       	jmpq   5747 <__pyx_pymod_exec_arrow_mouse+0x5b6>
    8b39:	31 db                	xor    %ebx,%ebx
    8b3b:	45 31 c9             	xor    %r9d,%r9d
    8b3e:	45 31 ed             	xor    %r13d,%r13d
    8b41:	45 31 e4             	xor    %r12d,%r12d
    8b44:	31 ed                	xor    %ebp,%ebp
    8b46:	41 bf ff 0b 00 00    	mov    $0xbff,%r15d
    8b4c:	ba 1e 00 00 00       	mov    $0x1e,%edx
    8b51:	e9 f1 cb ff ff       	jmpq   5747 <__pyx_pymod_exec_arrow_mouse+0x5b6>
    8b56:	31 db                	xor    %ebx,%ebx
    8b58:	45 31 f6             	xor    %r14d,%r14d
    8b5b:	45 31 c9             	xor    %r9d,%r9d
    8b5e:	45 31 ed             	xor    %r13d,%r13d
    8b61:	45 31 e4             	xor    %r12d,%r12d
    8b64:	41 bf 08 0c 00 00    	mov    $0xc08,%r15d
    8b6a:	ba 1f 00 00 00       	mov    $0x1f,%edx
    8b6f:	e9 d3 cb ff ff       	jmpq   5747 <__pyx_pymod_exec_arrow_mouse+0x5b6>
    8b74:	31 db                	xor    %ebx,%ebx
    8b76:	45 31 f6             	xor    %r14d,%r14d
    8b79:	45 31 c9             	xor    %r9d,%r9d
    8b7c:	45 31 ed             	xor    %r13d,%r13d
    8b7f:	41 bf 0a 0c 00 00    	mov    $0xc0a,%r15d
    8b85:	ba 1f 00 00 00       	mov    $0x1f,%edx
    8b8a:	e9 b8 cb ff ff       	jmpq   5747 <__pyx_pymod_exec_arrow_mouse+0x5b6>
    8b8f:	31 db                	xor    %ebx,%ebx
    8b91:	45 31 c9             	xor    %r9d,%r9d
    8b94:	45 31 ed             	xor    %r13d,%r13d
    8b97:	31 ed                	xor    %ebp,%ebp
    8b99:	41 bf 0d 0c 00 00    	mov    $0xc0d,%r15d
    8b9f:	ba 1f 00 00 00       	mov    $0x1f,%edx
    8ba4:	e9 9e cb ff ff       	jmpq   5747 <__pyx_pymod_exec_arrow_mouse+0x5b6>
    8ba9:	31 db                	xor    %ebx,%ebx
    8bab:	45 31 f6             	xor    %r14d,%r14d
    8bae:	45 31 c9             	xor    %r9d,%r9d
    8bb1:	45 31 ed             	xor    %r13d,%r13d
    8bb4:	31 ed                	xor    %ebp,%ebp
    8bb6:	41 bf 17 0c 00 00    	mov    $0xc17,%r15d
    8bbc:	ba 20 00 00 00       	mov    $0x20,%edx
    8bc1:	e9 81 cb ff ff       	jmpq   5747 <__pyx_pymod_exec_arrow_mouse+0x5b6>
    8bc6:	31 db                	xor    %ebx,%ebx
    8bc8:	45 31 f6             	xor    %r14d,%r14d
    8bcb:	45 31 c9             	xor    %r9d,%r9d
    8bce:	45 31 ed             	xor    %r13d,%r13d
    8bd1:	41 bf 19 0c 00 00    	mov    $0xc19,%r15d
    8bd7:	ba 20 00 00 00       	mov    $0x20,%edx
    8bdc:	e9 66 cb ff ff       	jmpq   5747 <__pyx_pymod_exec_arrow_mouse+0x5b6>
    8be1:	31 db                	xor    %ebx,%ebx
    8be3:	45 31 c9             	xor    %r9d,%r9d
    8be6:	45 31 ed             	xor    %r13d,%r13d
    8be9:	45 31 e4             	xor    %r12d,%r12d
    8bec:	41 bf 1c 0c 00 00    	mov    $0xc1c,%r15d
    8bf2:	ba 20 00 00 00       	mov    $0x20,%edx
    8bf7:	e9 4b cb ff ff       	jmpq   5747 <__pyx_pymod_exec_arrow_mouse+0x5b6>
    8bfc:	31 db                	xor    %ebx,%ebx
    8bfe:	45 31 c9             	xor    %r9d,%r9d
    8c01:	45 31 ed             	xor    %r13d,%r13d
    8c04:	45 31 e4             	xor    %r12d,%r12d
    8c07:	31 ed                	xor    %ebp,%ebp
    8c09:	41 bf 26 0c 00 00    	mov    $0xc26,%r15d
    8c0f:	ba 21 00 00 00       	mov    $0x21,%edx
    8c14:	e9 2e cb ff ff       	jmpq   5747 <__pyx_pymod_exec_arrow_mouse+0x5b6>
    8c19:	31 db                	xor    %ebx,%ebx
    8c1b:	45 31 c9             	xor    %r9d,%r9d
    8c1e:	45 31 ed             	xor    %r13d,%r13d
    8c21:	45 31 e4             	xor    %r12d,%r12d
    8c24:	31 ed                	xor    %ebp,%ebp
    8c26:	41 bf 2f 0c 00 00    	mov    $0xc2f,%r15d
    8c2c:	ba 23 00 00 00       	mov    $0x23,%edx
    8c31:	e9 11 cb ff ff       	jmpq   5747 <__pyx_pymod_exec_arrow_mouse+0x5b6>
    8c36:	31 db                	xor    %ebx,%ebx
    8c38:	45 31 c9             	xor    %r9d,%r9d
    8c3b:	45 31 ed             	xor    %r13d,%r13d
    8c3e:	45 31 e4             	xor    %r12d,%r12d
    8c41:	31 ed                	xor    %ebp,%ebp
    8c43:	41 bf 38 0c 00 00    	mov    $0xc38,%r15d
    8c49:	ba 24 00 00 00       	mov    $0x24,%edx
    8c4e:	e9 f4 ca ff ff       	jmpq   5747 <__pyx_pymod_exec_arrow_mouse+0x5b6>
    8c53:	31 db                	xor    %ebx,%ebx
    8c55:	45 31 f6             	xor    %r14d,%r14d
    8c58:	45 31 c9             	xor    %r9d,%r9d
    8c5b:	45 31 ed             	xor    %r13d,%r13d
    8c5e:	45 31 e4             	xor    %r12d,%r12d
    8c61:	41 bf 41 0c 00 00    	mov    $0xc41,%r15d
    8c67:	ba 26 00 00 00       	mov    $0x26,%edx
    8c6c:	e9 d6 ca ff ff       	jmpq   5747 <__pyx_pymod_exec_arrow_mouse+0x5b6>
    8c71:	31 db                	xor    %ebx,%ebx
    8c73:	45 31 c9             	xor    %r9d,%r9d
    8c76:	45 31 ed             	xor    %r13d,%r13d
    8c79:	45 31 e4             	xor    %r12d,%r12d
    8c7c:	41 bf 43 0c 00 00    	mov    $0xc43,%r15d
    8c82:	ba 26 00 00 00       	mov    $0x26,%edx
    8c87:	e9 bb ca ff ff       	jmpq   5747 <__pyx_pymod_exec_arrow_mouse+0x5b6>
    8c8c:	31 db                	xor    %ebx,%ebx
    8c8e:	45 31 f6             	xor    %r14d,%r14d
    8c91:	45 31 c9             	xor    %r9d,%r9d
    8c94:	45 31 ed             	xor    %r13d,%r13d
    8c97:	45 31 e4             	xor    %r12d,%r12d
    8c9a:	41 bf 4d 0c 00 00    	mov    $0xc4d,%r15d
    8ca0:	ba 2b 00 00 00       	mov    $0x2b,%edx
    8ca5:	e9 9d ca ff ff       	jmpq   5747 <__pyx_pymod_exec_arrow_mouse+0x5b6>
    8caa:	31 db                	xor    %ebx,%ebx
    8cac:	45 31 c9             	xor    %r9d,%r9d
    8caf:	45 31 ed             	xor    %r13d,%r13d
    8cb2:	45 31 e4             	xor    %r12d,%r12d
    8cb5:	41 bf 4f 0c 00 00    	mov    $0xc4f,%r15d
    8cbb:	ba 2b 00 00 00       	mov    $0x2b,%edx
    8cc0:	e9 82 ca ff ff       	jmpq   5747 <__pyx_pymod_exec_arrow_mouse+0x5b6>
    8cc5:	31 db                	xor    %ebx,%ebx
    8cc7:	45 31 f6             	xor    %r14d,%r14d
    8cca:	45 31 c9             	xor    %r9d,%r9d
    8ccd:	45 31 ed             	xor    %r13d,%r13d
    8cd0:	45 31 e4             	xor    %r12d,%r12d
    8cd3:	41 bf 59 0c 00 00    	mov    $0xc59,%r15d
    8cd9:	ba 34 00 00 00       	mov    $0x34,%edx
    8cde:	e9 64 ca ff ff       	jmpq   5747 <__pyx_pymod_exec_arrow_mouse+0x5b6>
    8ce3:	31 db                	xor    %ebx,%ebx
    8ce5:	45 31 c9             	xor    %r9d,%r9d
    8ce8:	45 31 ed             	xor    %r13d,%r13d
    8ceb:	45 31 e4             	xor    %r12d,%r12d
    8cee:	41 bf 5b 0c 00 00    	mov    $0xc5b,%r15d
    8cf4:	ba 34 00 00 00       	mov    $0x34,%edx
    8cf9:	e9 49 ca ff ff       	jmpq   5747 <__pyx_pymod_exec_arrow_mouse+0x5b6>
    8cfe:	31 db                	xor    %ebx,%ebx
    8d00:	45 31 f6             	xor    %r14d,%r14d
    8d03:	45 31 c9             	xor    %r9d,%r9d
    8d06:	45 31 ed             	xor    %r13d,%r13d
    8d09:	31 ed                	xor    %ebp,%ebp
    8d0b:	41 bf 6e 0c 00 00    	mov    $0xc6e,%r15d
    8d11:	ba 3c 00 00 00       	mov    $0x3c,%edx
    8d16:	e9 2c ca ff ff       	jmpq   5747 <__pyx_pymod_exec_arrow_mouse+0x5b6>
    8d1b:	31 db                	xor    %ebx,%ebx
    8d1d:	45 31 f6             	xor    %r14d,%r14d
    8d20:	45 31 c9             	xor    %r9d,%r9d
    8d23:	45 31 ed             	xor    %r13d,%r13d
    8d26:	41 bf 70 0c 00 00    	mov    $0xc70,%r15d
    8d2c:	ba 3c 00 00 00       	mov    $0x3c,%edx
    8d31:	e9 11 ca ff ff       	jmpq   5747 <__pyx_pymod_exec_arrow_mouse+0x5b6>
    8d36:	31 db                	xor    %ebx,%ebx
    8d38:	45 31 f6             	xor    %r14d,%r14d
    8d3b:	45 31 c9             	xor    %r9d,%r9d
    8d3e:	45 31 e4             	xor    %r12d,%r12d
    8d41:	41 bf 7f 0c 00 00    	mov    $0xc7f,%r15d
    8d47:	ba 3c 00 00 00       	mov    $0x3c,%edx
    8d4c:	e9 f6 c9 ff ff       	jmpq   5747 <__pyx_pymod_exec_arrow_mouse+0x5b6>
    8d51:	31 db                	xor    %ebx,%ebx
    8d53:	45 31 f6             	xor    %r14d,%r14d
    8d56:	45 31 c9             	xor    %r9d,%r9d
    8d59:	45 31 ed             	xor    %r13d,%r13d
    8d5c:	45 31 e4             	xor    %r12d,%r12d
    8d5f:	41 bf 8b 0c 00 00    	mov    $0xc8b,%r15d
    8d65:	ba 3d 00 00 00       	mov    $0x3d,%edx
    8d6a:	e9 d8 c9 ff ff       	jmpq   5747 <__pyx_pymod_exec_arrow_mouse+0x5b6>
    8d6f:	31 db                	xor    %ebx,%ebx
    8d71:	45 31 f6             	xor    %r14d,%r14d
    8d74:	45 31 c9             	xor    %r9d,%r9d
    8d77:	45 31 e4             	xor    %r12d,%r12d
    8d7a:	41 bf 8d 0c 00 00    	mov    $0xc8d,%r15d
    8d80:	ba 3d 00 00 00       	mov    $0x3d,%edx
    8d85:	e9 bd c9 ff ff       	jmpq   5747 <__pyx_pymod_exec_arrow_mouse+0x5b6>
    8d8a:	31 db                	xor    %ebx,%ebx
    8d8c:	45 31 c9             	xor    %r9d,%r9d
    8d8f:	45 31 e4             	xor    %r12d,%r12d
    8d92:	31 ed                	xor    %ebp,%ebp
    8d94:	41 bf 90 0c 00 00    	mov    $0xc90,%r15d
    8d9a:	ba 3d 00 00 00       	mov    $0x3d,%edx
    8d9f:	e9 a3 c9 ff ff       	jmpq   5747 <__pyx_pymod_exec_arrow_mouse+0x5b6>
    8da4:	31 db                	xor    %ebx,%ebx
    8da6:	45 31 f6             	xor    %r14d,%r14d
    8da9:	45 31 c9             	xor    %r9d,%r9d
    8dac:	45 31 ed             	xor    %r13d,%r13d
    8daf:	45 31 e4             	xor    %r12d,%r12d
    8db2:	41 bf 9a 0c 00 00    	mov    $0xc9a,%r15d
    8db8:	ba 3e 00 00 00       	mov    $0x3e,%edx
    8dbd:	e9 85 c9 ff ff       	jmpq   5747 <__pyx_pymod_exec_arrow_mouse+0x5b6>
    8dc2:	31 db                	xor    %ebx,%ebx
    8dc4:	45 31 f6             	xor    %r14d,%r14d
    8dc7:	45 31 c9             	xor    %r9d,%r9d
    8dca:	45 31 ed             	xor    %r13d,%r13d
    8dcd:	41 bf 9c 0c 00 00    	mov    $0xc9c,%r15d
    8dd3:	ba 3e 00 00 00       	mov    $0x3e,%edx
    8dd8:	e9 6a c9 ff ff       	jmpq   5747 <__pyx_pymod_exec_arrow_mouse+0x5b6>
    8ddd:	31 db                	xor    %ebx,%ebx
    8ddf:	45 31 f6             	xor    %r14d,%r14d
    8de2:	45 31 c9             	xor    %r9d,%r9d
    8de5:	31 ed                	xor    %ebp,%ebp
    8de7:	41 bf ab 0c 00 00    	mov    $0xcab,%r15d
    8ded:	ba 3e 00 00 00       	mov    $0x3e,%edx
    8df2:	e9 50 c9 ff ff       	jmpq   5747 <__pyx_pymod_exec_arrow_mouse+0x5b6>
    8df7:	31 db                	xor    %ebx,%ebx
    8df9:	45 31 c9             	xor    %r9d,%r9d
    8dfc:	45 31 e4             	xor    %r12d,%r12d
    8dff:	31 ed                	xor    %ebp,%ebp
    8e01:	41 bf ae 0c 00 00    	mov    $0xcae,%r15d
    8e07:	ba 3e 00 00 00       	mov    $0x3e,%edx
    8e0c:	e9 36 c9 ff ff       	jmpq   5747 <__pyx_pymod_exec_arrow_mouse+0x5b6>
    8e11:	31 db                	xor    %ebx,%ebx
    8e13:	45 31 f6             	xor    %r14d,%r14d
    8e16:	45 31 c9             	xor    %r9d,%r9d
    8e19:	45 31 ed             	xor    %r13d,%r13d
    8e1c:	31 ed                	xor    %ebp,%ebp
    8e1e:	41 bf b8 0c 00 00    	mov    $0xcb8,%r15d
    8e24:	ba 3f 00 00 00       	mov    $0x3f,%edx
    8e29:	e9 19 c9 ff ff       	jmpq   5747 <__pyx_pymod_exec_arrow_mouse+0x5b6>
    8e2e:	31 db                	xor    %ebx,%ebx
    8e30:	45 31 f6             	xor    %r14d,%r14d
    8e33:	45 31 c9             	xor    %r9d,%r9d
    8e36:	45 31 ed             	xor    %r13d,%r13d
    8e39:	41 bf ba 0c 00 00    	mov    $0xcba,%r15d
    8e3f:	ba 3f 00 00 00       	mov    $0x3f,%edx
    8e44:	e9 fe c8 ff ff       	jmpq   5747 <__pyx_pymod_exec_arrow_mouse+0x5b6>
    8e49:	31 db                	xor    %ebx,%ebx
    8e4b:	45 31 f6             	xor    %r14d,%r14d
    8e4e:	45 31 c9             	xor    %r9d,%r9d
    8e51:	45 31 e4             	xor    %r12d,%r12d
    8e54:	41 bf c9 0c 00 00    	mov    $0xcc9,%r15d
    8e5a:	ba 3f 00 00 00       	mov    $0x3f,%edx
    8e5f:	e9 e3 c8 ff ff       	jmpq   5747 <__pyx_pymod_exec_arrow_mouse+0x5b6>
    8e64:	31 db                	xor    %ebx,%ebx
    8e66:	45 31 c9             	xor    %r9d,%r9d
    8e69:	45 31 e4             	xor    %r12d,%r12d
    8e6c:	31 ed                	xor    %ebp,%ebp
    8e6e:	41 bf cc 0c 00 00    	mov    $0xccc,%r15d
    8e74:	ba 3f 00 00 00       	mov    $0x3f,%edx
    8e79:	e9 c9 c8 ff ff       	jmpq   5747 <__pyx_pymod_exec_arrow_mouse+0x5b6>
    8e7e:	31 db                	xor    %ebx,%ebx
    8e80:	45 31 c9             	xor    %r9d,%r9d
    8e83:	45 31 ed             	xor    %r13d,%r13d
    8e86:	45 31 e4             	xor    %r12d,%r12d
    8e89:	31 ed                	xor    %ebp,%ebp
    8e8b:	41 bf 3d 10 00 00    	mov    $0x103d,%r15d
    8e91:	ba 70 00 00 00       	mov    $0x70,%edx
    8e96:	e9 ac c8 ff ff       	jmpq   5747 <__pyx_pymod_exec_arrow_mouse+0x5b6>
    8e9b:	31 db                	xor    %ebx,%ebx
    8e9d:	45 31 f6             	xor    %r14d,%r14d
    8ea0:	45 31 c9             	xor    %r9d,%r9d
    8ea3:	45 31 ed             	xor    %r13d,%r13d
    8ea6:	45 31 e4             	xor    %r12d,%r12d
    8ea9:	41 bf e9 0c 00 00    	mov    $0xce9,%r15d
    8eaf:	ba 42 00 00 00       	mov    $0x42,%edx
    8eb4:	e9 8e c8 ff ff       	jmpq   5747 <__pyx_pymod_exec_arrow_mouse+0x5b6>
    8eb9:	31 db                	xor    %ebx,%ebx
    8ebb:	45 31 f6             	xor    %r14d,%r14d
    8ebe:	45 31 c9             	xor    %r9d,%r9d
    8ec1:	45 31 ed             	xor    %r13d,%r13d
    8ec4:	41 bf eb 0c 00 00    	mov    $0xceb,%r15d
    8eca:	ba 42 00 00 00       	mov    $0x42,%edx
    8ecf:	e9 73 c8 ff ff       	jmpq   5747 <__pyx_pymod_exec_arrow_mouse+0x5b6>
    8ed4:	31 db                	xor    %ebx,%ebx
    8ed6:	45 31 f6             	xor    %r14d,%r14d
    8ed9:	45 31 c9             	xor    %r9d,%r9d
    8edc:	31 ed                	xor    %ebp,%ebp
    8ede:	41 bf fa 0c 00 00    	mov    $0xcfa,%r15d
    8ee4:	ba 42 00 00 00       	mov    $0x42,%edx
    8ee9:	e9 59 c8 ff ff       	jmpq   5747 <__pyx_pymod_exec_arrow_mouse+0x5b6>
    8eee:	31 db                	xor    %ebx,%ebx
    8ef0:	45 31 c9             	xor    %r9d,%r9d
    8ef3:	45 31 e4             	xor    %r12d,%r12d
    8ef6:	31 ed                	xor    %ebp,%ebp
    8ef8:	41 bf fd 0c 00 00    	mov    $0xcfd,%r15d
    8efe:	ba 42 00 00 00       	mov    $0x42,%edx
    8f03:	e9 3f c8 ff ff       	jmpq   5747 <__pyx_pymod_exec_arrow_mouse+0x5b6>
    8f08:	31 db                	xor    %ebx,%ebx
    8f0a:	45 31 f6             	xor    %r14d,%r14d
    8f0d:	45 31 c9             	xor    %r9d,%r9d
    8f10:	45 31 ed             	xor    %r13d,%r13d
    8f13:	45 31 e4             	xor    %r12d,%r12d
    8f16:	41 bf 08 0d 00 00    	mov    $0xd08,%r15d
    8f1c:	ba 43 00 00 00       	mov    $0x43,%edx
    8f21:	e9 21 c8 ff ff       	jmpq   5747 <__pyx_pymod_exec_arrow_mouse+0x5b6>
    8f26:	49 89 ec             	mov    %rbp,%r12
    8f29:	31 db                	xor    %ebx,%ebx
    8f2b:	45 31 f6             	xor    %r14d,%r14d
    8f2e:	45 31 c9             	xor    %r9d,%r9d
    8f31:	31 ed                	xor    %ebp,%ebp
    8f33:	41 bf 0a 0d 00 00    	mov    $0xd0a,%r15d
    8f39:	ba 43 00 00 00       	mov    $0x43,%edx
    8f3e:	e9 04 c8 ff ff       	jmpq   5747 <__pyx_pymod_exec_arrow_mouse+0x5b6>
    8f43:	31 db                	xor    %ebx,%ebx
    8f45:	45 31 f6             	xor    %r14d,%r14d
    8f48:	45 31 c9             	xor    %r9d,%r9d
    8f4b:	45 31 ed             	xor    %r13d,%r13d
    8f4e:	41 bf 19 0d 00 00    	mov    $0xd19,%r15d
    8f54:	ba 43 00 00 00       	mov    $0x43,%edx
    8f59:	e9 e9 c7 ff ff       	jmpq   5747 <__pyx_pymod_exec_arrow_mouse+0x5b6>
    8f5e:	31 db                	xor    %ebx,%ebx
    8f60:	45 31 f6             	xor    %r14d,%r14d
    8f63:	45 31 c9             	xor    %r9d,%r9d
    8f66:	45 31 ed             	xor    %r13d,%r13d
    8f69:	45 31 e4             	xor    %r12d,%r12d
    8f6c:	41 bf 25 0d 00 00    	mov    $0xd25,%r15d
    8f72:	ba 47 00 00 00       	mov    $0x47,%edx
    8f77:	e9 cb c7 ff ff       	jmpq   5747 <__pyx_pymod_exec_arrow_mouse+0x5b6>
    8f7c:	31 db                	xor    %ebx,%ebx
    8f7e:	45 31 f6             	xor    %r14d,%r14d
    8f81:	45 31 c9             	xor    %r9d,%r9d
    8f84:	45 31 ed             	xor    %r13d,%r13d
    8f87:	41 bf 27 0d 00 00    	mov    $0xd27,%r15d
    8f8d:	ba 47 00 00 00       	mov    $0x47,%edx
    8f92:	e9 b0 c7 ff ff       	jmpq   5747 <__pyx_pymod_exec_arrow_mouse+0x5b6>
    8f97:	31 db                	xor    %ebx,%ebx
    8f99:	45 31 f6             	xor    %r14d,%r14d
    8f9c:	45 31 c9             	xor    %r9d,%r9d
    8f9f:	31 ed                	xor    %ebp,%ebp
    8fa1:	41 bf 36 0d 00 00    	mov    $0xd36,%r15d
    8fa7:	ba 47 00 00 00       	mov    $0x47,%edx
    8fac:	e9 96 c7 ff ff       	jmpq   5747 <__pyx_pymod_exec_arrow_mouse+0x5b6>
    8fb1:	31 db                	xor    %ebx,%ebx
    8fb3:	45 31 c9             	xor    %r9d,%r9d
    8fb6:	45 31 e4             	xor    %r12d,%r12d
    8fb9:	31 ed                	xor    %ebp,%ebp
    8fbb:	41 bf 3f 0d 00 00    	mov    $0xd3f,%r15d
    8fc1:	ba 47 00 00 00       	mov    $0x47,%edx
    8fc6:	e9 7c c7 ff ff       	jmpq   5747 <__pyx_pymod_exec_arrow_mouse+0x5b6>
    8fcb:	31 db                	xor    %ebx,%ebx
    8fcd:	45 31 f6             	xor    %r14d,%r14d
    8fd0:	45 31 e4             	xor    %r12d,%r12d
    8fd3:	31 ed                	xor    %ebp,%ebp
    8fd5:	41 bf 54 0d 00 00    	mov    $0xd54,%r15d
    8fdb:	ba 47 00 00 00       	mov    $0x47,%edx
    8fe0:	e9 62 c7 ff ff       	jmpq   5747 <__pyx_pymod_exec_arrow_mouse+0x5b6>
    8fe5:	31 db                	xor    %ebx,%ebx
    8fe7:	45 31 f6             	xor    %r14d,%r14d
    8fea:	41 bf 5c 0d 00 00    	mov    $0xd5c,%r15d
    8ff0:	ba 47 00 00 00       	mov    $0x47,%edx
    8ff5:	e9 4d c7 ff ff       	jmpq   5747 <__pyx_pymod_exec_arrow_mouse+0x5b6>
    8ffa:	31 db                	xor    %ebx,%ebx
    8ffc:	45 31 c9             	xor    %r9d,%r9d
    8fff:	45 31 ed             	xor    %r13d,%r13d
    9002:	31 ed                	xor    %ebp,%ebp
    9004:	41 bf 64 0d 00 00    	mov    $0xd64,%r15d
    900a:	ba 47 00 00 00       	mov    $0x47,%edx
    900f:	e9 33 c7 ff ff       	jmpq   5747 <__pyx_pymod_exec_arrow_mouse+0x5b6>
    9014:	31 db                	xor    %ebx,%ebx
    9016:	45 31 c9             	xor    %r9d,%r9d
    9019:	45 31 ed             	xor    %r13d,%r13d
    901c:	41 bf 67 0d 00 00    	mov    $0xd67,%r15d
    9022:	ba 47 00 00 00       	mov    $0x47,%edx
    9027:	e9 1b c7 ff ff       	jmpq   5747 <__pyx_pymod_exec_arrow_mouse+0x5b6>
    902c:	31 db                	xor    %ebx,%ebx
    902e:	45 31 c9             	xor    %r9d,%r9d
    9031:	45 31 ed             	xor    %r13d,%r13d
    9034:	45 31 e4             	xor    %r12d,%r12d
    9037:	41 bf 69 0d 00 00    	mov    $0xd69,%r15d
    903d:	ba 47 00 00 00       	mov    $0x47,%edx
    9042:	e9 00 c7 ff ff       	jmpq   5747 <__pyx_pymod_exec_arrow_mouse+0x5b6>
    9047:	31 db                	xor    %ebx,%ebx
    9049:	45 31 f6             	xor    %r14d,%r14d
    904c:	45 31 c9             	xor    %r9d,%r9d
    904f:	45 31 ed             	xor    %r13d,%r13d
    9052:	31 ed                	xor    %ebp,%ebp
    9054:	41 bf 73 0d 00 00    	mov    $0xd73,%r15d
    905a:	ba 48 00 00 00       	mov    $0x48,%edx
    905f:	e9 e3 c6 ff ff       	jmpq   5747 <__pyx_pymod_exec_arrow_mouse+0x5b6>
    9064:	4d 89 e5             	mov    %r12,%r13
    9067:	31 db                	xor    %ebx,%ebx
    9069:	45 31 f6             	xor    %r14d,%r14d
    906c:	45 31 c9             	xor    %r9d,%r9d
    906f:	45 31 e4             	xor    %r12d,%r12d
    9072:	41 bf 75 0d 00 00    	mov    $0xd75,%r15d
    9078:	ba 48 00 00 00       	mov    $0x48,%edx
    907d:	e9 c5 c6 ff ff       	jmpq   5747 <__pyx_pymod_exec_arrow_mouse+0x5b6>
    9082:	31 db                	xor    %ebx,%ebx
    9084:	45 31 c9             	xor    %r9d,%r9d
    9087:	45 31 ed             	xor    %r13d,%r13d
    908a:	45 31 e4             	xor    %r12d,%r12d
    908d:	41 bf 78 0d 00 00    	mov    $0xd78,%r15d
    9093:	ba 48 00 00 00       	mov    $0x48,%edx
    9098:	e9 aa c6 ff ff       	jmpq   5747 <__pyx_pymod_exec_arrow_mouse+0x5b6>
    909d:	31 db                	xor    %ebx,%ebx
    909f:	45 31 f6             	xor    %r14d,%r14d
    90a2:	45 31 c9             	xor    %r9d,%r9d
    90a5:	45 31 ed             	xor    %r13d,%r13d
    90a8:	45 31 e4             	xor    %r12d,%r12d
    90ab:	41 bf 82 0d 00 00    	mov    $0xd82,%r15d
    90b1:	ba 49 00 00 00       	mov    $0x49,%edx
    90b6:	e9 8c c6 ff ff       	jmpq   5747 <__pyx_pymod_exec_arrow_mouse+0x5b6>
    90bb:	31 db                	xor    %ebx,%ebx
    90bd:	45 31 c9             	xor    %r9d,%r9d
    90c0:	45 31 ed             	xor    %r13d,%r13d
    90c3:	45 31 e4             	xor    %r12d,%r12d
    90c6:	41 bf 84 0d 00 00    	mov    $0xd84,%r15d
    90cc:	ba 49 00 00 00       	mov    $0x49,%edx
    90d1:	e9 71 c6 ff ff       	jmpq   5747 <__pyx_pymod_exec_arrow_mouse+0x5b6>
    90d6:	31 db                	xor    %ebx,%ebx
    90d8:	45 31 f6             	xor    %r14d,%r14d
    90db:	45 31 c9             	xor    %r9d,%r9d
    90de:	45 31 ed             	xor    %r13d,%r13d
    90e1:	45 31 e4             	xor    %r12d,%r12d
    90e4:	41 bf 8f 0d 00 00    	mov    $0xd8f,%r15d
    90ea:	ba 4a 00 00 00       	mov    $0x4a,%edx
    90ef:	e9 53 c6 ff ff       	jmpq   5747 <__pyx_pymod_exec_arrow_mouse+0x5b6>
    90f4:	31 db                	xor    %ebx,%ebx
    90f6:	45 31 f6             	xor    %r14d,%r14d
    90f9:	45 31 c9             	xor    %r9d,%r9d
    90fc:	45 31 e4             	xor    %r12d,%r12d
    90ff:	41 bf 91 0d 00 00    	mov    $0xd91,%r15d
    9105:	ba 4a 00 00 00       	mov    $0x4a,%edx
    910a:	e9 38 c6 ff ff       	jmpq   5747 <__pyx_pymod_exec_arrow_mouse+0x5b6>
    910f:	31 db                	xor    %ebx,%ebx
    9111:	45 31 f6             	xor    %r14d,%r14d
    9114:	45 31 c9             	xor    %r9d,%r9d
    9117:	41 bf 93 0d 00 00    	mov    $0xd93,%r15d
    911d:	ba 4a 00 00 00       	mov    $0x4a,%edx
    9122:	e9 20 c6 ff ff       	jmpq   5747 <__pyx_pymod_exec_arrow_mouse+0x5b6>
    9127:	4d 89 fe             	mov    %r15,%r14
    912a:	31 ed                	xor    %ebp,%ebp
    912c:	41 bf b6 0d 00 00    	mov    $0xdb6,%r15d
    9132:	ba 4a 00 00 00       	mov    $0x4a,%edx
    9137:	e9 0b c6 ff ff       	jmpq   5747 <__pyx_pymod_exec_arrow_mouse+0x5b6>
    913c:	45 31 f6             	xor    %r14d,%r14d
    913f:	45 31 c9             	xor    %r9d,%r9d
    9142:	45 31 e4             	xor    %r12d,%r12d
    9145:	41 bf c1 0d 00 00    	mov    $0xdc1,%r15d
    914b:	ba 4a 00 00 00       	mov    $0x4a,%edx
    9150:	e9 f2 c5 ff ff       	jmpq   5747 <__pyx_pymod_exec_arrow_mouse+0x5b6>
    9155:	31 db                	xor    %ebx,%ebx
    9157:	45 31 c9             	xor    %r9d,%r9d
    915a:	45 31 ed             	xor    %r13d,%r13d
    915d:	45 31 e4             	xor    %r12d,%r12d
    9160:	41 bf c6 0d 00 00    	mov    $0xdc6,%r15d
    9166:	ba 4a 00 00 00       	mov    $0x4a,%edx
    916b:	e9 d7 c5 ff ff       	jmpq   5747 <__pyx_pymod_exec_arrow_mouse+0x5b6>
    9170:	31 db                	xor    %ebx,%ebx
    9172:	45 31 c9             	xor    %r9d,%r9d
    9175:	45 31 ed             	xor    %r13d,%r13d
    9178:	45 31 e4             	xor    %r12d,%r12d
    917b:	31 ed                	xor    %ebp,%ebp
    917d:	41 bf db 0d 00 00    	mov    $0xddb,%r15d
    9183:	ba 4c 00 00 00       	mov    $0x4c,%edx
    9188:	e9 ba c5 ff ff       	jmpq   5747 <__pyx_pymod_exec_arrow_mouse+0x5b6>
    918d:	31 db                	xor    %ebx,%ebx
    918f:	45 31 c9             	xor    %r9d,%r9d
    9192:	45 31 ed             	xor    %r13d,%r13d
    9195:	45 31 e4             	xor    %r12d,%r12d
    9198:	31 ed                	xor    %ebp,%ebp
    919a:	41 bf e4 0d 00 00    	mov    $0xde4,%r15d
    91a0:	ba 4d 00 00 00       	mov    $0x4d,%edx
    91a5:	e9 9d c5 ff ff       	jmpq   5747 <__pyx_pymod_exec_arrow_mouse+0x5b6>
    91aa:	31 db                	xor    %ebx,%ebx
    91ac:	45 31 f6             	xor    %r14d,%r14d
    91af:	45 31 c9             	xor    %r9d,%r9d
    91b2:	45 31 ed             	xor    %r13d,%r13d
    91b5:	45 31 e4             	xor    %r12d,%r12d
    91b8:	41 bf ef 0d 00 00    	mov    $0xdef,%r15d
    91be:	ba 4f 00 00 00       	mov    $0x4f,%edx
    91c3:	e9 7f c5 ff ff       	jmpq   5747 <__pyx_pymod_exec_arrow_mouse+0x5b6>
    91c8:	31 db                	xor    %ebx,%ebx
    91ca:	45 31 c9             	xor    %r9d,%r9d
    91cd:	45 31 ed             	xor    %r13d,%r13d
    91d0:	45 31 e4             	xor    %r12d,%r12d
    91d3:	41 bf f1 0d 00 00    	mov    $0xdf1,%r15d
    91d9:	ba 4f 00 00 00       	mov    $0x4f,%edx
    91de:	e9 64 c5 ff ff       	jmpq   5747 <__pyx_pymod_exec_arrow_mouse+0x5b6>
    91e3:	31 db                	xor    %ebx,%ebx
    91e5:	45 31 f6             	xor    %r14d,%r14d
    91e8:	45 31 c9             	xor    %r9d,%r9d
    91eb:	45 31 ed             	xor    %r13d,%r13d
    91ee:	45 31 e4             	xor    %r12d,%r12d
    91f1:	41 bf fb 0d 00 00    	mov    $0xdfb,%r15d
    91f7:	ba 50 00 00 00       	mov    $0x50,%edx
    91fc:	e9 46 c5 ff ff       	jmpq   5747 <__pyx_pymod_exec_arrow_mouse+0x5b6>
    9201:	31 db                	xor    %ebx,%ebx
    9203:	45 31 c9             	xor    %r9d,%r9d
    9206:	45 31 ed             	xor    %r13d,%r13d
    9209:	45 31 e4             	xor    %r12d,%r12d
    920c:	41 bf fd 0d 00 00    	mov    $0xdfd,%r15d
    9212:	ba 50 00 00 00       	mov    $0x50,%edx
    9217:	e9 2b c5 ff ff       	jmpq   5747 <__pyx_pymod_exec_arrow_mouse+0x5b6>
    921c:	31 db                	xor    %ebx,%ebx
    921e:	45 31 c9             	xor    %r9d,%r9d
    9221:	45 31 ed             	xor    %r13d,%r13d
    9224:	45 31 e4             	xor    %r12d,%r12d
    9227:	31 ed                	xor    %ebp,%ebp
    9229:	41 bf 07 0e 00 00    	mov    $0xe07,%r15d
    922f:	ba 51 00 00 00       	mov    $0x51,%edx
    9234:	e9 0e c5 ff ff       	jmpq   5747 <__pyx_pymod_exec_arrow_mouse+0x5b6>
    9239:	31 db                	xor    %ebx,%ebx
    923b:	45 31 f6             	xor    %r14d,%r14d
    923e:	45 31 c9             	xor    %r9d,%r9d
    9241:	45 31 ed             	xor    %r13d,%r13d
    9244:	45 31 e4             	xor    %r12d,%r12d
    9247:	41 bf 10 0e 00 00    	mov    $0xe10,%r15d
    924d:	ba 52 00 00 00       	mov    $0x52,%edx
    9252:	e9 f0 c4 ff ff       	jmpq   5747 <__pyx_pymod_exec_arrow_mouse+0x5b6>
    9257:	49 89 ed             	mov    %rbp,%r13
    925a:	31 db                	xor    %ebx,%ebx
    925c:	45 31 f6             	xor    %r14d,%r14d
    925f:	45 31 c9             	xor    %r9d,%r9d
    9262:	31 ed                	xor    %ebp,%ebp
    9264:	41 bf 12 0e 00 00    	mov    $0xe12,%r15d
    926a:	ba 52 00 00 00       	mov    $0x52,%edx
    926f:	e9 d3 c4 ff ff       	jmpq   5747 <__pyx_pymod_exec_arrow_mouse+0x5b6>
    9274:	45 31 f6             	xor    %r14d,%r14d
    9277:	45 31 c9             	xor    %r9d,%r9d
    927a:	45 31 ed             	xor    %r13d,%r13d
    927d:	45 31 e4             	xor    %r12d,%r12d
    9280:	41 bf 21 0e 00 00    	mov    $0xe21,%r15d
    9286:	ba 52 00 00 00       	mov    $0x52,%edx
    928b:	e9 b7 c4 ff ff       	jmpq   5747 <__pyx_pymod_exec_arrow_mouse+0x5b6>
    9290:	31 db                	xor    %ebx,%ebx
    9292:	45 31 c9             	xor    %r9d,%r9d
    9295:	45 31 ed             	xor    %r13d,%r13d
    9298:	45 31 e4             	xor    %r12d,%r12d
    929b:	41 bf 24 0e 00 00    	mov    $0xe24,%r15d
    92a1:	ba 52 00 00 00       	mov    $0x52,%edx
    92a6:	e9 9c c4 ff ff       	jmpq   5747 <__pyx_pymod_exec_arrow_mouse+0x5b6>
    92ab:	31 db                	xor    %ebx,%ebx
    92ad:	45 31 f6             	xor    %r14d,%r14d
    92b0:	45 31 c9             	xor    %r9d,%r9d
    92b3:	45 31 ed             	xor    %r13d,%r13d
    92b6:	45 31 e4             	xor    %r12d,%r12d
    92b9:	41 bf 2f 0e 00 00    	mov    $0xe2f,%r15d
    92bf:	ba 53 00 00 00       	mov    $0x53,%edx
    92c4:	e9 7e c4 ff ff       	jmpq   5747 <__pyx_pymod_exec_arrow_mouse+0x5b6>
    92c9:	31 db                	xor    %ebx,%ebx
    92cb:	45 31 f6             	xor    %r14d,%r14d
    92ce:	45 31 c9             	xor    %r9d,%r9d
    92d1:	45 31 ed             	xor    %r13d,%r13d
    92d4:	41 bf 31 0e 00 00    	mov    $0xe31,%r15d
    92da:	ba 53 00 00 00       	mov    $0x53,%edx
    92df:	e9 63 c4 ff ff       	jmpq   5747 <__pyx_pymod_exec_arrow_mouse+0x5b6>
    92e4:	4c 89 e3             	mov    %r12,%rbx
    92e7:	45 31 f6             	xor    %r14d,%r14d
    92ea:	45 31 c9             	xor    %r9d,%r9d
    92ed:	45 31 e4             	xor    %r12d,%r12d
    92f0:	41 bf 33 0e 00 00    	mov    $0xe33,%r15d
    92f6:	ba 53 00 00 00       	mov    $0x53,%edx
    92fb:	e9 47 c4 ff ff       	jmpq   5747 <__pyx_pymod_exec_arrow_mouse+0x5b6>
    9300:	31 db                	xor    %ebx,%ebx
    9302:	45 31 c9             	xor    %r9d,%r9d
    9305:	45 31 e4             	xor    %r12d,%r12d
    9308:	31 ed                	xor    %ebp,%ebp
    930a:	41 bf 37 0e 00 00    	mov    $0xe37,%r15d
    9310:	ba 53 00 00 00       	mov    $0x53,%edx
    9315:	e9 2d c4 ff ff       	jmpq   5747 <__pyx_pymod_exec_arrow_mouse+0x5b6>
    931a:	31 db                	xor    %ebx,%ebx
    931c:	45 31 f6             	xor    %r14d,%r14d
    931f:	45 31 c9             	xor    %r9d,%r9d
    9322:	45 31 ed             	xor    %r13d,%r13d
    9325:	45 31 e4             	xor    %r12d,%r12d
    9328:	41 bf 4a 0e 00 00    	mov    $0xe4a,%r15d
    932e:	ba 55 00 00 00       	mov    $0x55,%edx
    9333:	e9 0f c4 ff ff       	jmpq   5747 <__pyx_pymod_exec_arrow_mouse+0x5b6>
    9338:	48 89 eb             	mov    %rbp,%rbx
    933b:	45 31 f6             	xor    %r14d,%r14d
    933e:	45 31 c9             	xor    %r9d,%r9d
    9341:	45 31 ed             	xor    %r13d,%r13d
    9344:	31 ed                	xor    %ebp,%ebp
    9346:	41 bf 4c 0e 00 00    	mov    $0xe4c,%r15d
    934c:	ba 55 00 00 00       	mov    $0x55,%edx
    9351:	e9 f1 c3 ff ff       	jmpq   5747 <__pyx_pymod_exec_arrow_mouse+0x5b6>
    9356:	31 db                	xor    %ebx,%ebx
    9358:	45 31 f6             	xor    %r14d,%r14d
    935b:	45 31 c9             	xor    %r9d,%r9d
    935e:	45 31 e4             	xor    %r12d,%r12d
    9361:	41 bf 5b 0e 00 00    	mov    $0xe5b,%r15d
    9367:	ba 55 00 00 00       	mov    $0x55,%edx
    936c:	e9 d6 c3 ff ff       	jmpq   5747 <__pyx_pymod_exec_arrow_mouse+0x5b6>
    9371:	31 db                	xor    %ebx,%ebx
    9373:	45 31 c9             	xor    %r9d,%r9d
    9376:	45 31 e4             	xor    %r12d,%r12d
    9379:	31 ed                	xor    %ebp,%ebp
    937b:	41 bf 5e 0e 00 00    	mov    $0xe5e,%r15d
    9381:	ba 55 00 00 00       	mov    $0x55,%edx
    9386:	e9 bc c3 ff ff       	jmpq   5747 <__pyx_pymod_exec_arrow_mouse+0x5b6>
    938b:	31 db                	xor    %ebx,%ebx
    938d:	45 31 f6             	xor    %r14d,%r14d
    9390:	45 31 c9             	xor    %r9d,%r9d
    9393:	45 31 ed             	xor    %r13d,%r13d
    9396:	45 31 e4             	xor    %r12d,%r12d
    9399:	41 bf 69 0e 00 00    	mov    $0xe69,%r15d
    939f:	ba 56 00 00 00       	mov    $0x56,%edx
    93a4:	e9 9e c3 ff ff       	jmpq   5747 <__pyx_pymod_exec_arrow_mouse+0x5b6>
    93a9:	31 db                	xor    %ebx,%ebx
    93ab:	45 31 f6             	xor    %r14d,%r14d
    93ae:	45 31 c9             	xor    %r9d,%r9d
    93b1:	45 31 e4             	xor    %r12d,%r12d
    93b4:	41 bf 6b 0e 00 00    	mov    $0xe6b,%r15d
    93ba:	ba 56 00 00 00       	mov    $0x56,%edx
    93bf:	e9 83 c3 ff ff       	jmpq   5747 <__pyx_pymod_exec_arrow_mouse+0x5b6>
    93c4:	45 31 f6             	xor    %r14d,%r14d
    93c7:	45 31 c9             	xor    %r9d,%r9d
    93ca:	45 31 e4             	xor    %r12d,%r12d
    93cd:	41 bf 6d 0e 00 00    	mov    $0xe6d,%r15d
    93d3:	ba 56 00 00 00       	mov    $0x56,%edx
    93d8:	e9 6a c3 ff ff       	jmpq   5747 <__pyx_pymod_exec_arrow_mouse+0x5b6>
    93dd:	45 31 c9             	xor    %r9d,%r9d
    93e0:	45 31 ed             	xor    %r13d,%r13d
    93e3:	45 31 e4             	xor    %r12d,%r12d
    93e6:	31 ed                	xor    %ebp,%ebp
    93e8:	41 bf 71 0e 00 00    	mov    $0xe71,%r15d
    93ee:	ba 56 00 00 00       	mov    $0x56,%edx
    93f3:	e9 4f c3 ff ff       	jmpq   5747 <__pyx_pymod_exec_arrow_mouse+0x5b6>
    93f8:	31 db                	xor    %ebx,%ebx
    93fa:	45 31 f6             	xor    %r14d,%r14d
    93fd:	45 31 c9             	xor    %r9d,%r9d
    9400:	45 31 ed             	xor    %r13d,%r13d
    9403:	45 31 e4             	xor    %r12d,%r12d
    9406:	41 bf 84 0e 00 00    	mov    $0xe84,%r15d
    940c:	ba 58 00 00 00       	mov    $0x58,%edx
    9411:	e9 31 c3 ff ff       	jmpq   5747 <__pyx_pymod_exec_arrow_mouse+0x5b6>
    9416:	31 db                	xor    %ebx,%ebx
    9418:	45 31 f6             	xor    %r14d,%r14d
    941b:	45 31 c9             	xor    %r9d,%r9d
    941e:	45 31 ed             	xor    %r13d,%r13d
    9421:	41 bf 86 0e 00 00    	mov    $0xe86,%r15d
    9427:	ba 58 00 00 00       	mov    $0x58,%edx
    942c:	e9 16 c3 ff ff       	jmpq   5747 <__pyx_pymod_exec_arrow_mouse+0x5b6>
    9431:	45 31 f6             	xor    %r14d,%r14d
    9434:	45 31 c9             	xor    %r9d,%r9d
    9437:	45 31 e4             	xor    %r12d,%r12d
    943a:	31 ed                	xor    %ebp,%ebp
    943c:	41 bf 95 0e 00 00    	mov    $0xe95,%r15d
    9442:	ba 58 00 00 00       	mov    $0x58,%edx
    9447:	e9 fb c2 ff ff       	jmpq   5747 <__pyx_pymod_exec_arrow_mouse+0x5b6>
    944c:	45 31 c9             	xor    %r9d,%r9d
    944f:	45 31 ed             	xor    %r13d,%r13d
    9452:	45 31 e4             	xor    %r12d,%r12d
    9455:	31 ed                	xor    %ebp,%ebp
    9457:	41 bf 98 0e 00 00    	mov    $0xe98,%r15d
    945d:	ba 58 00 00 00       	mov    $0x58,%edx
    9462:	e9 e0 c2 ff ff       	jmpq   5747 <__pyx_pymod_exec_arrow_mouse+0x5b6>
    9467:	31 db                	xor    %ebx,%ebx
    9469:	45 31 f6             	xor    %r14d,%r14d
    946c:	45 31 c9             	xor    %r9d,%r9d
    946f:	45 31 ed             	xor    %r13d,%r13d
    9472:	45 31 e4             	xor    %r12d,%r12d
    9475:	41 bf a3 0e 00 00    	mov    $0xea3,%r15d
    947b:	ba 59 00 00 00       	mov    $0x59,%edx
    9480:	e9 c2 c2 ff ff       	jmpq   5747 <__pyx_pymod_exec_arrow_mouse+0x5b6>
    9485:	45 31 f6             	xor    %r14d,%r14d
    9488:	45 31 c9             	xor    %r9d,%r9d
    948b:	45 31 ed             	xor    %r13d,%r13d
    948e:	31 ed                	xor    %ebp,%ebp
    9490:	41 bf a5 0e 00 00    	mov    $0xea5,%r15d
    9496:	ba 59 00 00 00       	mov    $0x59,%edx
    949b:	e9 a7 c2 ff ff       	jmpq   5747 <__pyx_pymod_exec_arrow_mouse+0x5b6>
    94a0:	4d 89 e5             	mov    %r12,%r13
    94a3:	45 31 f6             	xor    %r14d,%r14d
    94a6:	45 31 c9             	xor    %r9d,%r9d
    94a9:	45 31 e4             	xor    %r12d,%r12d
    94ac:	41 bf a7 0e 00 00    	mov    $0xea7,%r15d
    94b2:	ba 59 00 00 00       	mov    $0x59,%edx
    94b7:	e9 8b c2 ff ff       	jmpq   5747 <__pyx_pymod_exec_arrow_mouse+0x5b6>
    94bc:	31 db                	xor    %ebx,%ebx
    94be:	45 31 c9             	xor    %r9d,%r9d
    94c1:	45 31 ed             	xor    %r13d,%r13d
    94c4:	45 31 e4             	xor    %r12d,%r12d
    94c7:	41 bf ab 0e 00 00    	mov    $0xeab,%r15d
    94cd:	ba 59 00 00 00       	mov    $0x59,%edx
    94d2:	e9 70 c2 ff ff       	jmpq   5747 <__pyx_pymod_exec_arrow_mouse+0x5b6>
    94d7:	31 db                	xor    %ebx,%ebx
    94d9:	45 31 f6             	xor    %r14d,%r14d
    94dc:	45 31 c9             	xor    %r9d,%r9d
    94df:	45 31 ed             	xor    %r13d,%r13d
    94e2:	45 31 e4             	xor    %r12d,%r12d
    94e5:	41 bf be 0e 00 00    	mov    $0xebe,%r15d
    94eb:	ba 5b 00 00 00       	mov    $0x5b,%edx
    94f0:	e9 52 c2 ff ff       	jmpq   5747 <__pyx_pymod_exec_arrow_mouse+0x5b6>
    94f5:	49 89 ed             	mov    %rbp,%r13
    94f8:	31 db                	xor    %ebx,%ebx
    94fa:	45 31 f6             	xor    %r14d,%r14d
    94fd:	45 31 c9             	xor    %r9d,%r9d
    9500:	31 ed                	xor    %ebp,%ebp
    9502:	41 bf c0 0e 00 00    	mov    $0xec0,%r15d
    9508:	ba 5b 00 00 00       	mov    $0x5b,%edx
    950d:	e9 35 c2 ff ff       	jmpq   5747 <__pyx_pymod_exec_arrow_mouse+0x5b6>
    9512:	45 31 f6             	xor    %r14d,%r14d
    9515:	45 31 c9             	xor    %r9d,%r9d
    9518:	45 31 ed             	xor    %r13d,%r13d
    951b:	45 31 e4             	xor    %r12d,%r12d
    951e:	41 bf cf 0e 00 00    	mov    $0xecf,%r15d
    9524:	ba 5b 00 00 00       	mov    $0x5b,%edx
    9529:	e9 19 c2 ff ff       	jmpq   5747 <__pyx_pymod_exec_arrow_mouse+0x5b6>
    952e:	31 db                	xor    %ebx,%ebx
    9530:	45 31 c9             	xor    %r9d,%r9d
    9533:	45 31 ed             	xor    %r13d,%r13d
    9536:	45 31 e4             	xor    %r12d,%r12d
    9539:	41 bf d2 0e 00 00    	mov    $0xed2,%r15d
    953f:	ba 5b 00 00 00       	mov    $0x5b,%edx
    9544:	e9 fe c1 ff ff       	jmpq   5747 <__pyx_pymod_exec_arrow_mouse+0x5b6>
    9549:	31 db                	xor    %ebx,%ebx
    954b:	45 31 f6             	xor    %r14d,%r14d
    954e:	45 31 c9             	xor    %r9d,%r9d
    9551:	45 31 ed             	xor    %r13d,%r13d
    9554:	45 31 e4             	xor    %r12d,%r12d
    9557:	41 bf dd 0e 00 00    	mov    $0xedd,%r15d
    955d:	ba 5c 00 00 00       	mov    $0x5c,%edx
    9562:	e9 e0 c1 ff ff       	jmpq   5747 <__pyx_pymod_exec_arrow_mouse+0x5b6>
    9567:	31 db                	xor    %ebx,%ebx
    9569:	45 31 f6             	xor    %r14d,%r14d
    956c:	45 31 c9             	xor    %r9d,%r9d
    956f:	45 31 ed             	xor    %r13d,%r13d
    9572:	41 bf df 0e 00 00    	mov    $0xedf,%r15d
    9578:	ba 5c 00 00 00       	mov    $0x5c,%edx
    957d:	e9 c5 c1 ff ff       	jmpq   5747 <__pyx_pymod_exec_arrow_mouse+0x5b6>
    9582:	4c 89 e3             	mov    %r12,%rbx
    9585:	45 31 f6             	xor    %r14d,%r14d
    9588:	45 31 c9             	xor    %r9d,%r9d
    958b:	45 31 e4             	xor    %r12d,%r12d
    958e:	41 bf e1 0e 00 00    	mov    $0xee1,%r15d
    9594:	ba 5c 00 00 00       	mov    $0x5c,%edx
    9599:	e9 a9 c1 ff ff       	jmpq   5747 <__pyx_pymod_exec_arrow_mouse+0x5b6>
    959e:	31 db                	xor    %ebx,%ebx
    95a0:	45 31 c9             	xor    %r9d,%r9d
    95a3:	45 31 e4             	xor    %r12d,%r12d
    95a6:	31 ed                	xor    %ebp,%ebp
    95a8:	41 bf e5 0e 00 00    	mov    $0xee5,%r15d
    95ae:	ba 5c 00 00 00       	mov    $0x5c,%edx
    95b3:	e9 8f c1 ff ff       	jmpq   5747 <__pyx_pymod_exec_arrow_mouse+0x5b6>
    95b8:	31 db                	xor    %ebx,%ebx
    95ba:	45 31 f6             	xor    %r14d,%r14d
    95bd:	45 31 c9             	xor    %r9d,%r9d
    95c0:	45 31 ed             	xor    %r13d,%r13d
    95c3:	45 31 e4             	xor    %r12d,%r12d
    95c6:	41 bf f8 0e 00 00    	mov    $0xef8,%r15d
    95cc:	ba 5e 00 00 00       	mov    $0x5e,%edx
    95d1:	e9 71 c1 ff ff       	jmpq   5747 <__pyx_pymod_exec_arrow_mouse+0x5b6>
    95d6:	48 89 eb             	mov    %rbp,%rbx
    95d9:	45 31 f6             	xor    %r14d,%r14d
    95dc:	45 31 c9             	xor    %r9d,%r9d
    95df:	45 31 ed             	xor    %r13d,%r13d
    95e2:	31 ed                	xor    %ebp,%ebp
    95e4:	41 bf fa 0e 00 00    	mov    $0xefa,%r15d
    95ea:	ba 5e 00 00 00       	mov    $0x5e,%edx
    95ef:	e9 53 c1 ff ff       	jmpq   5747 <__pyx_pymod_exec_arrow_mouse+0x5b6>
    95f4:	31 db                	xor    %ebx,%ebx
    95f6:	45 31 f6             	xor    %r14d,%r14d
    95f9:	45 31 c9             	xor    %r9d,%r9d
    95fc:	45 31 e4             	xor    %r12d,%r12d
    95ff:	41 bf 09 0f 00 00    	mov    $0xf09,%r15d
    9605:	ba 5e 00 00 00       	mov    $0x5e,%edx
    960a:	e9 38 c1 ff ff       	jmpq   5747 <__pyx_pymod_exec_arrow_mouse+0x5b6>
    960f:	31 db                	xor    %ebx,%ebx
    9611:	45 31 c9             	xor    %r9d,%r9d
    9614:	45 31 e4             	xor    %r12d,%r12d
    9617:	31 ed                	xor    %ebp,%ebp
    9619:	41 bf 0c 0f 00 00    	mov    $0xf0c,%r15d
    961f:	ba 5e 00 00 00       	mov    $0x5e,%edx
    9624:	e9 1e c1 ff ff       	jmpq   5747 <__pyx_pymod_exec_arrow_mouse+0x5b6>
    9629:	31 db                	xor    %ebx,%ebx
    962b:	45 31 f6             	xor    %r14d,%r14d
    962e:	45 31 c9             	xor    %r9d,%r9d
    9631:	45 31 ed             	xor    %r13d,%r13d
    9634:	45 31 e4             	xor    %r12d,%r12d
    9637:	41 bf 17 0f 00 00    	mov    $0xf17,%r15d
    963d:	ba 5f 00 00 00       	mov    $0x5f,%edx
    9642:	e9 00 c1 ff ff       	jmpq   5747 <__pyx_pymod_exec_arrow_mouse+0x5b6>
    9647:	31 db                	xor    %ebx,%ebx
    9649:	45 31 f6             	xor    %r14d,%r14d
    964c:	45 31 c9             	xor    %r9d,%r9d
    964f:	45 31 ed             	xor    %r13d,%r13d
    9652:	41 bf 19 0f 00 00    	mov    $0xf19,%r15d
    9658:	ba 5f 00 00 00       	mov    $0x5f,%edx
    965d:	e9 e5 c0 ff ff       	jmpq   5747 <__pyx_pymod_exec_arrow_mouse+0x5b6>
    9662:	45 31 f6             	xor    %r14d,%r14d
    9665:	45 31 c9             	xor    %r9d,%r9d
    9668:	45 31 e4             	xor    %r12d,%r12d
    966b:	31 ed                	xor    %ebp,%ebp
    966d:	41 bf 28 0f 00 00    	mov    $0xf28,%r15d
    9673:	ba 5f 00 00 00       	mov    $0x5f,%edx
    9678:	e9 ca c0 ff ff       	jmpq   5747 <__pyx_pymod_exec_arrow_mouse+0x5b6>
    967d:	31 db                	xor    %ebx,%ebx
    967f:	45 31 c9             	xor    %r9d,%r9d
    9682:	45 31 e4             	xor    %r12d,%r12d
    9685:	31 ed                	xor    %ebp,%ebp
    9687:	41 bf 2b 0f 00 00    	mov    $0xf2b,%r15d
    968d:	ba 5f 00 00 00       	mov    $0x5f,%edx
    9692:	e9 b0 c0 ff ff       	jmpq   5747 <__pyx_pymod_exec_arrow_mouse+0x5b6>
    9697:	31 db                	xor    %ebx,%ebx
    9699:	45 31 c9             	xor    %r9d,%r9d
    969c:	45 31 ed             	xor    %r13d,%r13d
    969f:	45 31 e4             	xor    %r12d,%r12d
    96a2:	31 ed                	xor    %ebp,%ebp
    96a4:	41 bf 36 0f 00 00    	mov    $0xf36,%r15d
    96aa:	ba 60 00 00 00       	mov    $0x60,%edx
    96af:	e9 93 c0 ff ff       	jmpq   5747 <__pyx_pymod_exec_arrow_mouse+0x5b6>
    96b4:	31 db                	xor    %ebx,%ebx
    96b6:	45 31 f6             	xor    %r14d,%r14d
    96b9:	45 31 c9             	xor    %r9d,%r9d
    96bc:	45 31 ed             	xor    %r13d,%r13d
    96bf:	45 31 e4             	xor    %r12d,%r12d
    96c2:	41 bf 3f 0f 00 00    	mov    $0xf3f,%r15d
    96c8:	ba 61 00 00 00       	mov    $0x61,%edx
    96cd:	e9 75 c0 ff ff       	jmpq   5747 <__pyx_pymod_exec_arrow_mouse+0x5b6>
    96d2:	49 89 ed             	mov    %rbp,%r13
    96d5:	45 31 f6             	xor    %r14d,%r14d
    96d8:	45 31 c9             	xor    %r9d,%r9d
    96db:	45 31 e4             	xor    %r12d,%r12d
    96de:	31 ed                	xor    %ebp,%ebp
    96e0:	41 bf 41 0f 00 00    	mov    $0xf41,%r15d
    96e6:	ba 61 00 00 00       	mov    $0x61,%edx
    96eb:	e9 57 c0 ff ff       	jmpq   5747 <__pyx_pymod_exec_arrow_mouse+0x5b6>
    96f0:	45 31 f6             	xor    %r14d,%r14d
    96f3:	45 31 c9             	xor    %r9d,%r9d
    96f6:	45 31 e4             	xor    %r12d,%r12d
    96f9:	31 ed                	xor    %ebp,%ebp
    96fb:	41 bf 44 0f 00 00    	mov    $0xf44,%r15d
    9701:	ba 61 00 00 00       	mov    $0x61,%edx
    9706:	e9 3c c0 ff ff       	jmpq   5747 <__pyx_pymod_exec_arrow_mouse+0x5b6>
    970b:	45 31 c9             	xor    %r9d,%r9d
    970e:	45 31 e4             	xor    %r12d,%r12d
    9711:	31 ed                	xor    %ebp,%ebp
    9713:	41 bf 46 0f 00 00    	mov    $0xf46,%r15d
    9719:	ba 61 00 00 00       	mov    $0x61,%edx
    971e:	e9 24 c0 ff ff       	jmpq   5747 <__pyx_pymod_exec_arrow_mouse+0x5b6>
    9723:	45 31 f6             	xor    %r14d,%r14d
    9726:	45 31 c9             	xor    %r9d,%r9d
    9729:	45 31 e4             	xor    %r12d,%r12d
    972c:	41 bf 47 0f 00 00    	mov    $0xf47,%r15d
    9732:	ba 61 00 00 00       	mov    $0x61,%edx
    9737:	e9 0b c0 ff ff       	jmpq   5747 <__pyx_pymod_exec_arrow_mouse+0x5b6>
    973c:	31 db                	xor    %ebx,%ebx
    973e:	45 31 f6             	xor    %r14d,%r14d
    9741:	45 31 c9             	xor    %r9d,%r9d
    9744:	45 31 ed             	xor    %r13d,%r13d
    9747:	45 31 e4             	xor    %r12d,%r12d
    974a:	41 bf 5f 0f 00 00    	mov    $0xf5f,%r15d
    9750:	ba 63 00 00 00       	mov    $0x63,%edx
    9755:	e9 ed bf ff ff       	jmpq   5747 <__pyx_pymod_exec_arrow_mouse+0x5b6>
    975a:	49 89 ed             	mov    %rbp,%r13
    975d:	31 db                	xor    %ebx,%ebx
    975f:	45 31 f6             	xor    %r14d,%r14d
    9762:	45 31 c9             	xor    %r9d,%r9d
    9765:	31 ed                	xor    %ebp,%ebp
    9767:	41 bf 61 0f 00 00    	mov    $0xf61,%r15d
    976d:	ba 63 00 00 00       	mov    $0x63,%edx
    9772:	e9 d0 bf ff ff       	jmpq   5747 <__pyx_pymod_exec_arrow_mouse+0x5b6>
    9777:	45 31 f6             	xor    %r14d,%r14d
    977a:	45 31 c9             	xor    %r9d,%r9d
    977d:	45 31 ed             	xor    %r13d,%r13d
    9780:	45 31 e4             	xor    %r12d,%r12d
    9783:	41 bf 70 0f 00 00    	mov    $0xf70,%r15d
    9789:	ba 63 00 00 00       	mov    $0x63,%edx
    978e:	e9 b4 bf ff ff       	jmpq   5747 <__pyx_pymod_exec_arrow_mouse+0x5b6>
    9793:	31 db                	xor    %ebx,%ebx
    9795:	45 31 f6             	xor    %r14d,%r14d
    9798:	45 31 c9             	xor    %r9d,%r9d
    979b:	45 31 ed             	xor    %r13d,%r13d
    979e:	45 31 e4             	xor    %r12d,%r12d
    97a1:	41 bf 87 0f 00 00    	mov    $0xf87,%r15d
    97a7:	ba 66 00 00 00       	mov    $0x66,%edx
    97ac:	e9 96 bf ff ff       	jmpq   5747 <__pyx_pymod_exec_arrow_mouse+0x5b6>
    97b1:	45 31 f6             	xor    %r14d,%r14d
    97b4:	45 31 c9             	xor    %r9d,%r9d
    97b7:	45 31 ed             	xor    %r13d,%r13d
    97ba:	45 31 e4             	xor    %r12d,%r12d
    97bd:	41 bf 89 0f 00 00    	mov    $0xf89,%r15d
    97c3:	ba 66 00 00 00       	mov    $0x66,%edx
    97c8:	e9 7a bf ff ff       	jmpq   5747 <__pyx_pymod_exec_arrow_mouse+0x5b6>
    97cd:	49 89 ed             	mov    %rbp,%r13
    97d0:	45 31 f6             	xor    %r14d,%r14d
    97d3:	45 31 e4             	xor    %r12d,%r12d
    97d6:	31 ed                	xor    %ebp,%ebp
    97d8:	41 bf 8b 0f 00 00    	mov    $0xf8b,%r15d
    97de:	ba 66 00 00 00       	mov    $0x66,%edx
    97e3:	e9 5f bf ff ff       	jmpq   5747 <__pyx_pymod_exec_arrow_mouse+0x5b6>
    97e8:	31 db                	xor    %ebx,%ebx
    97ea:	45 31 ed             	xor    %r13d,%r13d
    97ed:	45 31 e4             	xor    %r12d,%r12d
    97f0:	31 ed                	xor    %ebp,%ebp
    97f2:	41 bf 8e 0f 00 00    	mov    $0xf8e,%r15d
    97f8:	ba 66 00 00 00       	mov    $0x66,%edx
    97fd:	e9 45 bf ff ff       	jmpq   5747 <__pyx_pymod_exec_arrow_mouse+0x5b6>
    9802:	31 db                	xor    %ebx,%ebx
    9804:	45 31 f6             	xor    %r14d,%r14d
    9807:	45 31 c9             	xor    %r9d,%r9d
    980a:	45 31 ed             	xor    %r13d,%r13d
    980d:	45 31 e4             	xor    %r12d,%r12d
    9810:	41 bf 97 0f 00 00    	mov    $0xf97,%r15d
    9816:	ba 66 00 00 00       	mov    $0x66,%edx
    981b:	e9 27 bf ff ff       	jmpq   5747 <__pyx_pymod_exec_arrow_mouse+0x5b6>
    9820:	31 db                	xor    %ebx,%ebx
    9822:	45 31 f6             	xor    %r14d,%r14d
    9825:	45 31 ed             	xor    %r13d,%r13d
    9828:	45 31 e4             	xor    %r12d,%r12d
    982b:	41 bf 99 0f 00 00    	mov    $0xf99,%r15d
    9831:	ba 66 00 00 00       	mov    $0x66,%edx
    9836:	e9 0c bf ff ff       	jmpq   5747 <__pyx_pymod_exec_arrow_mouse+0x5b6>
    983b:	49 89 ed             	mov    %rbp,%r13
    983e:	31 db                	xor    %ebx,%ebx
    9840:	45 31 f6             	xor    %r14d,%r14d
    9843:	31 ed                	xor    %ebp,%ebp
    9845:	41 bf 9b 0f 00 00    	mov    $0xf9b,%r15d
    984b:	ba 66 00 00 00       	mov    $0x66,%edx
    9850:	e9 f2 be ff ff       	jmpq   5747 <__pyx_pymod_exec_arrow_mouse+0x5b6>
    9855:	31 db                	xor    %ebx,%ebx
    9857:	45 31 c9             	xor    %r9d,%r9d
    985a:	45 31 ed             	xor    %r13d,%r13d
    985d:	45 31 e4             	xor    %r12d,%r12d
    9860:	41 bf a2 0f 00 00    	mov    $0xfa2,%r15d
    9866:	ba 66 00 00 00       	mov    $0x66,%edx
    986b:	e9 d7 be ff ff       	jmpq   5747 <__pyx_pymod_exec_arrow_mouse+0x5b6>
    9870:	31 db                	xor    %ebx,%ebx
    9872:	45 31 f6             	xor    %r14d,%r14d
    9875:	45 31 c9             	xor    %r9d,%r9d
    9878:	45 31 ed             	xor    %r13d,%r13d
    987b:	45 31 e4             	xor    %r12d,%r12d
    987e:	41 bf ac 0f 00 00    	mov    $0xfac,%r15d
    9884:	ba 68 00 00 00       	mov    $0x68,%edx
    9889:	e9 b9 be ff ff       	jmpq   5747 <__pyx_pymod_exec_arrow_mouse+0x5b6>
    988e:	31 db                	xor    %ebx,%ebx
    9890:	45 31 c9             	xor    %r9d,%r9d
    9893:	45 31 ed             	xor    %r13d,%r13d
    9896:	45 31 e4             	xor    %r12d,%r12d
    9899:	41 bf ae 0f 00 00    	mov    $0xfae,%r15d
    989f:	ba 68 00 00 00       	mov    $0x68,%edx
    98a4:	e9 9e be ff ff       	jmpq   5747 <__pyx_pymod_exec_arrow_mouse+0x5b6>
    98a9:	31 db                	xor    %ebx,%ebx
    98ab:	45 31 f6             	xor    %r14d,%r14d
    98ae:	45 31 c9             	xor    %r9d,%r9d
    98b1:	45 31 ed             	xor    %r13d,%r13d
    98b4:	45 31 e4             	xor    %r12d,%r12d
    98b7:	41 bf b9 0f 00 00    	mov    $0xfb9,%r15d
    98bd:	ba 6a 00 00 00       	mov    $0x6a,%edx
    98c2:	e9 80 be ff ff       	jmpq   5747 <__pyx_pymod_exec_arrow_mouse+0x5b6>
    98c7:	48 89 eb             	mov    %rbp,%rbx
    98ca:	45 31 f6             	xor    %r14d,%r14d
    98cd:	45 31 c9             	xor    %r9d,%r9d
    98d0:	45 31 e4             	xor    %r12d,%r12d
    98d3:	31 ed                	xor    %ebp,%ebp
    98d5:	41 bf bb 0f 00 00    	mov    $0xfbb,%r15d
    98db:	ba 6a 00 00 00       	mov    $0x6a,%edx
    98e0:	e9 62 be ff ff       	jmpq   5747 <__pyx_pymod_exec_arrow_mouse+0x5b6>
    98e5:	31 db                	xor    %ebx,%ebx
    98e7:	45 31 f6             	xor    %r14d,%r14d
    98ea:	45 31 c9             	xor    %r9d,%r9d
    98ed:	45 31 e4             	xor    %r12d,%r12d
    98f0:	41 bf be 0f 00 00    	mov    $0xfbe,%r15d
    98f6:	ba 6a 00 00 00       	mov    $0x6a,%edx
    98fb:	e9 47 be ff ff       	jmpq   5747 <__pyx_pymod_exec_arrow_mouse+0x5b6>
    9900:	45 31 f6             	xor    %r14d,%r14d
    9903:	45 31 c9             	xor    %r9d,%r9d
    9906:	45 31 e4             	xor    %r12d,%r12d
    9909:	41 bf c0 0f 00 00    	mov    $0xfc0,%r15d
    990f:	ba 6a 00 00 00       	mov    $0x6a,%edx
    9914:	e9 2e be ff ff       	jmpq   5747 <__pyx_pymod_exec_arrow_mouse+0x5b6>
    9919:	45 31 f6             	xor    %r14d,%r14d
    991c:	31 ed                	xor    %ebp,%ebp
    991e:	41 bf e3 0f 00 00    	mov    $0xfe3,%r15d
    9924:	ba 6a 00 00 00       	mov    $0x6a,%edx
    9929:	e9 19 be ff ff       	jmpq   5747 <__pyx_pymod_exec_arrow_mouse+0x5b6>
    992e:	31 db                	xor    %ebx,%ebx
    9930:	4d 89 d6             	mov    %r10,%r14
    9933:	45 31 c9             	xor    %r9d,%r9d
    9936:	45 31 e4             	xor    %r12d,%r12d
    9939:	41 bf ee 0f 00 00    	mov    $0xfee,%r15d
    993f:	ba 6a 00 00 00       	mov    $0x6a,%edx
    9944:	e9 fe bd ff ff       	jmpq   5747 <__pyx_pymod_exec_arrow_mouse+0x5b6>
    9949:	31 db                	xor    %ebx,%ebx
    994b:	45 31 f6             	xor    %r14d,%r14d
    994e:	45 31 c9             	xor    %r9d,%r9d
    9951:	45 31 ed             	xor    %r13d,%r13d
    9954:	45 31 e4             	xor    %r12d,%r12d
    9957:	41 bf 05 10 00 00    	mov    $0x1005,%r15d
    995d:	ba 6c 00 00 00       	mov    $0x6c,%edx
    9962:	e9 e0 bd ff ff       	jmpq   5747 <__pyx_pymod_exec_arrow_mouse+0x5b6>
    9967:	31 db                	xor    %ebx,%ebx
    9969:	45 31 c9             	xor    %r9d,%r9d
    996c:	45 31 ed             	xor    %r13d,%r13d
    996f:	45 31 e4             	xor    %r12d,%r12d
    9972:	41 bf 07 10 00 00    	mov    $0x1007,%r15d
    9978:	ba 6c 00 00 00       	mov    $0x6c,%edx
    997d:	e9 c5 bd ff ff       	jmpq   5747 <__pyx_pymod_exec_arrow_mouse+0x5b6>
    9982:	31 db                	xor    %ebx,%ebx
    9984:	45 31 f6             	xor    %r14d,%r14d
    9987:	45 31 c9             	xor    %r9d,%r9d
    998a:	45 31 ed             	xor    %r13d,%r13d
    998d:	45 31 e4             	xor    %r12d,%r12d
    9990:	41 bf 1a 10 00 00    	mov    $0x101a,%r15d
    9996:	ba 6e 00 00 00       	mov    $0x6e,%edx
    999b:	e9 a7 bd ff ff       	jmpq   5747 <__pyx_pymod_exec_arrow_mouse+0x5b6>
    99a0:	49 89 ed             	mov    %rbp,%r13
    99a3:	31 db                	xor    %ebx,%ebx
    99a5:	45 31 f6             	xor    %r14d,%r14d
    99a8:	45 31 e4             	xor    %r12d,%r12d
    99ab:	31 ed                	xor    %ebp,%ebp
    99ad:	41 bf 1c 10 00 00    	mov    $0x101c,%r15d
    99b3:	ba 6e 00 00 00       	mov    $0x6e,%edx
    99b8:	e9 8a bd ff ff       	jmpq   5747 <__pyx_pymod_exec_arrow_mouse+0x5b6>
    99bd:	4d 89 ce             	mov    %r9,%r14
    99c0:	31 db                	xor    %ebx,%ebx
    99c2:	45 31 c9             	xor    %r9d,%r9d
    99c5:	45 31 ed             	xor    %r13d,%r13d
    99c8:	45 31 e4             	xor    %r12d,%r12d
    99cb:	41 bf 1f 10 00 00    	mov    $0x101f,%r15d
    99d1:	ba 6e 00 00 00       	mov    $0x6e,%edx
    99d6:	e9 6c bd ff ff       	jmpq   5747 <__pyx_pymod_exec_arrow_mouse+0x5b6>
    99db:	4d 89 ce             	mov    %r9,%r14
    99de:	49 89 ed             	mov    %rbp,%r13
    99e1:	31 db                	xor    %ebx,%ebx
    99e3:	45 31 c9             	xor    %r9d,%r9d
    99e6:	31 ed                	xor    %ebp,%ebp
    99e8:	41 bf 21 10 00 00    	mov    $0x1021,%r15d
    99ee:	ba 6e 00 00 00       	mov    $0x6e,%edx
    99f3:	e9 4f bd ff ff       	jmpq   5747 <__pyx_pymod_exec_arrow_mouse+0x5b6>
    99f8:	4d 89 ee             	mov    %r13,%r14
    99fb:	31 db                	xor    %ebx,%ebx
    99fd:	45 31 c9             	xor    %r9d,%r9d
    9a00:	45 31 ed             	xor    %r13d,%r13d
    9a03:	45 31 e4             	xor    %r12d,%r12d
    9a06:	41 bf 31 10 00 00    	mov    $0x1031,%r15d
    9a0c:	ba 6e 00 00 00       	mov    $0x6e,%edx
    9a11:	e9 31 bd ff ff       	jmpq   5747 <__pyx_pymod_exec_arrow_mouse+0x5b6>
    9a16:	31 db                	xor    %ebx,%ebx
    9a18:	45 31 f6             	xor    %r14d,%r14d
    9a1b:	45 31 c9             	xor    %r9d,%r9d
    9a1e:	45 31 ed             	xor    %r13d,%r13d
    9a21:	45 31 e4             	xor    %r12d,%r12d
    9a24:	41 bf 4d 10 00 00    	mov    $0x104d,%r15d
    9a2a:	ba 01 00 00 00       	mov    $0x1,%edx
    9a2f:	e9 13 bd ff ff       	jmpq   5747 <__pyx_pymod_exec_arrow_mouse+0x5b6>
    9a34:	31 db                	xor    %ebx,%ebx
    9a36:	4d 89 e6             	mov    %r12,%r14
    9a39:	45 31 c9             	xor    %r9d,%r9d
    9a3c:	45 31 ed             	xor    %r13d,%r13d
    9a3f:	31 ed                	xor    %ebp,%ebp
    9a41:	41 bf 3b 0b 00 00    	mov    $0xb3b,%r15d
    9a47:	ba 01 00 00 00       	mov    $0x1,%edx
    9a4c:	e9 f6 bc ff ff       	jmpq   5747 <__pyx_pymod_exec_arrow_mouse+0x5b6>
    9a51:	48 8b 8c 24 f8 00 00 	mov    0xf8(%rsp),%rcx
    9a58:	00 
    9a59:	64 48 33 0c 25 28 00 	xor    %fs:0x28,%rcx
    9a60:	00 00 
    9a62:	74 05                	je     9a69 <__pyx_pymod_exec_arrow_mouse+0x48d8>
    9a64:	e8 d7 af ff ff       	callq  4a40 <__stack_chk_fail@plt>
    9a69:	48 81 c4 08 01 00 00 	add    $0x108,%rsp
    9a70:	5b                   	pop    %rbx
    9a71:	5d                   	pop    %rbp
    9a72:	41 5c                	pop    %r12
    9a74:	41 5d                	pop    %r13
    9a76:	41 5e                	pop    %r14
    9a78:	41 5f                	pop    %r15
    9a7a:	c3                   	retq   

0000000000009a7b <PyInit_arrow_mouse>:
    9a7b:	f3 0f 1e fa          	endbr64 
    9a7f:	48 8d 3d 3a 86 00 00 	lea    0x863a(%rip),%rdi        # 120c0 <__pyx_moduledef>
    9a86:	e9 25 b1 ff ff       	jmpq   4bb0 <PyModuleDef_Init@plt>

0000000000009a8b <__Pyx_main.part.0>:
    9a8b:	41 54                	push   %r12
    9a8d:	55                   	push   %rbp
    9a8e:	53                   	push   %rbx
    9a8f:	c7 05 07 a0 00 00 01 	movl   $0x1,0xa007(%rip)        # 13aa0 <__pyx_module_is_main_arrow_mouse>
    9a96:	00 00 00 
    9a99:	e8 dd ff ff ff       	callq  9a7b <PyInit_arrow_mouse>
    9a9e:	48 8d 35 1b 8d 00 00 	lea    0x8d1b(%rip),%rsi        # 127c0 <PyModule_Type>
    9aa5:	48 8b 78 08          	mov    0x8(%rax),%rdi
    9aa9:	48 89 c5             	mov    %rax,%rbp
    9aac:	48 39 f7             	cmp    %rsi,%rdi
    9aaf:	74 47                	je     9af8 <__Pyx_main.part.0+0x6d>
    9ab1:	e8 da ae ff ff       	callq  4990 <PyType_IsSubtype@plt>
    9ab6:	85 c0                	test   %eax,%eax
    9ab8:	75 3e                	jne    9af8 <__Pyx_main.part.0+0x6d>
    9aba:	48 8d 3d 50 3f 00 00 	lea    0x3f50(%rip),%rdi        # da11 <_IO_stdin_used+0xa11>
    9ac1:	e8 3a ac ff ff       	callq  4700 <PyUnicode_FromString@plt>
    9ac6:	49 89 c4             	mov    %rax,%r12
    9ac9:	48 85 c0             	test   %rax,%rax
    9acc:	74 28                	je     9af6 <__Pyx_main.part.0+0x6b>
    9ace:	48 89 c7             	mov    %rax,%rdi
    9ad1:	e8 ca ab ff ff       	callq  46a0 <PyModule_NewObject@plt>
    9ad6:	4c 89 e7             	mov    %r12,%rdi
    9ad9:	48 89 c3             	mov    %rax,%rbx
    9adc:	e8 8e 0c 00 00       	callq  a76f <_Py_DECREF.isra.0>
    9ae1:	48 85 db             	test   %rbx,%rbx
    9ae4:	74 10                	je     9af6 <__Pyx_main.part.0+0x6b>
    9ae6:	48 89 ee             	mov    %rbp,%rsi
    9ae9:	48 89 df             	mov    %rbx,%rdi
    9aec:	48 89 dd             	mov    %rbx,%rbp
    9aef:	e8 cc ab ff ff       	callq  46c0 <PyModule_ExecDef@plt>
    9af4:	eb 02                	jmp    9af8 <__Pyx_main.part.0+0x6d>
    9af6:	31 ed                	xor    %ebp,%ebp
    9af8:	e8 53 ad ff ff       	callq  4850 <PyErr_Occurred@plt>
    9afd:	48 85 c0             	test   %rax,%rax
    9b00:	74 0c                	je     9b0e <__Pyx_main.part.0+0x83>
    9b02:	e8 a9 af ff ff       	callq  4ab0 <PyErr_Print@plt>
    9b07:	b8 01 00 00 00       	mov    $0x1,%eax
    9b0c:	eb 12                	jmp    9b20 <__Pyx_main.part.0+0x95>
    9b0e:	48 89 ef             	mov    %rbp,%rdi
    9b11:	e8 49 0d 00 00       	callq  a85f <_Py_XDECREF>
    9b16:	e8 65 ad ff ff       	callq  4880 <Py_FinalizeEx@plt>
    9b1b:	c1 e8 1f             	shr    $0x1f,%eax
    9b1e:	01 c0                	add    %eax,%eax
    9b20:	5b                   	pop    %rbx
    9b21:	5d                   	pop    %rbp
    9b22:	41 5c                	pop    %r12
    9b24:	c3                   	retq   

0000000000009b25 <main>:
    9b25:	f3 0f 1e fa          	endbr64 
    9b29:	41 57                	push   %r15
    9b2b:	41 56                	push   %r14
    9b2d:	41 55                	push   %r13
    9b2f:	41 54                	push   %r12
    9b31:	55                   	push   %rbp
    9b32:	53                   	push   %rbx
    9b33:	48 83 ec 48          	sub    $0x48,%rsp
    9b37:	89 7c 24 04          	mov    %edi,0x4(%rsp)
    9b3b:	48 89 74 24 10       	mov    %rsi,0x10(%rsp)
    9b40:	64 48 8b 04 25 28 00 	mov    %fs:0x28,%rax
    9b47:	00 00 
    9b49:	48 89 44 24 38       	mov    %rax,0x38(%rsp)
    9b4e:	31 c0                	xor    %eax,%eax
    9b50:	85 ff                	test   %edi,%edi
    9b52:	75 12                	jne    9b66 <main+0x41>
    9b54:	e8 87 ae ff ff       	callq  49e0 <Py_Initialize@plt>
    9b59:	e8 2d ff ff ff       	callq  9a8b <__Pyx_main.part.0>
    9b5e:	41 89 c4             	mov    %eax,%r12d
    9b61:	e9 c9 02 00 00       	jmpq   9e2f <main+0x30a>
    9b66:	48 63 6c 24 04       	movslq 0x4(%rsp),%rbp
    9b6b:	48 c1 e5 03          	shl    $0x3,%rbp
    9b6f:	48 89 ef             	mov    %rbp,%rdi
    9b72:	e8 d9 ab ff ff       	callq  4750 <malloc@plt>
    9b77:	48 89 ef             	mov    %rbp,%rdi
    9b7a:	49 89 c5             	mov    %rax,%r13
    9b7d:	e8 ce ab ff ff       	callq  4750 <malloc@plt>
    9b82:	31 f6                	xor    %esi,%esi
    9b84:	bf 06 00 00 00       	mov    $0x6,%edi
    9b89:	49 89 c6             	mov    %rax,%r14
    9b8c:	e8 5f b0 ff ff       	callq  4bf0 <setlocale@plt>
    9b91:	48 89 c7             	mov    %rax,%rdi
    9b94:	e8 97 ae ff ff       	callq  4a30 <strdup@plt>
    9b99:	4d 85 ed             	test   %r13,%r13
    9b9c:	0f 94 c2             	sete   %dl
    9b9f:	4d 85 f6             	test   %r14,%r14
    9ba2:	48 89 44 24 08       	mov    %rax,0x8(%rsp)
    9ba7:	0f 94 c0             	sete   %al
    9baa:	08 c2                	or     %al,%dl
    9bac:	75 08                	jne    9bb6 <main+0x91>
    9bae:	48 83 7c 24 08 00    	cmpq   $0x0,0x8(%rsp)
    9bb4:	75 38                	jne    9bee <main+0xc9>
    9bb6:	48 8b 35 63 9b 00 00 	mov    0x9b63(%rip),%rsi        # 13720 <stderr@@GLIBC_2.2.5>
    9bbd:	48 8d 3d 56 3e 00 00 	lea    0x3e56(%rip),%rdi        # da1a <_IO_stdin_used+0xa1a>
    9bc4:	41 bc 01 00 00 00    	mov    $0x1,%r12d
    9bca:	e8 d1 ad ff ff       	callq  49a0 <fputs@plt>
    9bcf:	4c 89 ef             	mov    %r13,%rdi
    9bd2:	e8 99 ac ff ff       	callq  4870 <free@plt>
    9bd7:	4c 89 f7             	mov    %r14,%rdi
    9bda:	e8 91 ac ff ff       	callq  4870 <free@plt>
    9bdf:	48 8b 7c 24 08       	mov    0x8(%rsp),%rdi
    9be4:	e8 87 ac ff ff       	callq  4870 <free@plt>
    9be9:	e9 41 02 00 00       	jmpq   9e2f <main+0x30a>
    9bee:	48 8d 35 d5 34 00 00 	lea    0x34d5(%rip),%rsi        # d0ca <_IO_stdin_used+0xca>
    9bf5:	bf 06 00 00 00       	mov    $0x6,%edi
    9bfa:	31 db                	xor    %ebx,%ebx
    9bfc:	45 31 e4             	xor    %r12d,%r12d
    9bff:	e8 ec af ff ff       	callq  4bf0 <setlocale@plt>
    9c04:	39 5c 24 04          	cmp    %ebx,0x4(%rsp)
    9c08:	0f 8e bb 01 00 00    	jle    9dc9 <main+0x2a4>
    9c0e:	48 8b 44 24 10       	mov    0x10(%rsp),%rax
    9c13:	31 d2                	xor    %edx,%edx
    9c15:	31 ff                	xor    %edi,%edi
    9c17:	48 8b 2c d8          	mov    (%rax,%rbx,8),%rbp
    9c1b:	48 89 ee             	mov    %rbp,%rsi
    9c1e:	e8 ad ac ff ff       	callq  48d0 <mbstowcs@plt>
    9c23:	48 83 f8 ff          	cmp    $0xffffffffffffffff,%rax
    9c27:	74 68                	je     9c91 <main+0x16c>
    9c29:	48 8d 50 01          	lea    0x1(%rax),%rdx
    9c2d:	48 8d 3c 95 00 00 00 	lea    0x0(,%rdx,4),%rdi
    9c34:	00 
    9c35:	48 89 54 24 18       	mov    %rdx,0x18(%rsp)
    9c3a:	e8 11 ab ff ff       	callq  4750 <malloc@plt>
    9c3f:	49 89 c7             	mov    %rax,%r15
    9c42:	48 85 c0             	test   %rax,%rax
    9c45:	0f 84 4b 01 00 00    	je     9d96 <main+0x271>
    9c4b:	48 8b 54 24 18       	mov    0x18(%rsp),%rdx
    9c50:	48 89 ee             	mov    %rbp,%rsi
    9c53:	48 89 c7             	mov    %rax,%rdi
    9c56:	e8 75 ac ff ff       	callq  48d0 <mbstowcs@plt>
    9c5b:	4c 89 fa             	mov    %r15,%rdx
    9c5e:	48 ff c0             	inc    %rax
    9c61:	74 26                	je     9c89 <main+0x164>
    9c63:	8b 02                	mov    (%rdx),%eax
    9c65:	8d 88 00 28 ff ff    	lea    -0xd800(%rax),%ecx
    9c6b:	81 f9 ff 07 00 00    	cmp    $0x7ff,%ecx
    9c71:	76 0e                	jbe    9c81 <main+0x15c>
    9c73:	85 c0                	test   %eax,%eax
    9c75:	0f 84 31 01 00 00    	je     9dac <main+0x287>
    9c7b:	48 83 c2 04          	add    $0x4,%rdx
    9c7f:	eb e2                	jmp    9c63 <main+0x13e>
    9c81:	85 c0                	test   %eax,%eax
    9c83:	0f 84 23 01 00 00    	je     9dac <main+0x287>
    9c89:	4c 89 ff             	mov    %r15,%rdi
    9c8c:	e8 df ab ff ff       	callq  4870 <free@plt>
    9c91:	31 c0                	xor    %eax,%eax
    9c93:	48 89 ef             	mov    %rbp,%rdi
    9c96:	48 83 c9 ff          	or     $0xffffffffffffffff,%rcx
    9c9a:	f2 ae                	repnz scas %es:(%rdi),%al
    9c9c:	48 f7 d1             	not    %rcx
    9c9f:	48 8d 3c 8d 00 00 00 	lea    0x0(,%rcx,4),%rdi
    9ca6:	00 
    9ca7:	48 89 4c 24 18       	mov    %rcx,0x18(%rsp)
    9cac:	e8 9f aa ff ff       	callq  4750 <malloc@plt>
    9cb1:	49 89 c7             	mov    %rax,%r15
    9cb4:	48 85 c0             	test   %rax,%rax
    9cb7:	0f 84 d9 00 00 00    	je     9d96 <main+0x271>
    9cbd:	48 8b 54 24 18       	mov    0x18(%rsp),%rdx
    9cc2:	48 89 c7             	mov    %rax,%rdi
    9cc5:	48 8d 4c 24 30       	lea    0x30(%rsp),%rcx
    9cca:	48 c7 44 24 30 00 00 	movq   $0x0,0x30(%rsp)
    9cd1:	00 00 
    9cd3:	48 89 ee             	mov    %rbp,%rsi
    9cd6:	48 89 4c 24 28       	mov    %rcx,0x28(%rsp)
    9cdb:	48 89 54 24 20       	mov    %rdx,0x20(%rsp)
    9ce0:	48 89 7c 24 18       	mov    %rdi,0x18(%rsp)
    9ce5:	e8 c6 a9 ff ff       	callq  46b0 <mbrtowc@plt>
    9cea:	48 85 c0             	test   %rax,%rax
    9ced:	0f 84 b9 00 00 00    	je     9dac <main+0x287>
    9cf3:	48 83 f8 fe          	cmp    $0xfffffffffffffffe,%rax
    9cf7:	48 8b 7c 24 18       	mov    0x18(%rsp),%rdi
    9cfc:	48 8b 54 24 20       	mov    0x20(%rsp),%rdx
    9d01:	48 8b 4c 24 28       	mov    0x28(%rsp),%rcx
    9d06:	75 20                	jne    9d28 <main+0x203>
    9d08:	48 8b 35 11 9a 00 00 	mov    0x9a11(%rip),%rsi        # 13720 <stderr@@GLIBC_2.2.5>
    9d0f:	48 8d 3d 14 3d 00 00 	lea    0x3d14(%rip),%rdi        # da2a <_IO_stdin_used+0xa2a>
    9d16:	e8 85 ac ff ff       	callq  49a0 <fputs@plt>
    9d1b:	4c 89 ff             	mov    %r15,%rdi
    9d1e:	e8 4d ab ff ff       	callq  4870 <free@plt>
    9d23:	e9 81 00 00 00       	jmpq   9da9 <main+0x284>
    9d28:	48 83 f8 ff          	cmp    $0xffffffffffffffff,%rax
    9d2c:	75 1f                	jne    9d4d <main+0x228>
    9d2e:	0f b6 45 00          	movzbl 0x0(%rbp),%eax
    9d32:	48 ff ca             	dec    %rdx
    9d35:	48 83 c7 04          	add    $0x4,%rdi
    9d39:	48 ff c5             	inc    %rbp
    9d3c:	48 c7 01 00 00 00 00 	movq   $0x0,(%rcx)
    9d43:	05 00 dc 00 00       	add    $0xdc00,%eax
    9d48:	89 47 fc             	mov    %eax,-0x4(%rdi)
    9d4b:	eb 3e                	jmp    9d8b <main+0x266>
    9d4d:	8b 37                	mov    (%rdi),%esi
    9d4f:	48 29 c2             	sub    %rax,%rdx
    9d52:	81 ee 00 d8 00 00    	sub    $0xd800,%esi
    9d58:	81 fe ff 07 00 00    	cmp    $0x7ff,%esi
    9d5e:	77 24                	ja     9d84 <main+0x25f>
    9d60:	31 f6                	xor    %esi,%esi
    9d62:	44 0f b6 4c 35 00    	movzbl 0x0(%rbp,%rsi,1),%r9d
    9d68:	41 81 c1 00 dc 00 00 	add    $0xdc00,%r9d
    9d6f:	44 89 0c b7          	mov    %r9d,(%rdi,%rsi,4)
    9d73:	48 ff c6             	inc    %rsi
    9d76:	48 39 c6             	cmp    %rax,%rsi
    9d79:	75 e7                	jne    9d62 <main+0x23d>
    9d7b:	48 01 f5             	add    %rsi,%rbp
    9d7e:	48 8d 3c b7          	lea    (%rdi,%rsi,4),%rdi
    9d82:	eb 07                	jmp    9d8b <main+0x266>
    9d84:	48 01 c5             	add    %rax,%rbp
    9d87:	48 83 c7 04          	add    $0x4,%rdi
    9d8b:	48 85 d2             	test   %rdx,%rdx
    9d8e:	0f 85 3f ff ff ff    	jne    9cd3 <main+0x1ae>
    9d94:	eb 16                	jmp    9dac <main+0x287>
    9d96:	48 8b 35 83 99 00 00 	mov    0x9983(%rip),%rsi        # 13720 <stderr@@GLIBC_2.2.5>
    9d9d:	48 8d 3d 76 3c 00 00 	lea    0x3c76(%rip),%rdi        # da1a <_IO_stdin_used+0xa1a>
    9da4:	e8 f7 ab ff ff       	callq  49a0 <fputs@plt>
    9da9:	45 31 ff             	xor    %r15d,%r15d
    9dac:	4d 85 ff             	test   %r15,%r15
    9daf:	b8 01 00 00 00       	mov    $0x1,%eax
    9db4:	4d 89 7c dd 00       	mov    %r15,0x0(%r13,%rbx,8)
    9db9:	4d 89 3c de          	mov    %r15,(%r14,%rbx,8)
    9dbd:	44 0f 44 e0          	cmove  %eax,%r12d
    9dc1:	48 ff c3             	inc    %rbx
    9dc4:	e9 3b fe ff ff       	jmpq   9c04 <main+0xdf>
    9dc9:	48 8b 74 24 08       	mov    0x8(%rsp),%rsi
    9dce:	bf 06 00 00 00       	mov    $0x6,%edi
    9dd3:	e8 18 ae ff ff       	callq  4bf0 <setlocale@plt>
    9dd8:	48 8b 7c 24 08       	mov    0x8(%rsp),%rdi
    9ddd:	e8 8e aa ff ff       	callq  4870 <free@plt>
    9de2:	45 85 e4             	test   %r12d,%r12d
    9de5:	75 22                	jne    9e09 <main+0x2e4>
    9de7:	49 8b 7d 00          	mov    0x0(%r13),%rdi
    9deb:	e8 30 aa ff ff       	callq  4820 <Py_SetProgramName@plt>
    9df0:	e8 eb ab ff ff       	callq  49e0 <Py_Initialize@plt>
    9df5:	8b 7c 24 04          	mov    0x4(%rsp),%edi
    9df9:	4c 89 ee             	mov    %r13,%rsi
    9dfc:	e8 df a8 ff ff       	callq  46e0 <PySys_SetArgv@plt>
    9e01:	e8 85 fc ff ff       	callq  9a8b <__Pyx_main.part.0>
    9e06:	41 89 c4             	mov    %eax,%r12d
    9e09:	31 db                	xor    %ebx,%ebx
    9e0b:	39 5c 24 04          	cmp    %ebx,0x4(%rsp)
    9e0f:	7e 0e                	jle    9e1f <main+0x2fa>
    9e11:	49 8b 3c de          	mov    (%r14,%rbx,8),%rdi
    9e15:	48 ff c3             	inc    %rbx
    9e18:	e8 f3 aa ff ff       	callq  4910 <PyMem_RawFree@plt>
    9e1d:	eb ec                	jmp    9e0b <main+0x2e6>
    9e1f:	4c 89 ef             	mov    %r13,%rdi
    9e22:	e8 49 aa ff ff       	callq  4870 <free@plt>
    9e27:	4c 89 f7             	mov    %r14,%rdi
    9e2a:	e8 41 aa ff ff       	callq  4870 <free@plt>
    9e2f:	48 8b 44 24 38       	mov    0x38(%rsp),%rax
    9e34:	64 48 33 04 25 28 00 	xor    %fs:0x28,%rax
    9e3b:	00 00 
    9e3d:	74 05                	je     9e44 <main+0x31f>
    9e3f:	e8 fc ab ff ff       	callq  4a40 <__stack_chk_fail@plt>
    9e44:	48 83 c4 48          	add    $0x48,%rsp
    9e48:	44 89 e0             	mov    %r12d,%eax
    9e4b:	5b                   	pop    %rbx
    9e4c:	5d                   	pop    %rbp
    9e4d:	41 5c                	pop    %r12
    9e4f:	41 5d                	pop    %r13
    9e51:	41 5e                	pop    %r14
    9e53:	41 5f                	pop    %r15
    9e55:	c3                   	retq   
    9e56:	66 2e 0f 1f 84 00 00 	nopw   %cs:0x0(%rax,%rax,1)
    9e5d:	00 00 00 

0000000000009e60 <_start>:
    9e60:	f3 0f 1e fa          	endbr64 
    9e64:	31 ed                	xor    %ebp,%ebp
    9e66:	49 89 d1             	mov    %rdx,%r9
    9e69:	5e                   	pop    %rsi
    9e6a:	48 89 e2             	mov    %rsp,%rdx
    9e6d:	48 83 e4 f0          	and    $0xfffffffffffffff0,%rsp
    9e71:	50                   	push   %rax
    9e72:	54                   	push   %rsp
    9e73:	4c 8d 05 66 30 00 00 	lea    0x3066(%rip),%r8        # cee0 <__libc_csu_fini>
    9e7a:	48 8d 0d ef 2f 00 00 	lea    0x2fef(%rip),%rcx        # ce70 <__libc_csu_init>
    9e81:	48 8d 3d 9d fc ff ff 	lea    -0x363(%rip),%rdi        # 9b25 <main>
    9e88:	ff 15 3a 71 00 00    	callq  *0x713a(%rip)        # 10fc8 <__libc_start_main@GLIBC_2.2.5>
    9e8e:	f4                   	hlt    
    9e8f:	90                   	nop

0000000000009e90 <deregister_tm_clones>:
    9e90:	48 8d 3d c9 83 00 00 	lea    0x83c9(%rip),%rdi        # 12260 <PyExc_ImportError>
    9e97:	48 8d 05 c2 83 00 00 	lea    0x83c2(%rip),%rax        # 12260 <PyExc_ImportError>
    9e9e:	48 39 f8             	cmp    %rdi,%rax
    9ea1:	74 15                	je     9eb8 <deregister_tm_clones+0x28>
    9ea3:	48 8b 05 26 71 00 00 	mov    0x7126(%rip),%rax        # 10fd0 <_ITM_deregisterTMCloneTable>
    9eaa:	48 85 c0             	test   %rax,%rax
    9ead:	74 09                	je     9eb8 <deregister_tm_clones+0x28>
    9eaf:	ff e0                	jmpq   *%rax
    9eb1:	0f 1f 80 00 00 00 00 	nopl   0x0(%rax)
    9eb8:	c3                   	retq   
    9eb9:	0f 1f 80 00 00 00 00 	nopl   0x0(%rax)

0000000000009ec0 <register_tm_clones>:
    9ec0:	48 8d 3d 99 83 00 00 	lea    0x8399(%rip),%rdi        # 12260 <PyExc_ImportError>
    9ec7:	48 8d 35 92 83 00 00 	lea    0x8392(%rip),%rsi        # 12260 <PyExc_ImportError>
    9ece:	48 29 fe             	sub    %rdi,%rsi
    9ed1:	48 89 f0             	mov    %rsi,%rax
    9ed4:	48 c1 ee 3f          	shr    $0x3f,%rsi
    9ed8:	48 c1 f8 03          	sar    $0x3,%rax
    9edc:	48 01 c6             	add    %rax,%rsi
    9edf:	48 d1 fe             	sar    %rsi
    9ee2:	74 14                	je     9ef8 <register_tm_clones+0x38>
    9ee4:	48 8b 05 f5 70 00 00 	mov    0x70f5(%rip),%rax        # 10fe0 <_ITM_registerTMCloneTable>
    9eeb:	48 85 c0             	test   %rax,%rax
    9eee:	74 08                	je     9ef8 <register_tm_clones+0x38>
    9ef0:	ff e0                	jmpq   *%rax
    9ef2:	66 0f 1f 44 00 00    	nopw   0x0(%rax,%rax,1)
    9ef8:	c3                   	retq   
    9ef9:	0f 1f 80 00 00 00 00 	nopl   0x0(%rax)

0000000000009f00 <__do_global_dtors_aux>:
    9f00:	f3 0f 1e fa          	endbr64 
    9f04:	80 3d 75 9b 00 00 00 	cmpb   $0x0,0x9b75(%rip)        # 13a80 <completed.8060>
    9f0b:	75 2b                	jne    9f38 <__do_global_dtors_aux+0x38>
    9f0d:	55                   	push   %rbp
    9f0e:	48 83 3d d2 70 00 00 	cmpq   $0x0,0x70d2(%rip)        # 10fe8 <__cxa_finalize@GLIBC_2.2.5>
    9f15:	00 
    9f16:	48 89 e5             	mov    %rsp,%rbp
    9f19:	74 0c                	je     9f27 <__do_global_dtors_aux+0x27>
    9f1b:	48 8b 3d e6 70 00 00 	mov    0x70e6(%rip),%rdi        # 11008 <__dso_handle>
    9f22:	e8 19 a7 ff ff       	callq  4640 <__cxa_finalize@plt>
    9f27:	e8 64 ff ff ff       	callq  9e90 <deregister_tm_clones>
    9f2c:	c6 05 4d 9b 00 00 01 	movb   $0x1,0x9b4d(%rip)        # 13a80 <completed.8060>
    9f33:	5d                   	pop    %rbp
    9f34:	c3                   	retq   
    9f35:	0f 1f 00             	nopl   (%rax)
    9f38:	c3                   	retq   
    9f39:	0f 1f 80 00 00 00 00 	nopl   0x0(%rax)

0000000000009f40 <frame_dummy>:
    9f40:	f3 0f 1e fa          	endbr64 
    9f44:	e9 77 ff ff ff       	jmpq   9ec0 <register_tm_clones>

0000000000009f49 <__Pyx_CyFunction_get_qualname>:
    9f49:	f3 0f 1e fa          	endbr64 
    9f4d:	48 8b 47 48          	mov    0x48(%rdi),%rax
    9f51:	48 ff 00             	incq   (%rax)
    9f54:	c3                   	retq   

0000000000009f55 <__Pyx_CyFunction_get_self>:
    9f55:	f3 0f 1e fa          	endbr64 
    9f59:	48 8b 47 68          	mov    0x68(%rdi),%rax
    9f5d:	48 85 c0             	test   %rax,%rax
    9f60:	75 07                	jne    9f69 <__Pyx_CyFunction_get_self+0x14>
    9f62:	48 8d 05 d7 95 00 00 	lea    0x95d7(%rip),%rax        # 13540 <_Py_NoneStruct>
    9f69:	48 ff 00             	incq   (%rax)
    9f6c:	c3                   	retq   

0000000000009f6d <__Pyx_CyFunction_get_globals>:
    9f6d:	f3 0f 1e fa          	endbr64 
    9f71:	48 8b 47 58          	mov    0x58(%rdi),%rax
    9f75:	48 ff 00             	incq   (%rax)
    9f78:	c3                   	retq   

0000000000009f79 <__Pyx_CyFunction_get_closure>:
    9f79:	f3 0f 1e fa          	endbr64 
    9f7d:	48 ff 05 bc 95 00 00 	incq   0x95bc(%rip)        # 13540 <_Py_NoneStruct>
    9f84:	48 8d 05 b5 95 00 00 	lea    0x95b5(%rip),%rax        # 13540 <_Py_NoneStruct>
    9f8b:	c3                   	retq   

0000000000009f8c <__Pyx_CyFunction_get_code>:
    9f8c:	f3 0f 1e fa          	endbr64 
    9f90:	48 8b 47 60          	mov    0x60(%rdi),%rax
    9f94:	48 85 c0             	test   %rax,%rax
    9f97:	75 07                	jne    9fa0 <__Pyx_CyFunction_get_code+0x14>
    9f99:	48 8d 05 a0 95 00 00 	lea    0x95a0(%rip),%rax        # 13540 <_Py_NoneStruct>
    9fa0:	48 ff 00             	incq   (%rax)
    9fa3:	c3                   	retq   

0000000000009fa4 <__pyx_bisect_code_objects>:
    9fa4:	89 f0                	mov    %esi,%eax
    9fa6:	ff ce                	dec    %esi
    9fa8:	78 0d                	js     9fb7 <__pyx_bisect_code_objects+0x13>
    9faa:	48 63 ce             	movslq %esi,%rcx
    9fad:	48 c1 e1 04          	shl    $0x4,%rcx
    9fb1:	39 54 0f 08          	cmp    %edx,0x8(%rdi,%rcx,1)
    9fb5:	7c 38                	jl     9fef <__pyx_bisect_code_objects+0x4b>
    9fb7:	31 c0                	xor    %eax,%eax
    9fb9:	31 c9                	xor    %ecx,%ecx
    9fbb:	39 f1                	cmp    %esi,%ecx
    9fbd:	7d 21                	jge    9fe0 <__pyx_bisect_code_objects+0x3c>
    9fbf:	89 f0                	mov    %esi,%eax
    9fc1:	29 c8                	sub    %ecx,%eax
    9fc3:	d1 f8                	sar    %eax
    9fc5:	01 c8                	add    %ecx,%eax
    9fc7:	4c 63 c0             	movslq %eax,%r8
    9fca:	49 c1 e0 04          	shl    $0x4,%r8
    9fce:	42 39 54 07 08       	cmp    %edx,0x8(%rdi,%r8,1)
    9fd3:	7f 07                	jg     9fdc <__pyx_bisect_code_objects+0x38>
    9fd5:	7d 18                	jge    9fef <__pyx_bisect_code_objects+0x4b>
    9fd7:	8d 48 01             	lea    0x1(%rax),%ecx
    9fda:	eb df                	jmp    9fbb <__pyx_bisect_code_objects+0x17>
    9fdc:	89 c6                	mov    %eax,%esi
    9fde:	eb db                	jmp    9fbb <__pyx_bisect_code_objects+0x17>
    9fe0:	48 63 c8             	movslq %eax,%rcx
    9fe3:	48 c1 e1 04          	shl    $0x4,%rcx
    9fe7:	39 54 0f 08          	cmp    %edx,0x8(%rdi,%rcx,1)
    9feb:	7d 02                	jge    9fef <__pyx_bisect_code_objects+0x4b>
    9fed:	ff c0                	inc    %eax
    9fef:	c3                   	retq   

0000000000009ff0 <__Pyx_CyFunction_get_annotations>:
    9ff0:	f3 0f 1e fa          	endbr64 
    9ff4:	48 8b 87 b0 00 00 00 	mov    0xb0(%rdi),%rax
    9ffb:	48 85 c0             	test   %rax,%rax
    9ffe:	75 1a                	jne    a01a <__Pyx_CyFunction_get_annotations+0x2a>
    a000:	53                   	push   %rbx
    a001:	48 89 fb             	mov    %rdi,%rbx
    a004:	e8 57 ac ff ff       	callq  4c60 <PyDict_New@plt>
    a009:	48 85 c0             	test   %rax,%rax
    a00c:	74 0a                	je     a018 <__Pyx_CyFunction_get_annotations+0x28>
    a00e:	48 89 83 b0 00 00 00 	mov    %rax,0xb0(%rbx)
    a015:	48 ff 00             	incq   (%rax)
    a018:	5b                   	pop    %rbx
    a019:	c3                   	retq   
    a01a:	48 ff 00             	incq   (%rax)
    a01d:	c3                   	retq   

000000000000a01e <__Pyx_CyFunction_get_dict>:
    a01e:	f3 0f 1e fa          	endbr64 
    a022:	48 83 7f 38 00       	cmpq   $0x0,0x38(%rdi)
    a027:	53                   	push   %rbx
    a028:	48 89 fb             	mov    %rdi,%rbx
    a02b:	74 09                	je     a036 <__Pyx_CyFunction_get_dict+0x18>
    a02d:	48 8b 43 38          	mov    0x38(%rbx),%rax
    a031:	48 ff 00             	incq   (%rax)
    a034:	eb 0e                	jmp    a044 <__Pyx_CyFunction_get_dict+0x26>
    a036:	e8 25 ac ff ff       	callq  4c60 <PyDict_New@plt>
    a03b:	48 89 43 38          	mov    %rax,0x38(%rbx)
    a03f:	48 85 c0             	test   %rax,%rax
    a042:	75 e9                	jne    a02d <__Pyx_CyFunction_get_dict+0xf>
    a044:	5b                   	pop    %rbx
    a045:	c3                   	retq   

000000000000a046 <__Pyx_CyFunction_CallMethod>:
    a046:	41 55                	push   %r13
    a048:	41 54                	push   %r12
    a04a:	49 89 f4             	mov    %rsi,%r12
    a04d:	55                   	push   %rbp
    a04e:	48 89 d5             	mov    %rdx,%rbp
    a051:	53                   	push   %rbx
    a052:	48 89 fb             	mov    %rdi,%rbx
    a055:	48 89 cf             	mov    %rcx,%rdi
    a058:	41 51                	push   %r9
    a05a:	48 8b 43 10          	mov    0x10(%rbx),%rax
    a05e:	4c 8b 68 08          	mov    0x8(%rax),%r13
    a062:	8b 40 10             	mov    0x10(%rax),%eax
    a065:	83 e0 0f             	and    $0xf,%eax
    a068:	83 f8 04             	cmp    $0x4,%eax
    a06b:	74 4c                	je     a0b9 <__Pyx_CyFunction_CallMethod+0x73>
    a06d:	7f 24                	jg     a093 <__Pyx_CyFunction_CallMethod+0x4d>
    a06f:	83 f8 01             	cmp    $0x1,%eax
    a072:	74 29                	je     a09d <__Pyx_CyFunction_CallMethod+0x57>
    a074:	83 f8 03             	cmp    $0x3,%eax
    a077:	0f 85 00 01 00 00    	jne    a17d <__Pyx_CyFunction_CallMethod+0x137>
    a07d:	41 58                	pop    %r8
    a07f:	48 89 ee             	mov    %rbp,%rsi
    a082:	5b                   	pop    %rbx
    a083:	4c 89 e7             	mov    %r12,%rdi
    a086:	5d                   	pop    %rbp
    a087:	4c 89 e8             	mov    %r13,%rax
    a08a:	41 5c                	pop    %r12
    a08c:	48 89 ca             	mov    %rcx,%rdx
    a08f:	41 5d                	pop    %r13
    a091:	ff e0                	jmpq   *%rax
    a093:	83 f8 08             	cmp    $0x8,%eax
    a096:	74 6b                	je     a103 <__Pyx_CyFunction_CallMethod+0xbd>
    a098:	e9 e0 00 00 00       	jmpq   a17d <__Pyx_CyFunction_CallMethod+0x137>
    a09d:	48 85 c9             	test   %rcx,%rcx
    a0a0:	75 08                	jne    a0aa <__Pyx_CyFunction_CallMethod+0x64>
    a0a2:	48 89 ee             	mov    %rbp,%rsi
    a0a5:	e9 a6 00 00 00       	jmpq   a150 <__Pyx_CyFunction_CallMethod+0x10a>
    a0aa:	e8 71 a8 ff ff       	callq  4920 <PyDict_Size@plt>
    a0af:	48 85 c0             	test   %rax,%rax
    a0b2:	74 ee                	je     a0a2 <__Pyx_CyFunction_CallMethod+0x5c>
    a0b4:	e9 d9 00 00 00       	jmpq   a192 <__Pyx_CyFunction_CallMethod+0x14c>
    a0b9:	48 85 c9             	test   %rcx,%rcx
    a0bc:	75 1b                	jne    a0d9 <__Pyx_CyFunction_CallMethod+0x93>
    a0be:	48 8b 45 08          	mov    0x8(%rbp),%rax
    a0c2:	f6 80 ab 00 00 00 04 	testb  $0x4,0xab(%rax)
    a0c9:	75 1d                	jne    a0e8 <__Pyx_CyFunction_CallMethod+0xa2>
    a0cb:	48 8d 0d 4e 3b 00 00 	lea    0x3b4e(%rip),%rcx        # dc20 <__PRETTY_FUNCTION__.16661>
    a0d2:	ba f8 15 00 00       	mov    $0x15f8,%edx
    a0d7:	eb 56                	jmp    a12f <__Pyx_CyFunction_CallMethod+0xe9>
    a0d9:	e8 42 a8 ff ff       	callq  4920 <PyDict_Size@plt>
    a0de:	48 85 c0             	test   %rax,%rax
    a0e1:	74 db                	je     a0be <__Pyx_CyFunction_CallMethod+0x78>
    a0e3:	e9 aa 00 00 00       	jmpq   a192 <__Pyx_CyFunction_CallMethod+0x14c>
    a0e8:	48 8b 4d 10          	mov    0x10(%rbp),%rcx
    a0ec:	31 f6                	xor    %esi,%esi
    a0ee:	48 85 c9             	test   %rcx,%rcx
    a0f1:	74 5d                	je     a150 <__Pyx_CyFunction_CallMethod+0x10a>
    a0f3:	48 8b 43 10          	mov    0x10(%rbx),%rax
    a0f7:	48 8d 35 27 2f 00 00 	lea    0x2f27(%rip),%rsi        # d025 <_IO_stdin_used+0x25>
    a0fe:	48 8b 10             	mov    (%rax),%rdx
    a101:	eb 6a                	jmp    a16d <__Pyx_CyFunction_CallMethod+0x127>
    a103:	48 85 c9             	test   %rcx,%rcx
    a106:	75 1b                	jne    a123 <__Pyx_CyFunction_CallMethod+0xdd>
    a108:	48 8b 45 08          	mov    0x8(%rbp),%rax
    a10c:	f6 80 ab 00 00 00 04 	testb  $0x4,0xab(%rax)
    a113:	75 2d                	jne    a142 <__Pyx_CyFunction_CallMethod+0xfc>
    a115:	48 8d 0d 04 3b 00 00 	lea    0x3b04(%rip),%rcx        # dc20 <__PRETTY_FUNCTION__.16661>
    a11c:	ba 03 16 00 00       	mov    $0x1603,%edx
    a121:	eb 0c                	jmp    a12f <__Pyx_CyFunction_CallMethod+0xe9>
    a123:	e8 f8 a7 ff ff       	callq  4920 <PyDict_Size@plt>
    a128:	48 85 c0             	test   %rax,%rax
    a12b:	74 db                	je     a108 <__Pyx_CyFunction_CallMethod+0xc2>
    a12d:	eb 63                	jmp    a192 <__Pyx_CyFunction_CallMethod+0x14c>
    a12f:	48 8d 35 ce 2e 00 00 	lea    0x2ece(%rip),%rsi        # d004 <_IO_stdin_used+0x4>
    a136:	48 8d 3d d5 2e 00 00 	lea    0x2ed5(%rip),%rdi        # d012 <_IO_stdin_used+0x12>
    a13d:	e8 ae a5 ff ff       	callq  46f0 <__assert_fail@plt>
    a142:	48 8b 4d 10          	mov    0x10(%rbp),%rcx
    a146:	48 83 f9 01          	cmp    $0x1,%rcx
    a14a:	75 13                	jne    a15f <__Pyx_CyFunction_CallMethod+0x119>
    a14c:	48 8b 75 18          	mov    0x18(%rbp),%rsi
    a150:	59                   	pop    %rcx
    a151:	4c 89 e7             	mov    %r12,%rdi
    a154:	5b                   	pop    %rbx
    a155:	4c 89 e8             	mov    %r13,%rax
    a158:	5d                   	pop    %rbp
    a159:	41 5c                	pop    %r12
    a15b:	41 5d                	pop    %r13
    a15d:	ff e0                	jmpq   *%rax
    a15f:	48 8b 43 10          	mov    0x10(%rbx),%rax
    a163:	48 8d 35 e3 2e 00 00 	lea    0x2ee3(%rip),%rsi        # d04d <_IO_stdin_used+0x4d>
    a16a:	48 8b 10             	mov    (%rax),%rdx
    a16d:	48 8b 3d 6c 84 00 00 	mov    0x846c(%rip),%rdi        # 125e0 <PyExc_TypeError>
    a174:	31 c0                	xor    %eax,%eax
    a176:	e8 65 a6 ff ff       	callq  47e0 <PyErr_Format@plt>
    a17b:	eb 31                	jmp    a1ae <__Pyx_CyFunction_CallMethod+0x168>
    a17d:	48 8b 3d ac 82 00 00 	mov    0x82ac(%rip),%rdi        # 12430 <PyExc_SystemError>
    a184:	48 8d 35 f2 2e 00 00 	lea    0x2ef2(%rip),%rsi        # d07d <_IO_stdin_used+0x7d>
    a18b:	e8 00 aa ff ff       	callq  4b90 <PyErr_SetString@plt>
    a190:	eb 1c                	jmp    a1ae <__Pyx_CyFunction_CallMethod+0x168>
    a192:	48 8b 43 10          	mov    0x10(%rbx),%rax
    a196:	48 8b 3d 43 84 00 00 	mov    0x8443(%rip),%rdi        # 125e0 <PyExc_TypeError>
    a19d:	48 8d 35 27 2f 00 00 	lea    0x2f27(%rip),%rsi        # d0cb <_IO_stdin_used+0xcb>
    a1a4:	48 8b 10             	mov    (%rax),%rdx
    a1a7:	31 c0                	xor    %eax,%eax
    a1a9:	e8 32 a6 ff ff       	callq  47e0 <PyErr_Format@plt>
    a1ae:	5a                   	pop    %rdx
    a1af:	31 c0                	xor    %eax,%eax
    a1b1:	5b                   	pop    %rbx
    a1b2:	5d                   	pop    %rbp
    a1b3:	41 5c                	pop    %r12
    a1b5:	41 5d                	pop    %r13
    a1b7:	c3                   	retq   

000000000000a1b8 <__Pyx_CyFunction_descr_get>:
    a1b8:	f3 0f 1e fa          	endbr64 
    a1bc:	48 89 f8             	mov    %rdi,%rax
    a1bf:	48 85 f6             	test   %rsi,%rsi
    a1c2:	74 05                	je     a1c9 <__Pyx_CyFunction_descr_get+0x11>
    a1c4:	e9 27 a9 ff ff       	jmpq   4af0 <PyMethod_New@plt>
    a1c9:	48 ff 07             	incq   (%rdi)
    a1cc:	c3                   	retq   

000000000000a1cd <__Pyx_CyFunction_get_name>:
    a1cd:	f3 0f 1e fa          	endbr64 
    a1d1:	53                   	push   %rbx
    a1d2:	48 83 7f 40 00       	cmpq   $0x0,0x40(%rdi)
    a1d7:	48 89 fb             	mov    %rdi,%rbx
    a1da:	74 09                	je     a1e5 <__Pyx_CyFunction_get_name+0x18>
    a1dc:	48 8b 43 40          	mov    0x40(%rbx),%rax
    a1e0:	48 ff 00             	incq   (%rax)
    a1e3:	eb 15                	jmp    a1fa <__Pyx_CyFunction_get_name+0x2d>
    a1e5:	48 8b 47 10          	mov    0x10(%rdi),%rax
    a1e9:	48 8b 38             	mov    (%rax),%rdi
    a1ec:	e8 bf a6 ff ff       	callq  48b0 <PyUnicode_InternFromString@plt>
    a1f1:	48 89 43 40          	mov    %rax,0x40(%rbx)
    a1f5:	48 85 c0             	test   %rax,%rax
    a1f8:	75 e2                	jne    a1dc <__Pyx_CyFunction_get_name+0xf>
    a1fa:	5b                   	pop    %rbx
    a1fb:	c3                   	retq   

000000000000a1fc <__Pyx_CyFunction_repr>:
    a1fc:	f3 0f 1e fa          	endbr64 
    a200:	48 8b 77 48          	mov    0x48(%rdi),%rsi
    a204:	48 89 fa             	mov    %rdi,%rdx
    a207:	31 c0                	xor    %eax,%eax
    a209:	48 8d 3d 06 2f 00 00 	lea    0x2f06(%rip),%rdi        # d116 <_IO_stdin_used+0x116>
    a210:	e9 9b a5 ff ff       	jmpq   47b0 <PyUnicode_FromFormat@plt>

000000000000a215 <__Pyx_PyObject_GetAttrStr>:
    a215:	48 8b 47 08          	mov    0x8(%rdi),%rax
    a219:	48 8b 80 90 00 00 00 	mov    0x90(%rax),%rax
    a220:	48 85 c0             	test   %rax,%rax
    a223:	74 02                	je     a227 <__Pyx_PyObject_GetAttrStr+0x12>
    a225:	ff e0                	jmpq   *%rax
    a227:	e9 04 a6 ff ff       	jmpq   4830 <PyObject_GetAttr@plt>

000000000000a22c <__Pyx_PyObject_CallMethO>:
    a22c:	41 54                	push   %r12
    a22e:	49 89 f4             	mov    %rsi,%r12
    a231:	55                   	push   %rbp
    a232:	31 ed                	xor    %ebp,%ebp
    a234:	53                   	push   %rbx
    a235:	48 8b 47 10          	mov    0x10(%rdi),%rax
    a239:	48 8b 58 08          	mov    0x8(%rax),%rbx
    a23d:	f6 40 10 20          	testb  $0x20,0x10(%rax)
    a241:	75 04                	jne    a247 <__Pyx_PyObject_CallMethO+0x1b>
    a243:	48 8b 6f 18          	mov    0x18(%rdi),%rbp
    a247:	e8 b4 a6 ff ff       	callq  4900 <PyThreadState_Get@plt>
    a24c:	8b 48 20             	mov    0x20(%rax),%ecx
    a24f:	8d 51 01             	lea    0x1(%rcx),%edx
    a252:	3b 15 28 8c 00 00    	cmp    0x8c28(%rip),%edx        # 12e80 <_Py_CheckRecursionLimit>
    a258:	89 50 20             	mov    %edx,0x20(%rax)
    a25b:	7f 31                	jg     a28e <__Pyx_PyObject_CallMethO+0x62>
    a25d:	4c 89 e6             	mov    %r12,%rsi
    a260:	48 89 ef             	mov    %rbp,%rdi
    a263:	ff d3                	callq  *%rbx
    a265:	49 89 c4             	mov    %rax,%r12
    a268:	e8 93 a6 ff ff       	callq  4900 <PyThreadState_Get@plt>
    a26d:	8b 58 20             	mov    0x20(%rax),%ebx
    a270:	8d 53 ff             	lea    -0x1(%rbx),%edx
    a273:	89 50 20             	mov    %edx,0x20(%rax)
    a276:	8b 05 04 8c 00 00    	mov    0x8c04(%rip),%eax        # 12e80 <_Py_CheckRecursionLimit>
    a27c:	8d 48 ce             	lea    -0x32(%rax),%ecx
    a27f:	3d c8 00 00 00       	cmp    $0xc8,%eax
    a284:	7f 1d                	jg     a2a3 <__Pyx_PyObject_CallMethO+0x77>
    a286:	c1 f8 02             	sar    $0x2,%eax
    a289:	8d 0c 40             	lea    (%rax,%rax,2),%ecx
    a28c:	eb 15                	jmp    a2a3 <__Pyx_PyObject_CallMethO+0x77>
    a28e:	48 8d 3d 97 2e 00 00 	lea    0x2e97(%rip),%rdi        # d12c <_IO_stdin_used+0x12c>
    a295:	e8 b6 a8 ff ff       	callq  4b50 <_Py_CheckRecursiveCall@plt>
    a29a:	85 c0                	test   %eax,%eax
    a29c:	74 bf                	je     a25d <__Pyx_PyObject_CallMethO+0x31>
    a29e:	45 31 e4             	xor    %r12d,%r12d
    a2a1:	eb 32                	jmp    a2d5 <__Pyx_PyObject_CallMethO+0xa9>
    a2a3:	39 ca                	cmp    %ecx,%edx
    a2a5:	7d 09                	jge    a2b0 <__Pyx_PyObject_CallMethO+0x84>
    a2a7:	e8 54 a6 ff ff       	callq  4900 <PyThreadState_Get@plt>
    a2ac:	c6 40 24 00          	movb   $0x0,0x24(%rax)
    a2b0:	4d 85 e4             	test   %r12,%r12
    a2b3:	75 20                	jne    a2d5 <__Pyx_PyObject_CallMethO+0xa9>
    a2b5:	e8 96 a5 ff ff       	callq  4850 <PyErr_Occurred@plt>
    a2ba:	49 89 c4             	mov    %rax,%r12
    a2bd:	48 85 c0             	test   %rax,%rax
    a2c0:	75 dc                	jne    a29e <__Pyx_PyObject_CallMethO+0x72>
    a2c2:	48 8b 3d 67 81 00 00 	mov    0x8167(%rip),%rdi        # 12430 <PyExc_SystemError>
    a2c9:	48 8d 35 7b 2e 00 00 	lea    0x2e7b(%rip),%rsi        # d14b <_IO_stdin_used+0x14b>
    a2d0:	e8 bb a8 ff ff       	callq  4b90 <PyErr_SetString@plt>
    a2d5:	4c 89 e0             	mov    %r12,%rax
    a2d8:	5b                   	pop    %rbx
    a2d9:	5d                   	pop    %rbp
    a2da:	41 5c                	pop    %r12
    a2dc:	c3                   	retq   

000000000000a2dd <__Pyx_PyObject_Call>:
    a2dd:	41 55                	push   %r13
    a2df:	49 89 d5             	mov    %rdx,%r13
    a2e2:	41 54                	push   %r12
    a2e4:	49 89 fc             	mov    %rdi,%r12
    a2e7:	55                   	push   %rbp
    a2e8:	48 89 f5             	mov    %rsi,%rbp
    a2eb:	53                   	push   %rbx
    a2ec:	41 50                	push   %r8
    a2ee:	48 8b 47 08          	mov    0x8(%rdi),%rax
    a2f2:	48 8b 98 80 00 00 00 	mov    0x80(%rax),%rbx
    a2f9:	48 85 db             	test   %rbx,%rbx
    a2fc:	75 0c                	jne    a30a <__Pyx_PyObject_Call+0x2d>
    a2fe:	59                   	pop    %rcx
    a2ff:	5b                   	pop    %rbx
    a300:	5d                   	pop    %rbp
    a301:	41 5c                	pop    %r12
    a303:	41 5d                	pop    %r13
    a305:	e9 96 a7 ff ff       	jmpq   4aa0 <PyObject_Call@plt>
    a30a:	e8 f1 a5 ff ff       	callq  4900 <PyThreadState_Get@plt>
    a30f:	8b 48 20             	mov    0x20(%rax),%ecx
    a312:	8d 51 01             	lea    0x1(%rcx),%edx
    a315:	3b 15 65 8b 00 00    	cmp    0x8b65(%rip),%edx        # 12e80 <_Py_CheckRecursionLimit>
    a31b:	89 50 20             	mov    %edx,0x20(%rax)
    a31e:	7f 34                	jg     a354 <__Pyx_PyObject_Call+0x77>
    a320:	4c 89 ea             	mov    %r13,%rdx
    a323:	4c 89 e7             	mov    %r12,%rdi
    a326:	48 89 ee             	mov    %rbp,%rsi
    a329:	ff d3                	callq  *%rbx
    a32b:	49 89 c4             	mov    %rax,%r12
    a32e:	e8 cd a5 ff ff       	callq  4900 <PyThreadState_Get@plt>
    a333:	8b 58 20             	mov    0x20(%rax),%ebx
    a336:	8d 53 ff             	lea    -0x1(%rbx),%edx
    a339:	89 50 20             	mov    %edx,0x20(%rax)
    a33c:	8b 05 3e 8b 00 00    	mov    0x8b3e(%rip),%eax        # 12e80 <_Py_CheckRecursionLimit>
    a342:	8d 48 ce             	lea    -0x32(%rax),%ecx
    a345:	3d c8 00 00 00       	cmp    $0xc8,%eax
    a34a:	7f 1d                	jg     a369 <__Pyx_PyObject_Call+0x8c>
    a34c:	c1 f8 02             	sar    $0x2,%eax
    a34f:	8d 0c 40             	lea    (%rax,%rax,2),%ecx
    a352:	eb 15                	jmp    a369 <__Pyx_PyObject_Call+0x8c>
    a354:	48 8d 3d d1 2d 00 00 	lea    0x2dd1(%rip),%rdi        # d12c <_IO_stdin_used+0x12c>
    a35b:	e8 f0 a7 ff ff       	callq  4b50 <_Py_CheckRecursiveCall@plt>
    a360:	85 c0                	test   %eax,%eax
    a362:	74 bc                	je     a320 <__Pyx_PyObject_Call+0x43>
    a364:	45 31 e4             	xor    %r12d,%r12d
    a367:	eb 32                	jmp    a39b <__Pyx_PyObject_Call+0xbe>
    a369:	39 ca                	cmp    %ecx,%edx
    a36b:	7d 09                	jge    a376 <__Pyx_PyObject_Call+0x99>
    a36d:	e8 8e a5 ff ff       	callq  4900 <PyThreadState_Get@plt>
    a372:	c6 40 24 00          	movb   $0x0,0x24(%rax)
    a376:	4d 85 e4             	test   %r12,%r12
    a379:	75 20                	jne    a39b <__Pyx_PyObject_Call+0xbe>
    a37b:	e8 d0 a4 ff ff       	callq  4850 <PyErr_Occurred@plt>
    a380:	49 89 c4             	mov    %rax,%r12
    a383:	48 85 c0             	test   %rax,%rax
    a386:	75 dc                	jne    a364 <__Pyx_PyObject_Call+0x87>
    a388:	48 8b 3d a1 80 00 00 	mov    0x80a1(%rip),%rdi        # 12430 <PyExc_SystemError>
    a38f:	48 8d 35 b5 2d 00 00 	lea    0x2db5(%rip),%rsi        # d14b <_IO_stdin_used+0x14b>
    a396:	e8 f5 a7 ff ff       	callq  4b90 <PyErr_SetString@plt>
    a39b:	5a                   	pop    %rdx
    a39c:	4c 89 e0             	mov    %r12,%rax
    a39f:	5b                   	pop    %rbx
    a3a0:	5d                   	pop    %rbp
    a3a1:	41 5c                	pop    %r12
    a3a3:	41 5d                	pop    %r13
    a3a5:	c3                   	retq   

000000000000a3a6 <__Pyx_PyObject_IsTrue>:
    a3a6:	48 8d 05 b3 8a 00 00 	lea    0x8ab3(%rip),%rax        # 12e60 <_Py_TrueStruct>
    a3ad:	48 8d 15 ec 88 00 00 	lea    0x88ec(%rip),%rdx        # 12ca0 <_Py_FalseStruct>
    a3b4:	48 39 c7             	cmp    %rax,%rdi
    a3b7:	0f 94 c0             	sete   %al
    a3ba:	48 39 d7             	cmp    %rdx,%rdi
    a3bd:	0f 94 c2             	sete   %dl
    a3c0:	08 c2                	or     %al,%dl
    a3c2:	75 0c                	jne    a3d0 <__Pyx_PyObject_IsTrue+0x2a>
    a3c4:	48 8d 15 75 91 00 00 	lea    0x9175(%rip),%rdx        # 13540 <_Py_NoneStruct>
    a3cb:	48 39 d7             	cmp    %rdx,%rdi
    a3ce:	75 04                	jne    a3d4 <__Pyx_PyObject_IsTrue+0x2e>
    a3d0:	0f b6 c0             	movzbl %al,%eax
    a3d3:	c3                   	retq   
    a3d4:	e9 67 a3 ff ff       	jmpq   4740 <PyObject_IsTrue@plt>

000000000000a3d9 <__Pyx_CyFunction_traverse>:
    a3d9:	f3 0f 1e fa          	endbr64 
    a3dd:	41 56                	push   %r14
    a3df:	41 55                	push   %r13
    a3e1:	41 54                	push   %r12
    a3e3:	49 89 d4             	mov    %rdx,%r12
    a3e6:	55                   	push   %rbp
    a3e7:	48 89 f5             	mov    %rsi,%rbp
    a3ea:	53                   	push   %rbx
    a3eb:	48 89 fb             	mov    %rdi,%rbx
    a3ee:	48 8b 7f 68          	mov    0x68(%rdi),%rdi
    a3f2:	48 85 ff             	test   %rdi,%rdi
    a3f5:	75 0b                	jne    a402 <__Pyx_CyFunction_traverse+0x29>
    a3f7:	48 8b 7b 20          	mov    0x20(%rbx),%rdi
    a3fb:	48 85 ff             	test   %rdi,%rdi
    a3fe:	75 10                	jne    a410 <__Pyx_CyFunction_traverse+0x37>
    a400:	eb 1b                	jmp    a41d <__Pyx_CyFunction_traverse+0x44>
    a402:	48 89 d6             	mov    %rdx,%rsi
    a405:	ff d5                	callq  *%rbp
    a407:	85 c0                	test   %eax,%eax
    a409:	74 ec                	je     a3f7 <__Pyx_CyFunction_traverse+0x1e>
    a40b:	e9 f5 00 00 00       	jmpq   a505 <__Pyx_CyFunction_traverse+0x12c>
    a410:	4c 89 e6             	mov    %r12,%rsi
    a413:	ff d5                	callq  *%rbp
    a415:	85 c0                	test   %eax,%eax
    a417:	0f 85 e8 00 00 00    	jne    a505 <__Pyx_CyFunction_traverse+0x12c>
    a41d:	48 8b 7b 38          	mov    0x38(%rbx),%rdi
    a421:	48 85 ff             	test   %rdi,%rdi
    a424:	74 0d                	je     a433 <__Pyx_CyFunction_traverse+0x5a>
    a426:	4c 89 e6             	mov    %r12,%rsi
    a429:	ff d5                	callq  *%rbp
    a42b:	85 c0                	test   %eax,%eax
    a42d:	0f 85 d2 00 00 00    	jne    a505 <__Pyx_CyFunction_traverse+0x12c>
    a433:	48 8b 7b 40          	mov    0x40(%rbx),%rdi
    a437:	48 85 ff             	test   %rdi,%rdi
    a43a:	74 0d                	je     a449 <__Pyx_CyFunction_traverse+0x70>
    a43c:	4c 89 e6             	mov    %r12,%rsi
    a43f:	ff d5                	callq  *%rbp
    a441:	85 c0                	test   %eax,%eax
    a443:	0f 85 bc 00 00 00    	jne    a505 <__Pyx_CyFunction_traverse+0x12c>
    a449:	48 8b 7b 48          	mov    0x48(%rbx),%rdi
    a44d:	48 85 ff             	test   %rdi,%rdi
    a450:	74 0d                	je     a45f <__Pyx_CyFunction_traverse+0x86>
    a452:	4c 89 e6             	mov    %r12,%rsi
    a455:	ff d5                	callq  *%rbp
    a457:	85 c0                	test   %eax,%eax
    a459:	0f 85 a6 00 00 00    	jne    a505 <__Pyx_CyFunction_traverse+0x12c>
    a45f:	48 8b 7b 50          	mov    0x50(%rbx),%rdi
    a463:	48 85 ff             	test   %rdi,%rdi
    a466:	74 0d                	je     a475 <__Pyx_CyFunction_traverse+0x9c>
    a468:	4c 89 e6             	mov    %r12,%rsi
    a46b:	ff d5                	callq  *%rbp
    a46d:	85 c0                	test   %eax,%eax
    a46f:	0f 85 90 00 00 00    	jne    a505 <__Pyx_CyFunction_traverse+0x12c>
    a475:	48 8b 7b 58          	mov    0x58(%rbx),%rdi
    a479:	48 85 ff             	test   %rdi,%rdi
    a47c:	74 09                	je     a487 <__Pyx_CyFunction_traverse+0xae>
    a47e:	4c 89 e6             	mov    %r12,%rsi
    a481:	ff d5                	callq  *%rbp
    a483:	85 c0                	test   %eax,%eax
    a485:	75 7e                	jne    a505 <__Pyx_CyFunction_traverse+0x12c>
    a487:	48 8b 7b 60          	mov    0x60(%rbx),%rdi
    a48b:	48 85 ff             	test   %rdi,%rdi
    a48e:	74 09                	je     a499 <__Pyx_CyFunction_traverse+0xc0>
    a490:	4c 89 e6             	mov    %r12,%rsi
    a493:	ff d5                	callq  *%rbp
    a495:	85 c0                	test   %eax,%eax
    a497:	75 6c                	jne    a505 <__Pyx_CyFunction_traverse+0x12c>
    a499:	48 8b 7b 70          	mov    0x70(%rbx),%rdi
    a49d:	48 85 ff             	test   %rdi,%rdi
    a4a0:	74 09                	je     a4ab <__Pyx_CyFunction_traverse+0xd2>
    a4a2:	4c 89 e6             	mov    %r12,%rsi
    a4a5:	ff d5                	callq  *%rbp
    a4a7:	85 c0                	test   %eax,%eax
    a4a9:	75 5a                	jne    a505 <__Pyx_CyFunction_traverse+0x12c>
    a4ab:	48 8b bb 98 00 00 00 	mov    0x98(%rbx),%rdi
    a4b2:	48 85 ff             	test   %rdi,%rdi
    a4b5:	74 09                	je     a4c0 <__Pyx_CyFunction_traverse+0xe7>
    a4b7:	4c 89 e6             	mov    %r12,%rsi
    a4ba:	ff d5                	callq  *%rbp
    a4bc:	85 c0                	test   %eax,%eax
    a4be:	75 45                	jne    a505 <__Pyx_CyFunction_traverse+0x12c>
    a4c0:	48 8b bb a0 00 00 00 	mov    0xa0(%rbx),%rdi
    a4c7:	48 85 ff             	test   %rdi,%rdi
    a4ca:	74 09                	je     a4d5 <__Pyx_CyFunction_traverse+0xfc>
    a4cc:	4c 89 e6             	mov    %r12,%rsi
    a4cf:	ff d5                	callq  *%rbp
    a4d1:	85 c0                	test   %eax,%eax
    a4d3:	75 30                	jne    a505 <__Pyx_CyFunction_traverse+0x12c>
    a4d5:	4c 8b 73 78          	mov    0x78(%rbx),%r14
    a4d9:	45 31 ed             	xor    %r13d,%r13d
    a4dc:	4d 85 f6             	test   %r14,%r14
    a4df:	75 0e                	jne    a4ef <__Pyx_CyFunction_traverse+0x116>
    a4e1:	eb 15                	jmp    a4f8 <__Pyx_CyFunction_traverse+0x11f>
    a4e3:	4b 8b 3c ee          	mov    (%r14,%r13,8),%rdi
    a4e7:	48 85 ff             	test   %rdi,%rdi
    a4ea:	75 10                	jne    a4fc <__Pyx_CyFunction_traverse+0x123>
    a4ec:	49 ff c5             	inc    %r13
    a4ef:	44 39 ab 80 00 00 00 	cmp    %r13d,0x80(%rbx)
    a4f6:	7f eb                	jg     a4e3 <__Pyx_CyFunction_traverse+0x10a>
    a4f8:	31 c0                	xor    %eax,%eax
    a4fa:	eb 09                	jmp    a505 <__Pyx_CyFunction_traverse+0x12c>
    a4fc:	4c 89 e6             	mov    %r12,%rsi
    a4ff:	ff d5                	callq  *%rbp
    a501:	85 c0                	test   %eax,%eax
    a503:	74 e7                	je     a4ec <__Pyx_CyFunction_traverse+0x113>
    a505:	5b                   	pop    %rbx
    a506:	5d                   	pop    %rbp
    a507:	41 5c                	pop    %r12
    a509:	41 5d                	pop    %r13
    a50b:	41 5e                	pop    %r14
    a50d:	c3                   	retq   

000000000000a50e <__Pyx_IsSubtype>:
    a50e:	48 39 f7             	cmp    %rsi,%rdi
    a511:	74 75                	je     a588 <__Pyx_IsSubtype+0x7a>
    a513:	48 8b 97 58 01 00 00 	mov    0x158(%rdi),%rdx
    a51a:	48 85 d2             	test   %rdx,%rdx
    a51d:	74 47                	je     a566 <__Pyx_IsSubtype+0x58>
    a51f:	48 8b 42 08          	mov    0x8(%rdx),%rax
    a523:	f6 80 ab 00 00 00 04 	testb  $0x4,0xab(%rax)
    a52a:	75 20                	jne    a54c <__Pyx_IsSubtype+0x3e>
    a52c:	50                   	push   %rax
    a52d:	48 8d 0d 4c 37 00 00 	lea    0x374c(%rip),%rcx        # dc80 <__PRETTY_FUNCTION__.17133>
    a534:	ba fd 1b 00 00       	mov    $0x1bfd,%edx
    a539:	48 8d 35 c4 2a 00 00 	lea    0x2ac4(%rip),%rsi        # d004 <_IO_stdin_used+0x4>
    a540:	48 8d 3d 2f 2c 00 00 	lea    0x2c2f(%rip),%rdi        # d176 <_IO_stdin_used+0x176>
    a547:	e8 a4 a1 ff ff       	callq  46f0 <__assert_fail@plt>
    a54c:	48 8b 4a 10          	mov    0x10(%rdx),%rcx
    a550:	31 c0                	xor    %eax,%eax
    a552:	48 39 c8             	cmp    %rcx,%rax
    a555:	7d 0c                	jge    a563 <__Pyx_IsSubtype+0x55>
    a557:	48 39 74 c2 18       	cmp    %rsi,0x18(%rdx,%rax,8)
    a55c:	74 2a                	je     a588 <__Pyx_IsSubtype+0x7a>
    a55e:	48 ff c0             	inc    %rax
    a561:	eb ef                	jmp    a552 <__Pyx_IsSubtype+0x44>
    a563:	31 c0                	xor    %eax,%eax
    a565:	c3                   	retq   
    a566:	48 8b bf 00 01 00 00 	mov    0x100(%rdi),%rdi
    a56d:	48 39 fe             	cmp    %rdi,%rsi
    a570:	74 16                	je     a588 <__Pyx_IsSubtype+0x7a>
    a572:	48 85 ff             	test   %rdi,%rdi
    a575:	75 ef                	jne    a566 <__Pyx_IsSubtype+0x58>
    a577:	48 8d 05 e2 83 00 00 	lea    0x83e2(%rip),%rax        # 12960 <PyBaseObject_Type>
    a57e:	48 39 c6             	cmp    %rax,%rsi
    a581:	0f 94 c0             	sete   %al
    a584:	0f b6 c0             	movzbl %al,%eax
    a587:	c3                   	retq   
    a588:	b8 01 00 00 00       	mov    $0x1,%eax
    a58d:	c3                   	retq   

000000000000a58e <__Pyx_PyCFunction_FastCall>:
    a58e:	55                   	push   %rbp
    a58f:	31 ed                	xor    %ebp,%ebp
    a591:	53                   	push   %rbx
    a592:	48 83 ec 28          	sub    $0x28,%rsp
    a596:	48 8b 47 10          	mov    0x10(%rdi),%rax
    a59a:	8b 58 10             	mov    0x10(%rax),%ebx
    a59d:	4c 8b 40 08          	mov    0x8(%rax),%r8
    a5a1:	f6 c3 20             	test   $0x20,%bl
    a5a4:	75 04                	jne    a5aa <__Pyx_PyCFunction_FastCall+0x1c>
    a5a6:	48 8b 6f 18          	mov    0x18(%rdi),%rbp
    a5aa:	48 8d 05 cf 8f 00 00 	lea    0x8fcf(%rip),%rax        # 13580 <PyCFunction_Type>
    a5b1:	48 39 47 08          	cmp    %rax,0x8(%rdi)
    a5b5:	74 1c                	je     a5d3 <__Pyx_PyCFunction_FastCall+0x45>
    a5b7:	48 8d 0d e2 35 00 00 	lea    0x35e2(%rip),%rcx        # dba0 <__PRETTY_FUNCTION__.16204>
    a5be:	ba b2 10 00 00       	mov    $0x10b2,%edx
    a5c3:	48 8d 35 3a 2a 00 00 	lea    0x2a3a(%rip),%rsi        # d004 <_IO_stdin_used+0x4>
    a5ca:	48 8d 3d b8 2b 00 00 	lea    0x2bb8(%rip),%rdi        # d189 <_IO_stdin_used+0x189>
    a5d1:	eb 26                	jmp    a5f9 <__Pyx_PyCFunction_FastCall+0x6b>
    a5d3:	89 d8                	mov    %ebx,%eax
    a5d5:	83 e0 8d             	and    $0xffffff8d,%eax
    a5d8:	3d 80 00 00 00       	cmp    $0x80,%eax
    a5dd:	74 1f                	je     a5fe <__Pyx_PyCFunction_FastCall+0x70>
    a5df:	48 8d 0d ba 35 00 00 	lea    0x35ba(%rip),%rcx        # dba0 <__PRETTY_FUNCTION__.16204>
    a5e6:	ba b3 10 00 00       	mov    $0x10b3,%edx
    a5eb:	48 8d 35 12 2a 00 00 	lea    0x2a12(%rip),%rsi        # d004 <_IO_stdin_used+0x4>
    a5f2:	48 8d 3d a8 2b 00 00 	lea    0x2ba8(%rip),%rdi        # d1a1 <_IO_stdin_used+0x1a1>
    a5f9:	e8 f2 a0 ff ff       	callq  46f0 <__assert_fail@plt>
    a5fe:	48 85 f6             	test   %rsi,%rsi
    a601:	75 1c                	jne    a61f <__Pyx_PyCFunction_FastCall+0x91>
    a603:	48 8d 0d 96 35 00 00 	lea    0x3596(%rip),%rcx        # dba0 <__PRETTY_FUNCTION__.16204>
    a60a:	ba b5 10 00 00       	mov    $0x10b5,%edx
    a60f:	48 8d 35 ee 29 00 00 	lea    0x29ee(%rip),%rsi        # d004 <_IO_stdin_used+0x4>
    a616:	48 8d 3d eb 2b 00 00 	lea    0x2beb(%rip),%rdi        # d208 <_IO_stdin_used+0x208>
    a61d:	eb da                	jmp    a5f9 <__Pyx_PyCFunction_FastCall+0x6b>
    a61f:	48 89 54 24 18       	mov    %rdx,0x18(%rsp)
    a624:	48 89 74 24 10       	mov    %rsi,0x10(%rsp)
    a629:	4c 89 44 24 08       	mov    %r8,0x8(%rsp)
    a62e:	e8 1d a2 ff ff       	callq  4850 <PyErr_Occurred@plt>
    a633:	4c 8b 44 24 08       	mov    0x8(%rsp),%r8
    a638:	48 8b 74 24 10       	mov    0x10(%rsp),%rsi
    a63d:	48 85 c0             	test   %rax,%rax
    a640:	48 8b 54 24 18       	mov    0x18(%rsp),%rdx
    a645:	74 1c                	je     a663 <__Pyx_PyCFunction_FastCall+0xd5>
    a647:	48 8d 0d 52 35 00 00 	lea    0x3552(%rip),%rcx        # dba0 <__PRETTY_FUNCTION__.16204>
    a64e:	ba b9 10 00 00       	mov    $0x10b9,%edx
    a653:	48 8d 35 aa 29 00 00 	lea    0x29aa(%rip),%rsi        # d004 <_IO_stdin_used+0x4>
    a65a:	48 8d 3d c2 2b 00 00 	lea    0x2bc2(%rip),%rdi        # d223 <_IO_stdin_used+0x223>
    a661:	eb 96                	jmp    a5f9 <__Pyx_PyCFunction_FastCall+0x6b>
    a663:	80 e3 02             	and    $0x2,%bl
    a666:	74 0e                	je     a676 <__Pyx_PyCFunction_FastCall+0xe8>
    a668:	48 83 c4 28          	add    $0x28,%rsp
    a66c:	48 89 ef             	mov    %rbp,%rdi
    a66f:	31 c9                	xor    %ecx,%ecx
    a671:	5b                   	pop    %rbx
    a672:	5d                   	pop    %rbp
    a673:	41 ff e0             	jmpq   *%r8
    a676:	48 83 c4 28          	add    $0x28,%rsp
    a67a:	48 89 ef             	mov    %rbp,%rdi
    a67d:	5b                   	pop    %rbx
    a67e:	5d                   	pop    %rbp
    a67f:	41 ff e0             	jmpq   *%r8

000000000000a682 <__Pyx_CyFunction_get_doc>:
    a682:	f3 0f 1e fa          	endbr64 
    a686:	53                   	push   %rbx
    a687:	48 83 7f 50 00       	cmpq   $0x0,0x50(%rdi)
    a68c:	48 89 fb             	mov    %rdi,%rbx
    a68f:	75 2d                	jne    a6be <__Pyx_CyFunction_get_doc+0x3c>
    a691:	48 8b 47 10          	mov    0x10(%rdi),%rax
    a695:	48 8b 78 18          	mov    0x18(%rax),%rdi
    a699:	48 85 ff             	test   %rdi,%rdi
    a69c:	74 10                	je     a6ae <__Pyx_CyFunction_get_doc+0x2c>
    a69e:	e8 5d a0 ff ff       	callq  4700 <PyUnicode_FromString@plt>
    a6a3:	48 89 43 50          	mov    %rax,0x50(%rbx)
    a6a7:	48 85 c0             	test   %rax,%rax
    a6aa:	75 12                	jne    a6be <__Pyx_CyFunction_get_doc+0x3c>
    a6ac:	eb 17                	jmp    a6c5 <__Pyx_CyFunction_get_doc+0x43>
    a6ae:	48 ff 05 8b 8e 00 00 	incq   0x8e8b(%rip)        # 13540 <_Py_NoneStruct>
    a6b5:	48 8d 05 84 8e 00 00 	lea    0x8e84(%rip),%rax        # 13540 <_Py_NoneStruct>
    a6bc:	eb 07                	jmp    a6c5 <__Pyx_CyFunction_get_doc+0x43>
    a6be:	48 8b 43 50          	mov    0x50(%rbx),%rax
    a6c2:	48 ff 00             	incq   (%rax)
    a6c5:	5b                   	pop    %rbx
    a6c6:	c3                   	retq   

000000000000a6c7 <__Pyx_GetBuiltinName>:
    a6c7:	41 55                	push   %r13
    a6c9:	48 89 fe             	mov    %rdi,%rsi
    a6cc:	49 89 fd             	mov    %rdi,%r13
    a6cf:	41 54                	push   %r12
    a6d1:	51                   	push   %rcx
    a6d2:	48 8b 3d bf 99 00 00 	mov    0x99bf(%rip),%rdi        # 14098 <__pyx_b>
    a6d9:	e8 37 fb ff ff       	callq  a215 <__Pyx_PyObject_GetAttrStr>
    a6de:	49 89 c4             	mov    %rax,%r12
    a6e1:	48 85 c0             	test   %rax,%rax
    a6e4:	75 18                	jne    a6fe <__Pyx_GetBuiltinName+0x37>
    a6e6:	48 8b 3d 83 8e 00 00 	mov    0x8e83(%rip),%rdi        # 13570 <PyExc_NameError>
    a6ed:	4c 89 ea             	mov    %r13,%rdx
    a6f0:	48 8d 35 3e 2b 00 00 	lea    0x2b3e(%rip),%rsi        # d235 <_IO_stdin_used+0x235>
    a6f7:	31 c0                	xor    %eax,%eax
    a6f9:	e8 e2 a0 ff ff       	callq  47e0 <PyErr_Format@plt>
    a6fe:	4c 89 e0             	mov    %r12,%rax
    a701:	5a                   	pop    %rdx
    a702:	41 5c                	pop    %r12
    a704:	41 5d                	pop    %r13
    a706:	c3                   	retq   

000000000000a707 <__Pyx__GetModuleGlobalName>:
    a707:	41 55                	push   %r13
    a709:	49 89 f5             	mov    %rsi,%r13
    a70c:	48 89 fe             	mov    %rdi,%rsi
    a70f:	41 54                	push   %r12
    a711:	55                   	push   %rbp
    a712:	48 89 fd             	mov    %rdi,%rbp
    a715:	53                   	push   %rbx
    a716:	48 89 d3             	mov    %rdx,%rbx
    a719:	41 50                	push   %r8
    a71b:	48 8b 57 18          	mov    0x18(%rdi),%rdx
    a71f:	48 8b 3d 7a 99 00 00 	mov    0x997a(%rip),%rdi        # 140a0 <__pyx_d>
    a726:	e8 95 a3 ff ff       	callq  4ac0 <_PyDict_GetItem_KnownHash@plt>
    a72b:	49 89 c4             	mov    %rax,%r12
    a72e:	48 8b 05 6b 99 00 00 	mov    0x996b(%rip),%rax        # 140a0 <__pyx_d>
    a735:	48 8b 40 18          	mov    0x18(%rax),%rax
    a739:	49 89 45 00          	mov    %rax,0x0(%r13)
    a73d:	4c 89 23             	mov    %r12,(%rbx)
    a740:	4d 85 e4             	test   %r12,%r12
    a743:	74 06                	je     a74b <__Pyx__GetModuleGlobalName+0x44>
    a745:	49 ff 04 24          	incq   (%r12)
    a749:	eb 19                	jmp    a764 <__Pyx__GetModuleGlobalName+0x5d>
    a74b:	e8 00 a1 ff ff       	callq  4850 <PyErr_Occurred@plt>
    a750:	48 85 c0             	test   %rax,%rax
    a753:	75 0f                	jne    a764 <__Pyx__GetModuleGlobalName+0x5d>
    a755:	59                   	pop    %rcx
    a756:	48 89 ef             	mov    %rbp,%rdi
    a759:	5b                   	pop    %rbx
    a75a:	5d                   	pop    %rbp
    a75b:	41 5c                	pop    %r12
    a75d:	41 5d                	pop    %r13
    a75f:	e9 63 ff ff ff       	jmpq   a6c7 <__Pyx_GetBuiltinName>
    a764:	5a                   	pop    %rdx
    a765:	4c 89 e0             	mov    %r12,%rax
    a768:	5b                   	pop    %rbx
    a769:	5d                   	pop    %rbp
    a76a:	41 5c                	pop    %r12
    a76c:	41 5d                	pop    %r13
    a76e:	c3                   	retq   

000000000000a76f <_Py_DECREF.isra.0>:
    a76f:	48 ff 0f             	decq   (%rdi)
    a772:	75 05                	jne    a779 <_Py_DECREF.isra.0+0xa>
    a774:	e9 97 a3 ff ff       	jmpq   4b10 <_Py_Dealloc@plt>
    a779:	c3                   	retq   

000000000000a77a <__Pyx_PyFunction_FastCallNoKw>:
    a77a:	41 56                	push   %r14
    a77c:	49 89 fe             	mov    %rdi,%r14
    a77f:	41 55                	push   %r13
    a781:	49 89 f5             	mov    %rsi,%r13
    a784:	41 54                	push   %r12
    a786:	49 89 cc             	mov    %rcx,%r12
    a789:	55                   	push   %rbp
    a78a:	48 89 d5             	mov    %rdx,%rbp
    a78d:	53                   	push   %rbx
    a78e:	e8 2d a4 ff ff       	callq  4bc0 <_PyThreadState_UncheckedGet@plt>
    a793:	48 8d 0d 26 34 00 00 	lea    0x3426(%rip),%rcx        # dbc0 <__PRETTY_FUNCTION__.16216>
    a79a:	ba cb 10 00 00       	mov    $0x10cb,%edx
    a79f:	48 8d 35 5e 28 00 00 	lea    0x285e(%rip),%rsi        # d004 <_IO_stdin_used+0x4>
    a7a6:	48 8d 3d a1 2a 00 00 	lea    0x2aa1(%rip),%rdi        # d24e <_IO_stdin_used+0x24e>
    a7ad:	4d 85 e4             	test   %r12,%r12
    a7b0:	74 22                	je     a7d4 <__Pyx_PyFunction_FastCallNoKw+0x5a>
    a7b2:	48 89 c3             	mov    %rax,%rbx
    a7b5:	48 85 c0             	test   %rax,%rax
    a7b8:	75 1f                	jne    a7d9 <__Pyx_PyFunction_FastCallNoKw+0x5f>
    a7ba:	48 8d 0d ff 33 00 00 	lea    0x33ff(%rip),%rcx        # dbc0 <__PRETTY_FUNCTION__.16216>
    a7c1:	ba d0 10 00 00       	mov    $0x10d0,%edx
    a7c6:	48 8d 35 37 28 00 00 	lea    0x2837(%rip),%rsi        # d004 <_IO_stdin_used+0x4>
    a7cd:	48 8d 3d 8a 2a 00 00 	lea    0x2a8a(%rip),%rdi        # d25e <_IO_stdin_used+0x25e>
    a7d4:	e8 17 9f ff ff       	callq  46f0 <__assert_fail@plt>
    a7d9:	4c 89 e2             	mov    %r12,%rdx
    a7dc:	31 c9                	xor    %ecx,%ecx
    a7de:	4c 89 f6             	mov    %r14,%rsi
    a7e1:	48 89 c7             	mov    %rax,%rdi
    a7e4:	e8 a7 9e ff ff       	callq  4690 <PyFrame_New@plt>
    a7e9:	49 89 c4             	mov    %rax,%r12
    a7ec:	48 85 c0             	test   %rax,%rax
    a7ef:	74 62                	je     a853 <__Pyx_PyFunction_FastCallNoKw+0xd9>
    a7f1:	48 8b 15 80 98 00 00 	mov    0x9880(%rip),%rdx        # 14078 <__pyx_pyframe_localsplus_offset>
    a7f8:	31 c0                	xor    %eax,%eax
    a7fa:	49 8d 0c 14          	lea    (%r12,%rdx,1),%rcx
    a7fe:	48 85 d2             	test   %rdx,%rdx
    a801:	75 1c                	jne    a81f <__Pyx_PyFunction_FastCallNoKw+0xa5>
    a803:	48 8d 0d b6 33 00 00 	lea    0x33b6(%rip),%rcx        # dbc0 <__PRETTY_FUNCTION__.16216>
    a80a:	ba d5 10 00 00       	mov    $0x10d5,%edx
    a80f:	48 8d 35 ee 27 00 00 	lea    0x27ee(%rip),%rsi        # d004 <_IO_stdin_used+0x4>
    a816:	48 8d 3d 50 2a 00 00 	lea    0x2a50(%rip),%rdi        # d26d <_IO_stdin_used+0x26d>
    a81d:	eb b5                	jmp    a7d4 <__Pyx_PyFunction_FastCallNoKw+0x5a>
    a81f:	48 39 e8             	cmp    %rbp,%rax
    a822:	7d 11                	jge    a835 <__Pyx_PyFunction_FastCallNoKw+0xbb>
    a824:	49 8b 54 c5 00       	mov    0x0(%r13,%rax,8),%rdx
    a829:	48 ff 02             	incq   (%rdx)
    a82c:	48 89 14 c1          	mov    %rdx,(%rcx,%rax,8)
    a830:	48 ff c0             	inc    %rax
    a833:	eb ea                	jmp    a81f <__Pyx_PyFunction_FastCallNoKw+0xa5>
    a835:	4c 89 e7             	mov    %r12,%rdi
    a838:	31 f6                	xor    %esi,%esi
    a83a:	e8 91 a3 ff ff       	callq  4bd0 <PyEval_EvalFrameEx@plt>
    a83f:	ff 43 20             	incl   0x20(%rbx)
    a842:	4c 89 e7             	mov    %r12,%rdi
    a845:	48 89 c5             	mov    %rax,%rbp
    a848:	49 89 ec             	mov    %rbp,%r12
    a84b:	e8 1f ff ff ff       	callq  a76f <_Py_DECREF.isra.0>
    a850:	ff 4b 20             	decl   0x20(%rbx)
    a853:	5b                   	pop    %rbx
    a854:	4c 89 e0             	mov    %r12,%rax
    a857:	5d                   	pop    %rbp
    a858:	41 5c                	pop    %r12
    a85a:	41 5d                	pop    %r13
    a85c:	41 5e                	pop    %r14
    a85e:	c3                   	retq   

000000000000a85f <_Py_XDECREF>:
    a85f:	48 85 ff             	test   %rdi,%rdi
    a862:	74 05                	je     a869 <_Py_XDECREF+0xa>
    a864:	e9 06 ff ff ff       	jmpq   a76f <_Py_DECREF.isra.0>
    a869:	c3                   	retq   

000000000000a86a <__Pyx_CyFunction_set_doc>:
    a86a:	f3 0f 1e fa          	endbr64 
    a86e:	51                   	push   %rcx
    a86f:	4c 8b 47 50          	mov    0x50(%rdi),%r8
    a873:	48 85 f6             	test   %rsi,%rsi
    a876:	75 07                	jne    a87f <__Pyx_CyFunction_set_doc+0x15>
    a878:	48 8d 35 c1 8c 00 00 	lea    0x8cc1(%rip),%rsi        # 13540 <_Py_NoneStruct>
    a87f:	48 ff 06             	incq   (%rsi)
    a882:	48 89 77 50          	mov    %rsi,0x50(%rdi)
    a886:	4c 89 c7             	mov    %r8,%rdi
    a889:	e8 d1 ff ff ff       	callq  a85f <_Py_XDECREF>
    a88e:	31 c0                	xor    %eax,%eax
    a890:	5a                   	pop    %rdx
    a891:	c3                   	retq   

000000000000a892 <__Pyx_CyFunction_clear>:
    a892:	f3 0f 1e fa          	endbr64 
    a896:	41 54                	push   %r12
    a898:	55                   	push   %rbp
    a899:	53                   	push   %rbx
    a89a:	48 89 fb             	mov    %rdi,%rbx
    a89d:	48 8b 7f 68          	mov    0x68(%rdi),%rdi
    a8a1:	48 85 ff             	test   %rdi,%rdi
    a8a4:	74 0d                	je     a8b3 <__Pyx_CyFunction_clear+0x21>
    a8a6:	48 c7 43 68 00 00 00 	movq   $0x0,0x68(%rbx)
    a8ad:	00 
    a8ae:	e8 bc fe ff ff       	callq  a76f <_Py_DECREF.isra.0>
    a8b3:	48 8b 7b 20          	mov    0x20(%rbx),%rdi
    a8b7:	48 85 ff             	test   %rdi,%rdi
    a8ba:	74 0d                	je     a8c9 <__Pyx_CyFunction_clear+0x37>
    a8bc:	48 c7 43 20 00 00 00 	movq   $0x0,0x20(%rbx)
    a8c3:	00 
    a8c4:	e8 a6 fe ff ff       	callq  a76f <_Py_DECREF.isra.0>
    a8c9:	48 8b 7b 38          	mov    0x38(%rbx),%rdi
    a8cd:	48 85 ff             	test   %rdi,%rdi
    a8d0:	74 0d                	je     a8df <__Pyx_CyFunction_clear+0x4d>
    a8d2:	48 c7 43 38 00 00 00 	movq   $0x0,0x38(%rbx)
    a8d9:	00 
    a8da:	e8 90 fe ff ff       	callq  a76f <_Py_DECREF.isra.0>
    a8df:	48 8b 7b 40          	mov    0x40(%rbx),%rdi
    a8e3:	48 85 ff             	test   %rdi,%rdi
    a8e6:	74 0d                	je     a8f5 <__Pyx_CyFunction_clear+0x63>
    a8e8:	48 c7 43 40 00 00 00 	movq   $0x0,0x40(%rbx)
    a8ef:	00 
    a8f0:	e8 7a fe ff ff       	callq  a76f <_Py_DECREF.isra.0>
    a8f5:	48 8b 7b 48          	mov    0x48(%rbx),%rdi
    a8f9:	48 85 ff             	test   %rdi,%rdi
    a8fc:	74 0d                	je     a90b <__Pyx_CyFunction_clear+0x79>
    a8fe:	48 c7 43 48 00 00 00 	movq   $0x0,0x48(%rbx)
    a905:	00 
    a906:	e8 64 fe ff ff       	callq  a76f <_Py_DECREF.isra.0>
    a90b:	48 8b 7b 50          	mov    0x50(%rbx),%rdi
    a90f:	48 85 ff             	test   %rdi,%rdi
    a912:	74 0d                	je     a921 <__Pyx_CyFunction_clear+0x8f>
    a914:	48 c7 43 50 00 00 00 	movq   $0x0,0x50(%rbx)
    a91b:	00 
    a91c:	e8 4e fe ff ff       	callq  a76f <_Py_DECREF.isra.0>
    a921:	48 8b 7b 58          	mov    0x58(%rbx),%rdi
    a925:	48 85 ff             	test   %rdi,%rdi
    a928:	74 0d                	je     a937 <__Pyx_CyFunction_clear+0xa5>
    a92a:	48 c7 43 58 00 00 00 	movq   $0x0,0x58(%rbx)
    a931:	00 
    a932:	e8 38 fe ff ff       	callq  a76f <_Py_DECREF.isra.0>
    a937:	48 8b 7b 60          	mov    0x60(%rbx),%rdi
    a93b:	48 85 ff             	test   %rdi,%rdi
    a93e:	74 0d                	je     a94d <__Pyx_CyFunction_clear+0xbb>
    a940:	48 c7 43 60 00 00 00 	movq   $0x0,0x60(%rbx)
    a947:	00 
    a948:	e8 22 fe ff ff       	callq  a76f <_Py_DECREF.isra.0>
    a94d:	48 8b 7b 70          	mov    0x70(%rbx),%rdi
    a951:	48 85 ff             	test   %rdi,%rdi
    a954:	74 0d                	je     a963 <__Pyx_CyFunction_clear+0xd1>
    a956:	48 c7 43 70 00 00 00 	movq   $0x0,0x70(%rbx)
    a95d:	00 
    a95e:	e8 0c fe ff ff       	callq  a76f <_Py_DECREF.isra.0>
    a963:	48 8b bb 98 00 00 00 	mov    0x98(%rbx),%rdi
    a96a:	48 85 ff             	test   %rdi,%rdi
    a96d:	74 10                	je     a97f <__Pyx_CyFunction_clear+0xed>
    a96f:	48 c7 83 98 00 00 00 	movq   $0x0,0x98(%rbx)
    a976:	00 00 00 00 
    a97a:	e8 f0 fd ff ff       	callq  a76f <_Py_DECREF.isra.0>
    a97f:	48 8b bb a0 00 00 00 	mov    0xa0(%rbx),%rdi
    a986:	48 85 ff             	test   %rdi,%rdi
    a989:	74 10                	je     a99b <__Pyx_CyFunction_clear+0x109>
    a98b:	48 c7 83 a0 00 00 00 	movq   $0x0,0xa0(%rbx)
    a992:	00 00 00 00 
    a996:	e8 d4 fd ff ff       	callq  a76f <_Py_DECREF.isra.0>
    a99b:	48 8b bb b0 00 00 00 	mov    0xb0(%rbx),%rdi
    a9a2:	48 85 ff             	test   %rdi,%rdi
    a9a5:	74 10                	je     a9b7 <__Pyx_CyFunction_clear+0x125>
    a9a7:	48 c7 83 b0 00 00 00 	movq   $0x0,0xb0(%rbx)
    a9ae:	00 00 00 00 
    a9b2:	e8 b8 fd ff ff       	callq  a76f <_Py_DECREF.isra.0>
    a9b7:	4c 8b 63 78          	mov    0x78(%rbx),%r12
    a9bb:	31 ed                	xor    %ebp,%ebp
    a9bd:	4d 85 e4             	test   %r12,%r12
    a9c0:	74 27                	je     a9e9 <__Pyx_CyFunction_clear+0x157>
    a9c2:	39 ab 80 00 00 00    	cmp    %ebp,0x80(%rbx)
    a9c8:	7e 0e                	jle    a9d8 <__Pyx_CyFunction_clear+0x146>
    a9ca:	49 8b 3c ec          	mov    (%r12,%rbp,8),%rdi
    a9ce:	48 ff c5             	inc    %rbp
    a9d1:	e8 89 fe ff ff       	callq  a85f <_Py_XDECREF>
    a9d6:	eb ea                	jmp    a9c2 <__Pyx_CyFunction_clear+0x130>
    a9d8:	48 8b 7b 78          	mov    0x78(%rbx),%rdi
    a9dc:	e8 3f a1 ff ff       	callq  4b20 <PyObject_Free@plt>
    a9e1:	48 c7 43 78 00 00 00 	movq   $0x0,0x78(%rbx)
    a9e8:	00 
    a9e9:	5b                   	pop    %rbx
    a9ea:	31 c0                	xor    %eax,%eax
    a9ec:	5d                   	pop    %rbp
    a9ed:	41 5c                	pop    %r12
    a9ef:	c3                   	retq   

000000000000a9f0 <__Pyx_CyFunction_dealloc>:
    a9f0:	f3 0f 1e fa          	endbr64 
    a9f4:	55                   	push   %rbp
    a9f5:	48 89 fd             	mov    %rdi,%rbp
    a9f8:	e8 23 9d ff ff       	callq  4720 <PyObject_GC_UnTrack@plt>
    a9fd:	48 83 7d 28 00       	cmpq   $0x0,0x28(%rbp)
    aa02:	74 08                	je     aa0c <__Pyx_CyFunction_dealloc+0x1c>
    aa04:	48 89 ef             	mov    %rbp,%rdi
    aa07:	e8 f4 9f ff ff       	callq  4a00 <PyObject_ClearWeakRefs@plt>
    aa0c:	48 89 ef             	mov    %rbp,%rdi
    aa0f:	e8 7e fe ff ff       	callq  a892 <__Pyx_CyFunction_clear>
    aa14:	48 89 ef             	mov    %rbp,%rdi
    aa17:	5d                   	pop    %rbp
    aa18:	e9 f3 9c ff ff       	jmpq   4710 <PyObject_GC_Del@plt>

000000000000aa1d <__Pyx_CyFunction_init_defaults>:
    aa1d:	53                   	push   %rbx
    aa1e:	48 89 fb             	mov    %rdi,%rbx
    aa21:	ff 97 a8 00 00 00    	callq  *0xa8(%rdi)
    aa27:	48 85 c0             	test   %rax,%rax
    aa2a:	74 6b                	je     aa97 <__Pyx_CyFunction_init_defaults+0x7a>
    aa2c:	48 8b 50 08          	mov    0x8(%rax),%rdx
    aa30:	48 89 c7             	mov    %rax,%rdi
    aa33:	f6 82 ab 00 00 00 04 	testb  $0x4,0xab(%rdx)
    aa3a:	75 0e                	jne    aa4a <__Pyx_CyFunction_init_defaults+0x2d>
    aa3c:	48 8d 0d 1d 32 00 00 	lea    0x321d(%rip),%rcx        # dc60 <__PRETTY_FUNCTION__.16541>
    aa43:	ba e3 14 00 00       	mov    $0x14e3,%edx
    aa48:	eb 23                	jmp    aa6d <__Pyx_CyFunction_init_defaults+0x50>
    aa4a:	48 8b 40 18          	mov    0x18(%rax),%rax
    aa4e:	48 89 83 98 00 00 00 	mov    %rax,0x98(%rbx)
    aa55:	48 ff 00             	incq   (%rax)
    aa58:	f6 82 ab 00 00 00 04 	testb  $0x4,0xab(%rdx)
    aa5f:	75 1f                	jne    aa80 <__Pyx_CyFunction_init_defaults+0x63>
    aa61:	48 8d 0d f8 31 00 00 	lea    0x31f8(%rip),%rcx        # dc60 <__PRETTY_FUNCTION__.16541>
    aa68:	ba e5 14 00 00       	mov    $0x14e5,%edx
    aa6d:	48 8d 35 90 25 00 00 	lea    0x2590(%rip),%rsi        # d004 <_IO_stdin_used+0x4>
    aa74:	48 8d 3d ca 28 00 00 	lea    0x28ca(%rip),%rdi        # d345 <_IO_stdin_used+0x345>
    aa7b:	e8 70 9c ff ff       	callq  46f0 <__assert_fail@plt>
    aa80:	48 8b 47 20          	mov    0x20(%rdi),%rax
    aa84:	48 89 83 a0 00 00 00 	mov    %rax,0xa0(%rbx)
    aa8b:	48 ff 00             	incq   (%rax)
    aa8e:	e8 dc fc ff ff       	callq  a76f <_Py_DECREF.isra.0>
    aa93:	31 c0                	xor    %eax,%eax
    aa95:	eb 03                	jmp    aa9a <__Pyx_CyFunction_init_defaults+0x7d>
    aa97:	83 c8 ff             	or     $0xffffffff,%eax
    aa9a:	5b                   	pop    %rbx
    aa9b:	c3                   	retq   

000000000000aa9c <__Pyx_CyFunction_get_kwdefaults>:
    aa9c:	f3 0f 1e fa          	endbr64 
    aaa0:	41 54                	push   %r12
    aaa2:	53                   	push   %rbx
    aaa3:	51                   	push   %rcx
    aaa4:	4c 8b a7 a0 00 00 00 	mov    0xa0(%rdi),%r12
    aaab:	4d 85 e4             	test   %r12,%r12
    aaae:	75 26                	jne    aad6 <__Pyx_CyFunction_get_kwdefaults+0x3a>
    aab0:	48 83 bf a8 00 00 00 	cmpq   $0x0,0xa8(%rdi)
    aab7:	00 
    aab8:	48 89 fb             	mov    %rdi,%rbx
    aabb:	74 12                	je     aacf <__Pyx_CyFunction_get_kwdefaults+0x33>
    aabd:	e8 5b ff ff ff       	callq  aa1d <__Pyx_CyFunction_init_defaults>
    aac2:	85 c0                	test   %eax,%eax
    aac4:	78 14                	js     aada <__Pyx_CyFunction_get_kwdefaults+0x3e>
    aac6:	4c 8b a3 a0 00 00 00 	mov    0xa0(%rbx),%r12
    aacd:	eb 07                	jmp    aad6 <__Pyx_CyFunction_get_kwdefaults+0x3a>
    aacf:	4c 8d 25 6a 8a 00 00 	lea    0x8a6a(%rip),%r12        # 13540 <_Py_NoneStruct>
    aad6:	49 ff 04 24          	incq   (%r12)
    aada:	4c 89 e0             	mov    %r12,%rax
    aadd:	5a                   	pop    %rdx
    aade:	5b                   	pop    %rbx
    aadf:	41 5c                	pop    %r12
    aae1:	c3                   	retq   

000000000000aae2 <__Pyx_CyFunction_get_defaults>:
    aae2:	f3 0f 1e fa          	endbr64 
    aae6:	41 54                	push   %r12
    aae8:	53                   	push   %rbx
    aae9:	51                   	push   %rcx
    aaea:	4c 8b a7 98 00 00 00 	mov    0x98(%rdi),%r12
    aaf1:	4d 85 e4             	test   %r12,%r12
    aaf4:	75 26                	jne    ab1c <__Pyx_CyFunction_get_defaults+0x3a>
    aaf6:	48 83 bf a8 00 00 00 	cmpq   $0x0,0xa8(%rdi)
    aafd:	00 
    aafe:	48 89 fb             	mov    %rdi,%rbx
    ab01:	74 12                	je     ab15 <__Pyx_CyFunction_get_defaults+0x33>
    ab03:	e8 15 ff ff ff       	callq  aa1d <__Pyx_CyFunction_init_defaults>
    ab08:	85 c0                	test   %eax,%eax
    ab0a:	78 14                	js     ab20 <__Pyx_CyFunction_get_defaults+0x3e>
    ab0c:	4c 8b a3 98 00 00 00 	mov    0x98(%rbx),%r12
    ab13:	eb 07                	jmp    ab1c <__Pyx_CyFunction_get_defaults+0x3a>
    ab15:	4c 8d 25 24 8a 00 00 	lea    0x8a24(%rip),%r12        # 13540 <_Py_NoneStruct>
    ab1c:	49 ff 04 24          	incq   (%r12)
    ab20:	4c 89 e0             	mov    %r12,%rax
    ab23:	5a                   	pop    %rdx
    ab24:	5b                   	pop    %rbx
    ab25:	41 5c                	pop    %r12
    ab27:	c3                   	retq   

000000000000ab28 <__Pyx_CyFunction_CallAsMethod>:
    ab28:	f3 0f 1e fa          	endbr64 
    ab2c:	41 56                	push   %r14
    ab2e:	49 89 d6             	mov    %rdx,%r14
    ab31:	41 55                	push   %r13
    ab33:	49 89 fd             	mov    %rdi,%r13
    ab36:	41 54                	push   %r12
    ab38:	49 89 f4             	mov    %rsi,%r12
    ab3b:	55                   	push   %rbp
    ab3c:	41 51                	push   %r9
    ab3e:	8b 87 90 00 00 00    	mov    0x90(%rdi),%eax
    ab44:	83 e0 05             	and    $0x5,%eax
    ab47:	83 f8 04             	cmp    $0x4,%eax
    ab4a:	0f 85 81 00 00 00    	jne    abd1 <__Pyx_CyFunction_CallAsMethod+0xa9>
    ab50:	48 8b 46 08          	mov    0x8(%rsi),%rax
    ab54:	f6 80 ab 00 00 00 04 	testb  $0x4,0xab(%rax)
    ab5b:	75 1f                	jne    ab7c <__Pyx_CyFunction_CallAsMethod+0x54>
    ab5d:	48 8d 0d dc 30 00 00 	lea    0x30dc(%rip),%rcx        # dc40 <__PRETTY_FUNCTION__.16681>
    ab64:	ba 2b 16 00 00       	mov    $0x162b,%edx
    ab69:	48 8d 35 94 24 00 00 	lea    0x2494(%rip),%rsi        # d004 <_IO_stdin_used+0x4>
    ab70:	48 8d 3d e1 27 00 00 	lea    0x27e1(%rip),%rdi        # d358 <_IO_stdin_used+0x358>
    ab77:	e8 74 9b ff ff       	callq  46f0 <__assert_fail@plt>
    ab7c:	48 8b 56 10          	mov    0x10(%rsi),%rdx
    ab80:	4c 89 e7             	mov    %r12,%rdi
    ab83:	be 01 00 00 00       	mov    $0x1,%esi
    ab88:	e8 d3 9c ff ff       	callq  4860 <PyTuple_GetSlice@plt>
    ab8d:	48 89 c5             	mov    %rax,%rbp
    ab90:	48 85 c0             	test   %rax,%rax
    ab93:	74 54                	je     abe9 <__Pyx_CyFunction_CallAsMethod+0xc1>
    ab95:	31 f6                	xor    %esi,%esi
    ab97:	4c 89 e7             	mov    %r12,%rdi
    ab9a:	e8 d1 9f ff ff       	callq  4b70 <PyTuple_GetItem@plt>
    ab9f:	48 89 c6             	mov    %rax,%rsi
    aba2:	48 85 c0             	test   %rax,%rax
    aba5:	75 0c                	jne    abb3 <__Pyx_CyFunction_CallAsMethod+0x8b>
    aba7:	48 89 ef             	mov    %rbp,%rdi
    abaa:	31 ed                	xor    %ebp,%ebp
    abac:	e8 be fb ff ff       	callq  a76f <_Py_DECREF.isra.0>
    abb1:	eb 36                	jmp    abe9 <__Pyx_CyFunction_CallAsMethod+0xc1>
    abb3:	48 89 ea             	mov    %rbp,%rdx
    abb6:	4c 89 f1             	mov    %r14,%rcx
    abb9:	4c 89 ef             	mov    %r13,%rdi
    abbc:	e8 85 f4 ff ff       	callq  a046 <__Pyx_CyFunction_CallMethod>
    abc1:	48 89 ef             	mov    %rbp,%rdi
    abc4:	49 89 c4             	mov    %rax,%r12
    abc7:	e8 a3 fb ff ff       	callq  a76f <_Py_DECREF.isra.0>
    abcc:	4c 89 e5             	mov    %r12,%rbp
    abcf:	eb 18                	jmp    abe9 <__Pyx_CyFunction_CallAsMethod+0xc1>
    abd1:	48 8b 77 18          	mov    0x18(%rdi),%rsi
    abd5:	48 89 d1             	mov    %rdx,%rcx
    abd8:	41 58                	pop    %r8
    abda:	4c 89 e2             	mov    %r12,%rdx
    abdd:	5d                   	pop    %rbp
    abde:	41 5c                	pop    %r12
    abe0:	41 5d                	pop    %r13
    abe2:	41 5e                	pop    %r14
    abe4:	e9 5d f4 ff ff       	jmpq   a046 <__Pyx_CyFunction_CallMethod>
    abe9:	5a                   	pop    %rdx
    abea:	48 89 e8             	mov    %rbp,%rax
    abed:	5d                   	pop    %rbp
    abee:	41 5c                	pop    %r12
    abf0:	41 5d                	pop    %r13
    abf2:	41 5e                	pop    %r14
    abf4:	c3                   	retq   

000000000000abf5 <__Pyx_CyFunction_set_kwdefaults>:
    abf5:	f3 0f 1e fa          	endbr64 
    abf9:	51                   	push   %rcx
    abfa:	48 85 f6             	test   %rsi,%rsi
    abfd:	74 31                	je     ac30 <__Pyx_CyFunction_set_kwdefaults+0x3b>
    abff:	48 8d 05 3a 89 00 00 	lea    0x893a(%rip),%rax        # 13540 <_Py_NoneStruct>
    ac06:	48 39 c6             	cmp    %rax,%rsi
    ac09:	74 25                	je     ac30 <__Pyx_CyFunction_set_kwdefaults+0x3b>
    ac0b:	48 8b 46 08          	mov    0x8(%rsi),%rax
    ac0f:	f6 80 ab 00 00 00 20 	testb  $0x20,0xab(%rax)
    ac16:	75 1f                	jne    ac37 <__Pyx_CyFunction_set_kwdefaults+0x42>
    ac18:	48 8b 3d c1 79 00 00 	mov    0x79c1(%rip),%rdi        # 125e0 <PyExc_TypeError>
    ac1f:	48 8d 35 46 27 00 00 	lea    0x2746(%rip),%rsi        # d36c <_IO_stdin_used+0x36c>
    ac26:	e8 65 9f ff ff       	callq  4b90 <PyErr_SetString@plt>
    ac2b:	83 c8 ff             	or     $0xffffffff,%eax
    ac2e:	eb 22                	jmp    ac52 <__Pyx_CyFunction_set_kwdefaults+0x5d>
    ac30:	48 8d 35 09 89 00 00 	lea    0x8909(%rip),%rsi        # 13540 <_Py_NoneStruct>
    ac37:	48 ff 06             	incq   (%rsi)
    ac3a:	4c 8b 87 a0 00 00 00 	mov    0xa0(%rdi),%r8
    ac41:	48 89 b7 a0 00 00 00 	mov    %rsi,0xa0(%rdi)
    ac48:	4c 89 c7             	mov    %r8,%rdi
    ac4b:	e8 0f fc ff ff       	callq  a85f <_Py_XDECREF>
    ac50:	31 c0                	xor    %eax,%eax
    ac52:	5a                   	pop    %rdx
    ac53:	c3                   	retq   

000000000000ac54 <__Pyx_CyFunction_set_defaults>:
    ac54:	f3 0f 1e fa          	endbr64 
    ac58:	51                   	push   %rcx
    ac59:	48 85 f6             	test   %rsi,%rsi
    ac5c:	74 31                	je     ac8f <__Pyx_CyFunction_set_defaults+0x3b>
    ac5e:	48 8d 05 db 88 00 00 	lea    0x88db(%rip),%rax        # 13540 <_Py_NoneStruct>
    ac65:	48 39 c6             	cmp    %rax,%rsi
    ac68:	74 25                	je     ac8f <__Pyx_CyFunction_set_defaults+0x3b>
    ac6a:	48 8b 46 08          	mov    0x8(%rsi),%rax
    ac6e:	f6 80 ab 00 00 00 04 	testb  $0x4,0xab(%rax)
    ac75:	75 1f                	jne    ac96 <__Pyx_CyFunction_set_defaults+0x42>
    ac77:	48 8b 3d 62 79 00 00 	mov    0x7962(%rip),%rdi        # 125e0 <PyExc_TypeError>
    ac7e:	48 8d 35 13 27 00 00 	lea    0x2713(%rip),%rsi        # d398 <_IO_stdin_used+0x398>
    ac85:	e8 06 9f ff ff       	callq  4b90 <PyErr_SetString@plt>
    ac8a:	83 c8 ff             	or     $0xffffffff,%eax
    ac8d:	eb 22                	jmp    acb1 <__Pyx_CyFunction_set_defaults+0x5d>
    ac8f:	48 8d 35 aa 88 00 00 	lea    0x88aa(%rip),%rsi        # 13540 <_Py_NoneStruct>
    ac96:	48 ff 06             	incq   (%rsi)
    ac99:	4c 8b 87 98 00 00 00 	mov    0x98(%rdi),%r8
    aca0:	48 89 b7 98 00 00 00 	mov    %rsi,0x98(%rdi)
    aca7:	4c 89 c7             	mov    %r8,%rdi
    acaa:	e8 b0 fb ff ff       	callq  a85f <_Py_XDECREF>
    acaf:	31 c0                	xor    %eax,%eax
    acb1:	5a                   	pop    %rdx
    acb2:	c3                   	retq   

000000000000acb3 <__Pyx_CyFunction_set_dict>:
    acb3:	f3 0f 1e fa          	endbr64 
    acb7:	51                   	push   %rcx
    acb8:	48 85 f6             	test   %rsi,%rsi
    acbb:	75 09                	jne    acc6 <__Pyx_CyFunction_set_dict+0x13>
    acbd:	48 8d 35 ff 26 00 00 	lea    0x26ff(%rip),%rsi        # d3c3 <_IO_stdin_used+0x3c3>
    acc4:	eb 14                	jmp    acda <__Pyx_CyFunction_set_dict+0x27>
    acc6:	48 8b 46 08          	mov    0x8(%rsi),%rax
    acca:	f6 80 ab 00 00 00 20 	testb  $0x20,0xab(%rax)
    acd1:	75 18                	jne    aceb <__Pyx_CyFunction_set_dict+0x38>
    acd3:	48 8d 35 12 27 00 00 	lea    0x2712(%rip),%rsi        # d3ec <_IO_stdin_used+0x3ec>
    acda:	48 8b 3d ff 78 00 00 	mov    0x78ff(%rip),%rdi        # 125e0 <PyExc_TypeError>
    ace1:	e8 aa 9e ff ff       	callq  4b90 <PyErr_SetString@plt>
    ace6:	83 c8 ff             	or     $0xffffffff,%eax
    ace9:	eb 15                	jmp    ad00 <__Pyx_CyFunction_set_dict+0x4d>
    aceb:	4c 8b 47 38          	mov    0x38(%rdi),%r8
    acef:	48 ff 06             	incq   (%rsi)
    acf2:	48 89 77 38          	mov    %rsi,0x38(%rdi)
    acf6:	4c 89 c7             	mov    %r8,%rdi
    acf9:	e8 61 fb ff ff       	callq  a85f <_Py_XDECREF>
    acfe:	31 c0                	xor    %eax,%eax
    ad00:	5a                   	pop    %rdx
    ad01:	c3                   	retq   

000000000000ad02 <__Pyx_CyFunction_set_qualname>:
    ad02:	f3 0f 1e fa          	endbr64 
    ad06:	51                   	push   %rcx
    ad07:	48 85 f6             	test   %rsi,%rsi
    ad0a:	74 0d                	je     ad19 <__Pyx_CyFunction_set_qualname+0x17>
    ad0c:	48 8b 46 08          	mov    0x8(%rsi),%rax
    ad10:	f6 80 ab 00 00 00 10 	testb  $0x10,0xab(%rax)
    ad17:	75 18                	jne    ad31 <__Pyx_CyFunction_set_qualname+0x2f>
    ad19:	48 8b 3d c0 78 00 00 	mov    0x78c0(%rip),%rdi        # 125e0 <PyExc_TypeError>
    ad20:	48 8d 35 f1 26 00 00 	lea    0x26f1(%rip),%rsi        # d418 <_IO_stdin_used+0x418>
    ad27:	e8 64 9e ff ff       	callq  4b90 <PyErr_SetString@plt>
    ad2c:	83 c8 ff             	or     $0xffffffff,%eax
    ad2f:	eb 15                	jmp    ad46 <__Pyx_CyFunction_set_qualname+0x44>
    ad31:	4c 8b 47 48          	mov    0x48(%rdi),%r8
    ad35:	48 ff 06             	incq   (%rsi)
    ad38:	48 89 77 48          	mov    %rsi,0x48(%rdi)
    ad3c:	4c 89 c7             	mov    %r8,%rdi
    ad3f:	e8 1b fb ff ff       	callq  a85f <_Py_XDECREF>
    ad44:	31 c0                	xor    %eax,%eax
    ad46:	5a                   	pop    %rdx
    ad47:	c3                   	retq   

000000000000ad48 <__Pyx_CyFunction_set_name>:
    ad48:	f3 0f 1e fa          	endbr64 
    ad4c:	51                   	push   %rcx
    ad4d:	48 85 f6             	test   %rsi,%rsi
    ad50:	74 0d                	je     ad5f <__Pyx_CyFunction_set_name+0x17>
    ad52:	48 8b 46 08          	mov    0x8(%rsi),%rax
    ad56:	f6 80 ab 00 00 00 10 	testb  $0x10,0xab(%rax)
    ad5d:	75 18                	jne    ad77 <__Pyx_CyFunction_set_name+0x2f>
    ad5f:	48 8b 3d 7a 78 00 00 	mov    0x787a(%rip),%rdi        # 125e0 <PyExc_TypeError>
    ad66:	48 8d 35 d7 26 00 00 	lea    0x26d7(%rip),%rsi        # d444 <_IO_stdin_used+0x444>
    ad6d:	e8 1e 9e ff ff       	callq  4b90 <PyErr_SetString@plt>
    ad72:	83 c8 ff             	or     $0xffffffff,%eax
    ad75:	eb 15                	jmp    ad8c <__Pyx_CyFunction_set_name+0x44>
    ad77:	4c 8b 47 40          	mov    0x40(%rdi),%r8
    ad7b:	48 ff 06             	incq   (%rsi)
    ad7e:	48 89 77 40          	mov    %rsi,0x40(%rdi)
    ad82:	4c 89 c7             	mov    %r8,%rdi
    ad85:	e8 d5 fa ff ff       	callq  a85f <_Py_XDECREF>
    ad8a:	31 c0                	xor    %eax,%eax
    ad8c:	5a                   	pop    %rdx
    ad8d:	c3                   	retq   

000000000000ad8e <__Pyx_ParseOptionalKeywords.constprop.0>:
    ad8e:	41 57                	push   %r15
    ad90:	41 56                	push   %r14
    ad92:	41 55                	push   %r13
    ad94:	4c 8d 2c ce          	lea    (%rsi,%rcx,8),%r13
    ad98:	41 54                	push   %r12
    ad9a:	4d 89 c4             	mov    %r8,%r12
    ad9d:	55                   	push   %rbp
    ad9e:	48 89 d5             	mov    %rdx,%rbp
    ada1:	53                   	push   %rbx
    ada2:	48 89 f3             	mov    %rsi,%rbx
    ada5:	48 83 ec 38          	sub    $0x38,%rsp
    ada9:	48 89 7c 24 08       	mov    %rdi,0x8(%rsp)
    adae:	4c 8d 7c 24 18       	lea    0x18(%rsp),%r15
    adb3:	64 48 8b 04 25 28 00 	mov    %fs:0x28,%rax
    adba:	00 00 
    adbc:	48 89 44 24 28       	mov    %rax,0x28(%rsp)
    adc1:	31 c0                	xor    %eax,%eax
    adc3:	48 c7 44 24 10 00 00 	movq   $0x0,0x10(%rsp)
    adca:	00 00 
    adcc:	48 c7 44 24 18 00 00 	movq   $0x0,0x18(%rsp)
    add3:	00 00 
    add5:	48 c7 44 24 20 00 00 	movq   $0x0,0x20(%rsp)
    addc:	00 00 
    adde:	48 8b 7c 24 08       	mov    0x8(%rsp),%rdi
    ade3:	48 8d 54 24 10       	lea    0x10(%rsp),%rdx
    ade8:	48 8d 74 24 20       	lea    0x20(%rsp),%rsi
    aded:	4c 89 f9             	mov    %r15,%rcx
    adf0:	e8 cb 99 ff ff       	callq  47c0 <PyDict_Next@plt>
    adf5:	85 c0                	test   %eax,%eax
    adf7:	0f 84 67 02 00 00    	je     b064 <__Pyx_ParseOptionalKeywords.constprop.0+0x2d6>
    adfd:	48 8b 54 24 10       	mov    0x10(%rsp),%rdx
    ae02:	4c 89 e8             	mov    %r13,%rax
    ae05:	48 8b 08             	mov    (%rax),%rcx
    ae08:	48 85 c9             	test   %rcx,%rcx
    ae0b:	74 1a                	je     ae27 <__Pyx_ParseOptionalKeywords.constprop.0+0x99>
    ae0d:	48 39 11             	cmp    %rdx,(%rcx)
    ae10:	74 06                	je     ae18 <__Pyx_ParseOptionalKeywords.constprop.0+0x8a>
    ae12:	48 83 c0 08          	add    $0x8,%rax
    ae16:	eb ed                	jmp    ae05 <__Pyx_ParseOptionalKeywords.constprop.0+0x77>
    ae18:	48 8b 54 24 18       	mov    0x18(%rsp),%rdx
    ae1d:	48 29 d8             	sub    %rbx,%rax
    ae20:	48 89 54 05 00       	mov    %rdx,0x0(%rbp,%rax,1)
    ae25:	eb b7                	jmp    adde <__Pyx_ParseOptionalKeywords.constprop.0+0x50>
    ae27:	48 8b 42 08          	mov    0x8(%rdx),%rax
    ae2b:	f6 80 ab 00 00 00 10 	testb  $0x10,0xab(%rax)
    ae32:	0f 84 f7 01 00 00    	je     b02f <__Pyx_ParseOptionalKeywords.constprop.0+0x2a1>
    ae38:	4d 89 ee             	mov    %r13,%r14
    ae3b:	49 8b 06             	mov    (%r14),%rax
    ae3e:	48 85 c0             	test   %rax,%rax
    ae41:	0f 84 d0 00 00 00    	je     af17 <__Pyx_ParseOptionalKeywords.constprop.0+0x189>
    ae47:	48 8b 38             	mov    (%rax),%rdi
    ae4a:	48 8b 74 24 10       	mov    0x10(%rsp),%rsi
    ae4f:	48 39 f7             	cmp    %rsi,%rdi
    ae52:	75 15                	jne    ae69 <__Pyx_ParseOptionalKeywords.constprop.0+0xdb>
    ae54:	48 8b 4c 24 18       	mov    0x18(%rsp),%rcx
    ae59:	4c 89 f0             	mov    %r14,%rax
    ae5c:	48 29 d8             	sub    %rbx,%rax
    ae5f:	48 89 4c 05 00       	mov    %rcx,0x0(%rbp,%rax,1)
    ae64:	e9 ae 00 00 00       	jmpq   af17 <__Pyx_ParseOptionalKeywords.constprop.0+0x189>
    ae69:	48 8b 47 08          	mov    0x8(%rdi),%rax
    ae6d:	f6 80 ab 00 00 00 10 	testb  $0x10,0xab(%rax)
    ae74:	75 1c                	jne    ae92 <__Pyx_ParseOptionalKeywords.constprop.0+0x104>
    ae76:	48 8d 0d f3 2e 00 00 	lea    0x2ef3(%rip),%rcx        # dd70 <__PRETTY_FUNCTION__.16405>
    ae7d:	ba 28 13 00 00       	mov    $0x1328,%edx
    ae82:	48 8d 35 7b 21 00 00 	lea    0x217b(%rip),%rsi        # d004 <_IO_stdin_used+0x4>
    ae89:	48 8d 3d dc 25 00 00 	lea    0x25dc(%rip),%rdi        # d46c <_IO_stdin_used+0x46c>
    ae90:	eb 20                	jmp    aeb2 <__Pyx_ParseOptionalKeywords.constprop.0+0x124>
    ae92:	80 7f 20 00          	cmpb   $0x0,0x20(%rdi)
    ae96:	78 1f                	js     aeb7 <__Pyx_ParseOptionalKeywords.constprop.0+0x129>
    ae98:	48 8d 0d d1 2e 00 00 	lea    0x2ed1(%rip),%rcx        # dd70 <__PRETTY_FUNCTION__.16405>
    ae9f:	ba 28 13 00 00       	mov    $0x1328,%edx
    aea4:	48 8d 35 59 21 00 00 	lea    0x2159(%rip),%rsi        # d004 <_IO_stdin_used+0x4>
    aeab:	48 8d 3d d2 25 00 00 	lea    0x25d2(%rip),%rdi        # d484 <_IO_stdin_used+0x484>
    aeb2:	e8 39 98 ff ff       	callq  46f0 <__assert_fail@plt>
    aeb7:	48 8b 46 08          	mov    0x8(%rsi),%rax
    aebb:	f6 80 ab 00 00 00 10 	testb  $0x10,0xab(%rax)
    aec2:	75 0e                	jne    aed2 <__Pyx_ParseOptionalKeywords.constprop.0+0x144>
    aec4:	48 8d 0d a5 2e 00 00 	lea    0x2ea5(%rip),%rcx        # dd70 <__PRETTY_FUNCTION__.16405>
    aecb:	ba 28 13 00 00       	mov    $0x1328,%edx
    aed0:	eb 6a                	jmp    af3c <__Pyx_ParseOptionalKeywords.constprop.0+0x1ae>
    aed2:	80 7e 20 00          	cmpb   $0x0,0x20(%rsi)
    aed6:	78 0e                	js     aee6 <__Pyx_ParseOptionalKeywords.constprop.0+0x158>
    aed8:	48 8d 0d 91 2e 00 00 	lea    0x2e91(%rip),%rcx        # dd70 <__PRETTY_FUNCTION__.16405>
    aedf:	ba 28 13 00 00       	mov    $0x1328,%edx
    aee4:	eb 7b                	jmp    af61 <__Pyx_ParseOptionalKeywords.constprop.0+0x1d3>
    aee6:	48 8b 46 10          	mov    0x10(%rsi),%rax
    aeea:	48 39 47 10          	cmp    %rax,0x10(%rdi)
    aeee:	75 1e                	jne    af0e <__Pyx_ParseOptionalKeywords.constprop.0+0x180>
    aef0:	e8 8b 97 ff ff       	callq  4680 <PyUnicode_Compare@plt>
    aef5:	85 c0                	test   %eax,%eax
    aef7:	79 0f                	jns    af08 <__Pyx_ParseOptionalKeywords.constprop.0+0x17a>
    aef9:	e8 52 99 ff ff       	callq  4850 <PyErr_Occurred@plt>
    aefe:	48 85 c0             	test   %rax,%rax
    af01:	74 0b                	je     af0e <__Pyx_ParseOptionalKeywords.constprop.0+0x180>
    af03:	e9 59 01 00 00       	jmpq   b061 <__Pyx_ParseOptionalKeywords.constprop.0+0x2d3>
    af08:	0f 84 46 ff ff ff    	je     ae54 <__Pyx_ParseOptionalKeywords.constprop.0+0xc6>
    af0e:	49 83 c6 08          	add    $0x8,%r14
    af12:	e9 24 ff ff ff       	jmpq   ae3b <__Pyx_ParseOptionalKeywords.constprop.0+0xad>
    af17:	49 83 3e 00          	cmpq   $0x0,(%r14)
    af1b:	0f 85 bd fe ff ff    	jne    adde <__Pyx_ParseOptionalKeywords.constprop.0+0x50>
    af21:	eb 63                	jmp    af86 <__Pyx_ParseOptionalKeywords.constprop.0+0x1f8>
    af23:	48 8b 41 08          	mov    0x8(%rcx),%rax
    af27:	f6 80 ab 00 00 00 10 	testb  $0x10,0xab(%rax)
    af2e:	75 1f                	jne    af4f <__Pyx_ParseOptionalKeywords.constprop.0+0x1c1>
    af30:	48 8d 0d 39 2e 00 00 	lea    0x2e39(%rip),%rcx        # dd70 <__PRETTY_FUNCTION__.16405>
    af37:	ba 38 13 00 00       	mov    $0x1338,%edx
    af3c:	48 8d 35 c1 20 00 00 	lea    0x20c1(%rip),%rsi        # d004 <_IO_stdin_used+0x4>
    af43:	48 8d 3d 55 25 00 00 	lea    0x2555(%rip),%rdi        # d49f <_IO_stdin_used+0x49f>
    af4a:	e9 63 ff ff ff       	jmpq   aeb2 <__Pyx_ParseOptionalKeywords.constprop.0+0x124>
    af4f:	80 79 20 00          	cmpb   $0x0,0x20(%rcx)
    af53:	78 1f                	js     af74 <__Pyx_ParseOptionalKeywords.constprop.0+0x1e6>
    af55:	48 8d 0d 14 2e 00 00 	lea    0x2e14(%rip),%rcx        # dd70 <__PRETTY_FUNCTION__.16405>
    af5c:	ba 38 13 00 00       	mov    $0x1338,%edx
    af61:	48 8d 35 9c 20 00 00 	lea    0x209c(%rip),%rsi        # d004 <_IO_stdin_used+0x4>
    af68:	48 8d 3d 45 25 00 00 	lea    0x2545(%rip),%rdi        # d4b4 <_IO_stdin_used+0x4b4>
    af6f:	e9 3e ff ff ff       	jmpq   aeb2 <__Pyx_ParseOptionalKeywords.constprop.0+0x124>
    af74:	48 8b 41 10          	mov    0x10(%rcx),%rax
    af78:	48 39 47 10          	cmp    %rax,0x10(%rdi)
    af7c:	0f 84 86 00 00 00    	je     b008 <__Pyx_ParseOptionalKeywords.constprop.0+0x27a>
    af82:	48 83 c3 08          	add    $0x8,%rbx
    af86:	48 8b 4c 24 10       	mov    0x10(%rsp),%rcx
    af8b:	49 39 dd             	cmp    %rbx,%r13
    af8e:	0f 84 b5 00 00 00    	je     b049 <__Pyx_ParseOptionalKeywords.constprop.0+0x2bb>
    af94:	48 8b 03             	mov    (%rbx),%rax
    af97:	48 8b 38             	mov    (%rax),%rdi
    af9a:	48 39 cf             	cmp    %rcx,%rdi
    af9d:	75 14                	jne    afb3 <__Pyx_ParseOptionalKeywords.constprop.0+0x225>
    af9f:	48 8b 4c 24 10       	mov    0x10(%rsp),%rcx
    afa4:	4c 89 e2             	mov    %r12,%rdx
    afa7:	48 8d 35 1e 25 00 00 	lea    0x251e(%rip),%rsi        # d4cc <_IO_stdin_used+0x4cc>
    afae:	e9 a0 00 00 00       	jmpq   b053 <__Pyx_ParseOptionalKeywords.constprop.0+0x2c5>
    afb3:	48 8b 47 08          	mov    0x8(%rdi),%rax
    afb7:	f6 80 ab 00 00 00 10 	testb  $0x10,0xab(%rax)
    afbe:	75 1f                	jne    afdf <__Pyx_ParseOptionalKeywords.constprop.0+0x251>
    afc0:	48 8d 0d a9 2d 00 00 	lea    0x2da9(%rip),%rcx        # dd70 <__PRETTY_FUNCTION__.16405>
    afc7:	ba 38 13 00 00       	mov    $0x1338,%edx
    afcc:	48 8d 35 31 20 00 00 	lea    0x2031(%rip),%rsi        # d004 <_IO_stdin_used+0x4>
    afd3:	48 8d 3d 25 25 00 00 	lea    0x2525(%rip),%rdi        # d4ff <_IO_stdin_used+0x4ff>
    afda:	e9 d3 fe ff ff       	jmpq   aeb2 <__Pyx_ParseOptionalKeywords.constprop.0+0x124>
    afdf:	80 7f 20 00          	cmpb   $0x0,0x20(%rdi)
    afe3:	0f 88 3a ff ff ff    	js     af23 <__Pyx_ParseOptionalKeywords.constprop.0+0x195>
    afe9:	48 8d 0d 80 2d 00 00 	lea    0x2d80(%rip),%rcx        # dd70 <__PRETTY_FUNCTION__.16405>
    aff0:	ba 38 13 00 00       	mov    $0x1338,%edx
    aff5:	48 8d 35 08 20 00 00 	lea    0x2008(%rip),%rsi        # d004 <_IO_stdin_used+0x4>
    affc:	48 8d 3d 17 25 00 00 	lea    0x2517(%rip),%rdi        # d51a <_IO_stdin_used+0x51a>
    b003:	e9 aa fe ff ff       	jmpq   aeb2 <__Pyx_ParseOptionalKeywords.constprop.0+0x124>
    b008:	48 89 ce             	mov    %rcx,%rsi
    b00b:	e8 70 96 ff ff       	callq  4680 <PyUnicode_Compare@plt>
    b010:	85 c0                	test   %eax,%eax
    b012:	79 10                	jns    b024 <__Pyx_ParseOptionalKeywords.constprop.0+0x296>
    b014:	e8 37 98 ff ff       	callq  4850 <PyErr_Occurred@plt>
    b019:	48 85 c0             	test   %rax,%rax
    b01c:	0f 84 60 ff ff ff    	je     af82 <__Pyx_ParseOptionalKeywords.constprop.0+0x1f4>
    b022:	eb 3d                	jmp    b061 <__Pyx_ParseOptionalKeywords.constprop.0+0x2d3>
    b024:	0f 85 58 ff ff ff    	jne    af82 <__Pyx_ParseOptionalKeywords.constprop.0+0x1f4>
    b02a:	e9 70 ff ff ff       	jmpq   af9f <__Pyx_ParseOptionalKeywords.constprop.0+0x211>
    b02f:	48 8b 3d aa 75 00 00 	mov    0x75aa(%rip),%rdi        # 125e0 <PyExc_TypeError>
    b036:	4c 89 e2             	mov    %r12,%rdx
    b039:	48 8d 35 f8 24 00 00 	lea    0x24f8(%rip),%rsi        # d538 <_IO_stdin_used+0x538>
    b040:	31 c0                	xor    %eax,%eax
    b042:	e8 99 97 ff ff       	callq  47e0 <PyErr_Format@plt>
    b047:	eb 18                	jmp    b061 <__Pyx_ParseOptionalKeywords.constprop.0+0x2d3>
    b049:	4c 89 e2             	mov    %r12,%rdx
    b04c:	48 8d 35 07 25 00 00 	lea    0x2507(%rip),%rsi        # d55a <_IO_stdin_used+0x55a>
    b053:	48 8b 3d 86 75 00 00 	mov    0x7586(%rip),%rdi        # 125e0 <PyExc_TypeError>
    b05a:	31 c0                	xor    %eax,%eax
    b05c:	e8 7f 97 ff ff       	callq  47e0 <PyErr_Format@plt>
    b061:	83 c8 ff             	or     $0xffffffff,%eax
    b064:	48 8b 5c 24 28       	mov    0x28(%rsp),%rbx
    b069:	64 48 33 1c 25 28 00 	xor    %fs:0x28,%rbx
    b070:	00 00 
    b072:	74 05                	je     b079 <__Pyx_ParseOptionalKeywords.constprop.0+0x2eb>
    b074:	e8 c7 99 ff ff       	callq  4a40 <__stack_chk_fail@plt>
    b079:	48 83 c4 38          	add    $0x38,%rsp
    b07d:	5b                   	pop    %rbx
    b07e:	5d                   	pop    %rbp
    b07f:	41 5c                	pop    %r12
    b081:	41 5d                	pop    %r13
    b083:	41 5e                	pop    %r14
    b085:	41 5f                	pop    %r15
    b087:	c3                   	retq   

000000000000b088 <__Pyx_PyInt_AddObjC.isra.0.constprop.0>:
    b088:	48 8b 4f 08          	mov    0x8(%rdi),%rcx
    b08c:	48 8d 05 0d 83 00 00 	lea    0x830d(%rip),%rax        # 133a0 <PyLong_Type>
    b093:	48 39 c1             	cmp    %rax,%rcx
    b096:	75 5f                	jne    b0f7 <__Pyx_PyInt_AddObjC.isra.0.constprop.0+0x6f>
    b098:	48 8b 47 10          	mov    0x10(%rdi),%rax
    b09c:	48 8d 50 01          	lea    0x1(%rax),%rdx
    b0a0:	48 83 fa 02          	cmp    $0x2,%rdx
    b0a4:	77 12                	ja     b0b8 <__Pyx_PyInt_AddObjC.isra.0.constprop.0+0x30>
    b0a6:	48 85 c0             	test   %rax,%rax
    b0a9:	74 43                	je     b0ee <__Pyx_PyInt_AddObjC.isra.0.constprop.0+0x66>
    b0ab:	8b 57 18             	mov    0x18(%rdi),%edx
    b0ae:	48 ff c0             	inc    %rax
    b0b1:	48 89 d0             	mov    %rdx,%rax
    b0b4:	75 38                	jne    b0ee <__Pyx_PyInt_AddObjC.isra.0.constprop.0+0x66>
    b0b6:	eb 28                	jmp    b0e0 <__Pyx_PyInt_AddObjC.isra.0.constprop.0+0x58>
    b0b8:	48 83 f8 fe          	cmp    $0xfffffffffffffffe,%rax
    b0bc:	74 15                	je     b0d3 <__Pyx_PyInt_AddObjC.isra.0.constprop.0+0x4b>
    b0be:	48 83 f8 02          	cmp    $0x2,%rax
    b0c2:	75 21                	jne    b0e5 <__Pyx_PyInt_AddObjC.isra.0.constprop.0+0x5d>
    b0c4:	8b 47 1c             	mov    0x1c(%rdi),%eax
    b0c7:	8b 7f 18             	mov    0x18(%rdi),%edi
    b0ca:	48 c1 e0 1e          	shl    $0x1e,%rax
    b0ce:	48 09 f8             	or     %rdi,%rax
    b0d1:	eb 1b                	jmp    b0ee <__Pyx_PyInt_AddObjC.isra.0.constprop.0+0x66>
    b0d3:	8b 47 1c             	mov    0x1c(%rdi),%eax
    b0d6:	8b 7f 18             	mov    0x18(%rdi),%edi
    b0d9:	48 c1 e0 1e          	shl    $0x1e,%rax
    b0dd:	48 09 f8             	or     %rdi,%rax
    b0e0:	48 f7 d8             	neg    %rax
    b0e3:	eb 09                	jmp    b0ee <__Pyx_PyInt_AddObjC.isra.0.constprop.0+0x66>
    b0e5:	48 8b 41 60          	mov    0x60(%rcx),%rax
    b0e9:	48 8b 00             	mov    (%rax),%rax
    b0ec:	eb 3b                	jmp    b129 <__Pyx_PyInt_AddObjC.isra.0.constprop.0+0xa1>
    b0ee:	48 8d 78 01          	lea    0x1(%rax),%rdi
    b0f2:	e9 d9 99 ff ff       	jmpq   4ad0 <PyLong_FromLong@plt>
    b0f7:	48 8d 05 02 7a 00 00 	lea    0x7a02(%rip),%rax        # 12b00 <PyFloat_Type>
    b0fe:	48 39 c1             	cmp    %rax,%rcx
    b101:	75 12                	jne    b115 <__Pyx_PyInt_AddObjC.isra.0.constprop.0+0x8d>
    b103:	f2 0f 10 05 5d 30 00 	movsd  0x305d(%rip),%xmm0        # e168 <__pyx_k_a+0x9>
    b10a:	00 
    b10b:	f2 0f 58 47 10       	addsd  0x10(%rdi),%xmm0
    b110:	e9 db 96 ff ff       	jmpq   47f0 <PyFloat_FromDouble@plt>
    b115:	85 d2                	test   %edx,%edx
    b117:	75 09                	jne    b122 <__Pyx_PyInt_AddObjC.isra.0.constprop.0+0x9a>
    b119:	48 8b 05 d8 5e 00 00 	mov    0x5ed8(%rip),%rax        # 10ff8 <PyNumber_Add>
    b120:	eb 07                	jmp    b129 <__Pyx_PyInt_AddObjC.isra.0.constprop.0+0xa1>
    b122:	48 8b 05 af 5e 00 00 	mov    0x5eaf(%rip),%rax        # 10fd8 <PyNumber_InPlaceAdd>
    b129:	ff e0                	jmpq   *%rax

000000000000b12b <__Pyx_RaiseArgtupleInvalid.constprop.0>:
    b12b:	48 83 ec 10          	sub    $0x10,%rsp
    b12f:	48 89 fa             	mov    %rdi,%rdx
    b132:	48 8b 3d a7 74 00 00 	mov    0x74a7(%rip),%rdi        # 125e0 <PyExc_TypeError>
    b139:	31 c0                	xor    %eax,%eax
    b13b:	56                   	push   %rsi
    b13c:	4c 8d 0d 0a 27 00 00 	lea    0x270a(%rip),%r9        # d84d <_IO_stdin_used+0x84d>
    b143:	41 b8 02 00 00 00    	mov    $0x2,%r8d
    b149:	48 8d 0d 37 24 00 00 	lea    0x2437(%rip),%rcx        # d587 <_IO_stdin_used+0x587>
    b150:	48 8d 35 38 24 00 00 	lea    0x2438(%rip),%rsi        # d58f <_IO_stdin_used+0x58f>
    b157:	e8 84 96 ff ff       	callq  47e0 <PyErr_Format@plt>
    b15c:	48 83 c4 18          	add    $0x18,%rsp
    b160:	c3                   	retq   

000000000000b161 <__Pyx_GetItemInt_Fast.constprop.0>:
    b161:	41 55                	push   %r13
    b163:	48 8d 15 d6 72 00 00 	lea    0x72d6(%rip),%rdx        # 12440 <PyList_Type>
    b16a:	41 54                	push   %r12
    b16c:	49 89 f4             	mov    %rsi,%r12
    b16f:	55                   	push   %rbp
    b170:	48 89 fd             	mov    %rdi,%rbp
    b173:	48 83 ec 10          	sub    $0x10,%rsp
    b177:	48 8b 47 08          	mov    0x8(%rdi),%rax
    b17b:	48 39 d0             	cmp    %rdx,%rax
    b17e:	75 3a                	jne    b1ba <__Pyx_GetItemInt_Fast.constprop.0+0x59>
    b180:	48 8d 0d 09 2b 00 00 	lea    0x2b09(%rip),%rcx        # dc90 <__PRETTY_FUNCTION__.16368>
    b187:	ba a9 12 00 00       	mov    $0x12a9,%edx
    b18c:	48 8d 35 71 1e 00 00 	lea    0x1e71(%rip),%rsi        # d004 <_IO_stdin_used+0x4>
    b193:	48 8d 3d 31 24 00 00 	lea    0x2431(%rip),%rdi        # d5cb <_IO_stdin_used+0x5cb>
    b19a:	f6 80 ab 00 00 00 02 	testb  $0x2,0xab(%rax)
    b1a1:	74 46                	je     b1e9 <__Pyx_GetItemInt_Fast.constprop.0+0x88>
    b1a3:	4c 89 e2             	mov    %r12,%rdx
    b1a6:	48 03 55 10          	add    0x10(%rbp),%rdx
    b1aa:	0f 83 a7 00 00 00    	jae    b257 <__Pyx_GetItemInt_Fast.constprop.0+0xf6>
    b1b0:	48 8b 45 18          	mov    0x18(%rbp),%rax
    b1b4:	48 8b 04 d0          	mov    (%rax,%rdx,8),%rax
    b1b8:	eb 42                	jmp    b1fc <__Pyx_GetItemInt_Fast.constprop.0+0x9b>
    b1ba:	48 8d 15 df 7c 00 00 	lea    0x7cdf(%rip),%rdx        # 12ea0 <PyTuple_Type>
    b1c1:	48 39 d0             	cmp    %rdx,%rax
    b1c4:	75 3e                	jne    b204 <__Pyx_GetItemInt_Fast.constprop.0+0xa3>
    b1c6:	f6 80 ab 00 00 00 04 	testb  $0x4,0xab(%rax)
    b1cd:	75 1f                	jne    b1ee <__Pyx_GetItemInt_Fast.constprop.0+0x8d>
    b1cf:	48 8d 0d ba 2a 00 00 	lea    0x2aba(%rip),%rcx        # dc90 <__PRETTY_FUNCTION__.16368>
    b1d6:	ba b1 12 00 00       	mov    $0x12b1,%edx
    b1db:	48 8d 35 22 1e 00 00 	lea    0x1e22(%rip),%rsi        # d004 <_IO_stdin_used+0x4>
    b1e2:	48 8d 3d f2 23 00 00 	lea    0x23f2(%rip),%rdi        # d5db <_IO_stdin_used+0x5db>
    b1e9:	e8 02 95 ff ff       	callq  46f0 <__assert_fail@plt>
    b1ee:	48 89 f0             	mov    %rsi,%rax
    b1f1:	48 03 47 10          	add    0x10(%rdi),%rax
    b1f5:	73 60                	jae    b257 <__Pyx_GetItemInt_Fast.constprop.0+0xf6>
    b1f7:	48 8b 44 c7 18       	mov    0x18(%rdi,%rax,8),%rax
    b1fc:	48 ff 00             	incq   (%rax)
    b1ff:	e9 80 00 00 00       	jmpq   b284 <__Pyx_GetItemInt_Fast.constprop.0+0x123>
    b204:	4c 8b 68 68          	mov    0x68(%rax),%r13
    b208:	4d 85 ed             	test   %r13,%r13
    b20b:	74 4a                	je     b257 <__Pyx_GetItemInt_Fast.constprop.0+0xf6>
    b20d:	49 83 7d 18 00       	cmpq   $0x0,0x18(%r13)
    b212:	74 43                	je     b257 <__Pyx_GetItemInt_Fast.constprop.0+0xf6>
    b214:	49 8b 45 00          	mov    0x0(%r13),%rax
    b218:	48 85 c0             	test   %rax,%rax
    b21b:	74 25                	je     b242 <__Pyx_GetItemInt_Fast.constprop.0+0xe1>
    b21d:	ff d0                	callq  *%rax
    b21f:	48 85 c0             	test   %rax,%rax
    b222:	78 05                	js     b229 <__Pyx_GetItemInt_Fast.constprop.0+0xc8>
    b224:	49 01 c4             	add    %rax,%r12
    b227:	eb 19                	jmp    b242 <__Pyx_GetItemInt_Fast.constprop.0+0xe1>
    b229:	48 8b 3d 30 83 00 00 	mov    0x8330(%rip),%rdi        # 13560 <PyExc_OverflowError>
    b230:	e8 0b 96 ff ff       	callq  4840 <PyErr_ExceptionMatches@plt>
    b235:	85 c0                	test   %eax,%eax
    b237:	75 04                	jne    b23d <__Pyx_GetItemInt_Fast.constprop.0+0xdc>
    b239:	31 c0                	xor    %eax,%eax
    b23b:	eb 47                	jmp    b284 <__Pyx_GetItemInt_Fast.constprop.0+0x123>
    b23d:	e8 ee 98 ff ff       	callq  4b30 <PyErr_Clear@plt>
    b242:	49 8b 45 18          	mov    0x18(%r13),%rax
    b246:	48 83 c4 10          	add    $0x10,%rsp
    b24a:	4c 89 e6             	mov    %r12,%rsi
    b24d:	48 89 ef             	mov    %rbp,%rdi
    b250:	5d                   	pop    %rbp
    b251:	41 5c                	pop    %r12
    b253:	41 5d                	pop    %r13
    b255:	ff e0                	jmpq   *%rax
    b257:	4c 89 e7             	mov    %r12,%rdi
    b25a:	e8 21 99 ff ff       	callq  4b80 <PyLong_FromSsize_t@plt>
    b25f:	49 89 c5             	mov    %rax,%r13
    b262:	48 85 c0             	test   %rax,%rax
    b265:	74 d2                	je     b239 <__Pyx_GetItemInt_Fast.constprop.0+0xd8>
    b267:	48 89 c6             	mov    %rax,%rsi
    b26a:	48 89 ef             	mov    %rbp,%rdi
    b26d:	e8 2e 95 ff ff       	callq  47a0 <PyObject_GetItem@plt>
    b272:	4c 89 ef             	mov    %r13,%rdi
    b275:	48 89 44 24 08       	mov    %rax,0x8(%rsp)
    b27a:	e8 f0 f4 ff ff       	callq  a76f <_Py_DECREF.isra.0>
    b27f:	48 8b 44 24 08       	mov    0x8(%rsp),%rax
    b284:	48 83 c4 10          	add    $0x10,%rsp
    b288:	5d                   	pop    %rbp
    b289:	41 5c                	pop    %r12
    b28b:	41 5d                	pop    %r13
    b28d:	c3                   	retq   

000000000000b28e <__Pyx_PyFunction_FastCallDict.constprop.0>:
    b28e:	41 57                	push   %r15
    b290:	41 56                	push   %r14
    b292:	49 89 f6             	mov    %rsi,%r14
    b295:	41 55                	push   %r13
    b297:	49 89 d5             	mov    %rdx,%r13
    b29a:	41 54                	push   %r12
    b29c:	55                   	push   %rbp
    b29d:	48 89 fd             	mov    %rdi,%rbp
    b2a0:	53                   	push   %rbx
    b2a1:	41 50                	push   %r8
    b2a3:	4c 8b 67 10          	mov    0x10(%rdi),%r12
    b2a7:	4c 8b 7f 18          	mov    0x18(%rdi),%r15
    b2ab:	48 8b 5f 20          	mov    0x20(%rdi),%rbx
    b2af:	e8 4c 96 ff ff       	callq  4900 <PyThreadState_Get@plt>
    b2b4:	8b 48 20             	mov    0x20(%rax),%ecx
    b2b7:	8d 51 01             	lea    0x1(%rcx),%edx
    b2ba:	3b 15 c0 7b 00 00    	cmp    0x7bc0(%rip),%edx        # 12e80 <_Py_CheckRecursionLimit>
    b2c0:	89 50 20             	mov    %edx,0x20(%rax)
    b2c3:	7f 0a                	jg     b2cf <__Pyx_PyFunction_FastCallDict.constprop.0+0x41>
    b2c5:	41 83 7c 24 18 00    	cmpl   $0x0,0x18(%r12)
    b2cb:	74 1a                	je     b2e7 <__Pyx_PyFunction_FastCallDict.constprop.0+0x59>
    b2cd:	eb 79                	jmp    b348 <__Pyx_PyFunction_FastCallDict.constprop.0+0xba>
    b2cf:	48 8d 3d 56 1e 00 00 	lea    0x1e56(%rip),%rdi        # d12c <_IO_stdin_used+0x12c>
    b2d6:	e8 75 98 ff ff       	callq  4b50 <_Py_CheckRecursiveCall@plt>
    b2db:	85 c0                	test   %eax,%eax
    b2dd:	74 e6                	je     b2c5 <__Pyx_PyFunction_FastCallDict.constprop.0+0x37>
    b2df:	45 31 e4             	xor    %r12d,%r12d
    b2e2:	e9 04 01 00 00       	jmpq   b3eb <__Pyx_PyFunction_FastCallDict.constprop.0+0x15d>
    b2e7:	41 83 7c 24 24 43    	cmpl   $0x43,0x24(%r12)
    b2ed:	75 59                	jne    b348 <__Pyx_PyFunction_FastCallDict.constprop.0+0xba>
    b2ef:	48 85 db             	test   %rbx,%rbx
    b2f2:	75 15                	jne    b309 <__Pyx_PyFunction_FastCallDict.constprop.0+0x7b>
    b2f4:	49 63 44 24 10       	movslq 0x10(%r12),%rax
    b2f9:	4c 39 e8             	cmp    %r13,%rax
    b2fc:	75 4a                	jne    b348 <__Pyx_PyFunction_FastCallDict.constprop.0+0xba>
    b2fe:	4c 89 f9             	mov    %r15,%rcx
    b301:	4c 89 ea             	mov    %r13,%rdx
    b304:	4c 89 f6             	mov    %r14,%rsi
    b307:	eb 32                	jmp    b33b <__Pyx_PyFunction_FastCallDict.constprop.0+0xad>
    b309:	4d 85 ed             	test   %r13,%r13
    b30c:	75 3a                	jne    b348 <__Pyx_PyFunction_FastCallDict.constprop.0+0xba>
    b30e:	49 63 54 24 10       	movslq 0x10(%r12),%rdx
    b313:	48 3b 53 10          	cmp    0x10(%rbx),%rdx
    b317:	75 2f                	jne    b348 <__Pyx_PyFunction_FastCallDict.constprop.0+0xba>
    b319:	48 8b 43 08          	mov    0x8(%rbx),%rax
    b31d:	f6 80 ab 00 00 00 04 	testb  $0x4,0xab(%rax)
    b324:	75 0e                	jne    b334 <__Pyx_PyFunction_FastCallDict.constprop.0+0xa6>
    b326:	48 8d 0d b3 28 00 00 	lea    0x28b3(%rip),%rcx        # dbe0 <__PRETTY_FUNCTION__.16237>
    b32d:	ba 01 11 00 00       	mov    $0x1101,%edx
    b332:	eb 3a                	jmp    b36e <__Pyx_PyFunction_FastCallDict.constprop.0+0xe0>
    b334:	48 8d 73 18          	lea    0x18(%rbx),%rsi
    b338:	4c 89 f9             	mov    %r15,%rcx
    b33b:	4c 89 e7             	mov    %r12,%rdi
    b33e:	e8 37 f4 ff ff       	callq  a77a <__Pyx_PyFunction_FastCallNoKw>
    b343:	49 89 c4             	mov    %rax,%r12
    b346:	eb 70                	jmp    b3b8 <__Pyx_PyFunction_FastCallDict.constprop.0+0x12a>
    b348:	48 8b 4d 30          	mov    0x30(%rbp),%rcx
    b34c:	48 8b 55 28          	mov    0x28(%rbp),%rdx
    b350:	48 85 db             	test   %rbx,%rbx
    b353:	74 36                	je     b38b <__Pyx_PyFunction_FastCallDict.constprop.0+0xfd>
    b355:	48 8b 43 08          	mov    0x8(%rbx),%rax
    b359:	f6 80 ab 00 00 00 04 	testb  $0x4,0xab(%rax)
    b360:	75 1f                	jne    b381 <__Pyx_PyFunction_FastCallDict.constprop.0+0xf3>
    b362:	48 8d 0d 77 28 00 00 	lea    0x2877(%rip),%rcx        # dbe0 <__PRETTY_FUNCTION__.16237>
    b369:	ba 1f 11 00 00       	mov    $0x111f,%edx
    b36e:	48 8d 35 8f 1c 00 00 	lea    0x1c8f(%rip),%rsi        # d004 <_IO_stdin_used+0x4>
    b375:	48 8d 3d 70 22 00 00 	lea    0x2270(%rip),%rdi        # d5ec <_IO_stdin_used+0x5ec>
    b37c:	e8 6f 93 ff ff       	callq  46f0 <__assert_fail@plt>
    b381:	48 8b 43 10          	mov    0x10(%rbx),%rax
    b385:	48 83 c3 18          	add    $0x18,%rbx
    b389:	eb 02                	jmp    b38d <__Pyx_PyFunction_FastCallDict.constprop.0+0xff>
    b38b:	31 c0                	xor    %eax,%eax
    b38d:	56                   	push   %rsi
    b38e:	4c 89 e7             	mov    %r12,%rdi
    b391:	45 31 c9             	xor    %r9d,%r9d
    b394:	45 89 e8             	mov    %r13d,%r8d
    b397:	51                   	push   %rcx
    b398:	4c 89 fe             	mov    %r15,%rsi
    b39b:	4c 89 f1             	mov    %r14,%rcx
    b39e:	52                   	push   %rdx
    b39f:	31 d2                	xor    %edx,%edx
    b3a1:	50                   	push   %rax
    b3a2:	53                   	push   %rbx
    b3a3:	6a 00                	pushq  $0x0
    b3a5:	e8 f6 94 ff ff       	callq  48a0 <PyEval_EvalCodeEx@plt>
    b3aa:	48 83 c4 30          	add    $0x30,%rsp
    b3ae:	31 ff                	xor    %edi,%edi
    b3b0:	49 89 c4             	mov    %rax,%r12
    b3b3:	e8 a7 f4 ff ff       	callq  a85f <_Py_XDECREF>
    b3b8:	e8 43 95 ff ff       	callq  4900 <PyThreadState_Get@plt>
    b3bd:	8b 48 20             	mov    0x20(%rax),%ecx
    b3c0:	8d 51 ff             	lea    -0x1(%rcx),%edx
    b3c3:	89 50 20             	mov    %edx,0x20(%rax)
    b3c6:	8b 05 b4 7a 00 00    	mov    0x7ab4(%rip),%eax        # 12e80 <_Py_CheckRecursionLimit>
    b3cc:	3d c8 00 00 00       	cmp    $0xc8,%eax
    b3d1:	7e 05                	jle    b3d8 <__Pyx_PyFunction_FastCallDict.constprop.0+0x14a>
    b3d3:	83 e8 32             	sub    $0x32,%eax
    b3d6:	eb 06                	jmp    b3de <__Pyx_PyFunction_FastCallDict.constprop.0+0x150>
    b3d8:	c1 f8 02             	sar    $0x2,%eax
    b3db:	8d 04 40             	lea    (%rax,%rax,2),%eax
    b3de:	39 c2                	cmp    %eax,%edx
    b3e0:	7d 09                	jge    b3eb <__Pyx_PyFunction_FastCallDict.constprop.0+0x15d>
    b3e2:	e8 19 95 ff ff       	callq  4900 <PyThreadState_Get@plt>
    b3e7:	c6 40 24 00          	movb   $0x0,0x24(%rax)
    b3eb:	5a                   	pop    %rdx
    b3ec:	4c 89 e0             	mov    %r12,%rax
    b3ef:	5b                   	pop    %rbx
    b3f0:	5d                   	pop    %rbp
    b3f1:	41 5c                	pop    %r12
    b3f3:	41 5d                	pop    %r13
    b3f5:	41 5e                	pop    %r14
    b3f7:	41 5f                	pop    %r15
    b3f9:	c3                   	retq   

000000000000b3fa <__Pyx_PyObject_Call2Args>:
    b3fa:	41 55                	push   %r13
    b3fc:	49 89 f5             	mov    %rsi,%r13
    b3ff:	41 54                	push   %r12
    b401:	55                   	push   %rbp
    b402:	48 89 fd             	mov    %rdi,%rbp
    b405:	53                   	push   %rbx
    b406:	48 89 d3             	mov    %rdx,%rbx
    b409:	48 8d 15 d0 84 00 00 	lea    0x84d0(%rip),%rdx        # 138e0 <PyFunction_Type>
    b410:	48 83 ec 28          	sub    $0x28,%rsp
    b414:	64 48 8b 04 25 28 00 	mov    %fs:0x28,%rax
    b41b:	00 00 
    b41d:	48 89 44 24 18       	mov    %rax,0x18(%rsp)
    b422:	31 c0                	xor    %eax,%eax
    b424:	48 8b 47 08          	mov    0x8(%rdi),%rax
    b428:	48 39 d0             	cmp    %rdx,%rax
    b42b:	75 1b                	jne    b448 <__Pyx_PyObject_Call2Args+0x4e>
    b42d:	48 89 74 24 08       	mov    %rsi,0x8(%rsp)
    b432:	ba 02 00 00 00       	mov    $0x2,%edx
    b437:	48 8d 74 24 08       	lea    0x8(%rsp),%rsi
    b43c:	48 89 5c 24 10       	mov    %rbx,0x10(%rsp)
    b441:	e8 48 fe ff ff       	callq  b28e <__Pyx_PyFunction_FastCallDict.constprop.0>
    b446:	eb 36                	jmp    b47e <__Pyx_PyObject_Call2Args+0x84>
    b448:	48 8d 15 31 81 00 00 	lea    0x8131(%rip),%rdx        # 13580 <PyCFunction_Type>
    b44f:	48 39 d0             	cmp    %rdx,%rax
    b452:	75 32                	jne    b486 <__Pyx_PyObject_Call2Args+0x8c>
    b454:	48 8b 47 10          	mov    0x10(%rdi),%rax
    b458:	8b 40 10             	mov    0x10(%rax),%eax
    b45b:	83 e0 8d             	and    $0xffffff8d,%eax
    b45e:	3d 80 00 00 00       	cmp    $0x80,%eax
    b463:	75 21                	jne    b486 <__Pyx_PyObject_Call2Args+0x8c>
    b465:	48 89 74 24 08       	mov    %rsi,0x8(%rsp)
    b46a:	ba 02 00 00 00       	mov    $0x2,%edx
    b46f:	48 8d 74 24 08       	lea    0x8(%rsp),%rsi
    b474:	48 89 5c 24 10       	mov    %rbx,0x10(%rsp)
    b479:	e8 10 f1 ff ff       	callq  a58e <__Pyx_PyCFunction_FastCall>
    b47e:	49 89 c4             	mov    %rax,%r12
    b481:	e9 8b 00 00 00       	jmpq   b511 <__Pyx_PyObject_Call2Args+0x117>
    b486:	bf 02 00 00 00       	mov    $0x2,%edi
    b48b:	e8 b0 96 ff ff       	callq  4b40 <PyTuple_New@plt>
    b490:	49 89 c4             	mov    %rax,%r12
    b493:	48 85 c0             	test   %rax,%rax
    b496:	74 79                	je     b511 <__Pyx_PyObject_Call2Args+0x117>
    b498:	48 8b 40 08          	mov    0x8(%rax),%rax
    b49c:	49 ff 45 00          	incq   0x0(%r13)
    b4a0:	ba 5f 11 00 00       	mov    $0x115f,%edx
    b4a5:	48 8d 0d d4 26 00 00 	lea    0x26d4(%rip),%rcx        # db80 <__PRETTY_FUNCTION__.16261>
    b4ac:	f6 80 ab 00 00 00 04 	testb  $0x4,0xab(%rax)
    b4b3:	74 1d                	je     b4d2 <__Pyx_PyObject_Call2Args+0xd8>
    b4b5:	4d 89 6c 24 18       	mov    %r13,0x18(%r12)
    b4ba:	48 ff 03             	incq   (%rbx)
    b4bd:	f6 80 ab 00 00 00 04 	testb  $0x4,0xab(%rax)
    b4c4:	75 1f                	jne    b4e5 <__Pyx_PyObject_Call2Args+0xeb>
    b4c6:	48 8d 0d b3 26 00 00 	lea    0x26b3(%rip),%rcx        # db80 <__PRETTY_FUNCTION__.16261>
    b4cd:	ba 61 11 00 00       	mov    $0x1161,%edx
    b4d2:	48 8d 35 2b 1b 00 00 	lea    0x1b2b(%rip),%rsi        # d004 <_IO_stdin_used+0x4>
    b4d9:	48 8d 3d 78 1e 00 00 	lea    0x1e78(%rip),%rdi        # d358 <_IO_stdin_used+0x358>
    b4e0:	e8 0b 92 ff ff       	callq  46f0 <__assert_fail@plt>
    b4e5:	49 89 5c 24 20       	mov    %rbx,0x20(%r12)
    b4ea:	4c 89 e6             	mov    %r12,%rsi
    b4ed:	31 d2                	xor    %edx,%edx
    b4ef:	48 89 ef             	mov    %rbp,%rdi
    b4f2:	48 ff 45 00          	incq   0x0(%rbp)
    b4f6:	e8 e2 ed ff ff       	callq  a2dd <__Pyx_PyObject_Call>
    b4fb:	4c 89 e7             	mov    %r12,%rdi
    b4fe:	48 89 c3             	mov    %rax,%rbx
    b501:	e8 69 f2 ff ff       	callq  a76f <_Py_DECREF.isra.0>
    b506:	48 89 ef             	mov    %rbp,%rdi
    b509:	49 89 dc             	mov    %rbx,%r12
    b50c:	e8 5e f2 ff ff       	callq  a76f <_Py_DECREF.isra.0>
    b511:	48 8b 44 24 18       	mov    0x18(%rsp),%rax
    b516:	64 48 33 04 25 28 00 	xor    %fs:0x28,%rax
    b51d:	00 00 
    b51f:	74 05                	je     b526 <__Pyx_PyObject_Call2Args+0x12c>
    b521:	e8 1a 95 ff ff       	callq  4a40 <__stack_chk_fail@plt>
    b526:	48 83 c4 28          	add    $0x28,%rsp
    b52a:	4c 89 e0             	mov    %r12,%rax
    b52d:	5b                   	pop    %rbx
    b52e:	5d                   	pop    %rbp
    b52f:	41 5c                	pop    %r12
    b531:	41 5d                	pop    %r13
    b533:	c3                   	retq   

000000000000b534 <__Pyx_PyObject_CallOneArg>:
    b534:	41 54                	push   %r12
    b536:	48 8d 15 a3 83 00 00 	lea    0x83a3(%rip),%rdx        # 138e0 <PyFunction_Type>
    b53d:	55                   	push   %rbp
    b53e:	48 89 fd             	mov    %rdi,%rbp
    b541:	53                   	push   %rbx
    b542:	48 83 ec 10          	sub    $0x10,%rsp
    b546:	48 8b 47 08          	mov    0x8(%rdi),%rax
    b54a:	48 89 74 24 08       	mov    %rsi,0x8(%rsp)
    b54f:	48 39 d0             	cmp    %rdx,%rax
    b552:	75 11                	jne    b565 <__Pyx_PyObject_CallOneArg+0x31>
    b554:	48 8d 74 24 08       	lea    0x8(%rsp),%rsi
    b559:	ba 01 00 00 00       	mov    $0x1,%edx
    b55e:	e8 2b fd ff ff       	callq  b28e <__Pyx_PyFunction_FastCallDict.constprop.0>
    b563:	eb 21                	jmp    b586 <__Pyx_PyObject_CallOneArg+0x52>
    b565:	48 8d 15 14 80 00 00 	lea    0x8014(%rip),%rdx        # 13580 <PyCFunction_Type>
    b56c:	48 39 d0             	cmp    %rdx,%rax
    b56f:	75 38                	jne    b5a9 <__Pyx_PyObject_CallOneArg+0x75>
    b571:	48 8b 47 10          	mov    0x10(%rdi),%rax
    b575:	8b 40 10             	mov    0x10(%rax),%eax
    b578:	a8 08                	test   $0x8,%al
    b57a:	74 12                	je     b58e <__Pyx_PyObject_CallOneArg+0x5a>
    b57c:	48 8b 74 24 08       	mov    0x8(%rsp),%rsi
    b581:	e8 a6 ec ff ff       	callq  a22c <__Pyx_PyObject_CallMethO>
    b586:	49 89 c4             	mov    %rax,%r12
    b589:	e9 81 00 00 00       	jmpq   b60f <__Pyx_PyObject_CallOneArg+0xdb>
    b58e:	83 e0 8d             	and    $0xffffff8d,%eax
    b591:	3d 80 00 00 00       	cmp    $0x80,%eax
    b596:	75 11                	jne    b5a9 <__Pyx_PyObject_CallOneArg+0x75>
    b598:	48 8d 74 24 08       	lea    0x8(%rsp),%rsi
    b59d:	ba 01 00 00 00       	mov    $0x1,%edx
    b5a2:	e8 e7 ef ff ff       	callq  a58e <__Pyx_PyCFunction_FastCall>
    b5a7:	eb dd                	jmp    b586 <__Pyx_PyObject_CallOneArg+0x52>
    b5a9:	bf 01 00 00 00       	mov    $0x1,%edi
    b5ae:	48 8b 5c 24 08       	mov    0x8(%rsp),%rbx
    b5b3:	e8 88 95 ff ff       	callq  4b40 <PyTuple_New@plt>
    b5b8:	49 89 c4             	mov    %rax,%r12
    b5bb:	48 85 c0             	test   %rax,%rax
    b5be:	74 4f                	je     b60f <__Pyx_PyObject_CallOneArg+0xdb>
    b5c0:	48 8b 40 08          	mov    0x8(%rax),%rax
    b5c4:	48 ff 03             	incq   (%rbx)
    b5c7:	f6 80 ab 00 00 00 04 	testb  $0x4,0xab(%rax)
    b5ce:	75 1f                	jne    b5ef <__Pyx_PyObject_CallOneArg+0xbb>
    b5d0:	48 8d 0d 89 25 00 00 	lea    0x2589(%rip),%rcx        # db60 <__PRETTY_FUNCTION__.16275>
    b5d7:	ba 85 11 00 00       	mov    $0x1185,%edx
    b5dc:	48 8d 35 21 1a 00 00 	lea    0x1a21(%rip),%rsi        # d004 <_IO_stdin_used+0x4>
    b5e3:	48 8d 3d 6e 1d 00 00 	lea    0x1d6e(%rip),%rdi        # d358 <_IO_stdin_used+0x358>
    b5ea:	e8 01 91 ff ff       	callq  46f0 <__assert_fail@plt>
    b5ef:	49 89 5c 24 18       	mov    %rbx,0x18(%r12)
    b5f4:	4c 89 e6             	mov    %r12,%rsi
    b5f7:	48 89 ef             	mov    %rbp,%rdi
    b5fa:	31 d2                	xor    %edx,%edx
    b5fc:	e8 dc ec ff ff       	callq  a2dd <__Pyx_PyObject_Call>
    b601:	4c 89 e7             	mov    %r12,%rdi
    b604:	48 89 c5             	mov    %rax,%rbp
    b607:	e8 63 f1 ff ff       	callq  a76f <_Py_DECREF.isra.0>
    b60c:	49 89 ec             	mov    %rbp,%r12
    b60f:	48 83 c4 10          	add    $0x10,%rsp
    b613:	4c 89 e0             	mov    %r12,%rax
    b616:	5b                   	pop    %rbx
    b617:	5d                   	pop    %rbp
    b618:	41 5c                	pop    %r12
    b61a:	c3                   	retq   

000000000000b61b <__Pyx_PyObject_CallNoArg>:
    b61b:	55                   	push   %rbp
    b61c:	48 89 fd             	mov    %rdi,%rbp
    b61f:	48 8b 7f 08          	mov    0x8(%rdi),%rdi
    b623:	48 8d 05 b6 82 00 00 	lea    0x82b6(%rip),%rax        # 138e0 <PyFunction_Type>
    b62a:	48 39 c7             	cmp    %rax,%rdi
    b62d:	75 0d                	jne    b63c <__Pyx_PyObject_CallNoArg+0x21>
    b62f:	48 89 ef             	mov    %rbp,%rdi
    b632:	31 d2                	xor    %edx,%edx
    b634:	31 f6                	xor    %esi,%esi
    b636:	5d                   	pop    %rbp
    b637:	e9 52 fc ff ff       	jmpq   b28e <__Pyx_PyFunction_FastCallDict.constprop.0>
    b63c:	48 8d 05 3d 7f 00 00 	lea    0x7f3d(%rip),%rax        # 13580 <PyCFunction_Type>
    b643:	48 39 c7             	cmp    %rax,%rdi
    b646:	74 10                	je     b658 <__Pyx_PyObject_CallNoArg+0x3d>
    b648:	48 8b 35 21 8a 00 00 	mov    0x8a21(%rip),%rsi        # 14070 <__pyx_CyFunctionType>
    b64f:	e8 ba ee ff ff       	callq  a50e <__Pyx_IsSubtype>
    b654:	85 c0                	test   %eax,%eax
    b656:	74 15                	je     b66d <__Pyx_PyObject_CallNoArg+0x52>
    b658:	48 8b 45 10          	mov    0x10(%rbp),%rax
    b65c:	f6 40 10 04          	testb  $0x4,0x10(%rax)
    b660:	74 0b                	je     b66d <__Pyx_PyObject_CallNoArg+0x52>
    b662:	48 89 ef             	mov    %rbp,%rdi
    b665:	31 f6                	xor    %esi,%esi
    b667:	5d                   	pop    %rbp
    b668:	e9 bf eb ff ff       	jmpq   a22c <__Pyx_PyObject_CallMethO>
    b66d:	48 8b 35 14 8a 00 00 	mov    0x8a14(%rip),%rsi        # 14088 <__pyx_empty_tuple>
    b674:	48 89 ef             	mov    %rbp,%rdi
    b677:	31 d2                	xor    %edx,%edx
    b679:	5d                   	pop    %rbp
    b67a:	e9 5e ec ff ff       	jmpq   a2dd <__Pyx_PyObject_Call>

000000000000b67f <__Pyx_AddTraceback>:
    b67f:	41 57                	push   %r15
    b681:	41 56                	push   %r14
    b683:	41 55                	push   %r13
    b685:	49 89 fd             	mov    %rdi,%r13
    b688:	41 54                	push   %r12
    b68a:	41 89 f4             	mov    %esi,%r12d
    b68d:	55                   	push   %rbp
    b68e:	53                   	push   %rbx
    b68f:	89 d3                	mov    %edx,%ebx
    b691:	48 83 ec 28          	sub    $0x28,%rsp
    b695:	48 89 4c 24 08       	mov    %rcx,0x8(%rsp)
    b69a:	e8 21 95 ff ff       	callq  4bc0 <_PyThreadState_UncheckedGet@plt>
    b69f:	48 8b 3d ea 89 00 00 	mov    0x89ea(%rip),%rdi        # 14090 <__pyx_cython_runtime>
    b6a6:	48 89 c5             	mov    %rax,%rbp
    b6a9:	48 85 ff             	test   %rdi,%rdi
    b6ac:	0f 84 6f 01 00 00    	je     b821 <__Pyx_AddTraceback+0x1a2>
    b6b2:	4c 8b 78 58          	mov    0x58(%rax),%r15
    b6b6:	4c 8b 70 60          	mov    0x60(%rax),%r14
    b6ba:	48 8b 40 68          	mov    0x68(%rax),%rax
    b6be:	48 c7 45 58 00 00 00 	movq   $0x0,0x58(%rbp)
    b6c5:	00 
    b6c6:	48 c7 45 60 00 00 00 	movq   $0x0,0x60(%rbp)
    b6cd:	00 
    b6ce:	48 c7 45 68 00 00 00 	movq   $0x0,0x68(%rbp)
    b6d5:	00 
    b6d6:	48 89 04 24          	mov    %rax,(%rsp)
    b6da:	e8 51 90 ff ff       	callq  4730 <_PyObject_GetDictPtr@plt>
    b6df:	48 89 c1             	mov    %rax,%rcx
    b6e2:	48 85 c0             	test   %rax,%rax
    b6e5:	74 4f                	je     b736 <__Pyx_AddTraceback+0xb7>
    b6e7:	48 8b 38             	mov    (%rax),%rdi
    b6ea:	4c 8b 05 b7 83 00 00 	mov    0x83b7(%rip),%r8        # 13aa8 <__pyx_dict_cached_value.16830>
    b6f1:	48 8b 05 b8 83 00 00 	mov    0x83b8(%rip),%rax        # 13ab0 <__pyx_dict_version.16829>
    b6f8:	48 39 47 18          	cmp    %rax,0x18(%rdi)
    b6fc:	0f 84 8a 00 00 00    	je     b78c <__Pyx_AddTraceback+0x10d>
    b702:	48 8b 35 d7 88 00 00 	mov    0x88d7(%rip),%rsi        # 13fe0 <__pyx_n_s_cline_in_traceback>
    b709:	48 89 4c 24 10       	mov    %rcx,0x10(%rsp)
    b70e:	48 8b 56 18          	mov    0x18(%rsi),%rdx
    b712:	e8 a9 93 ff ff       	callq  4ac0 <_PyDict_GetItem_KnownHash@plt>
    b717:	48 8b 4c 24 10       	mov    0x10(%rsp),%rcx
    b71c:	48 89 05 85 83 00 00 	mov    %rax,0x8385(%rip)        # 13aa8 <__pyx_dict_cached_value.16830>
    b723:	49 89 c0             	mov    %rax,%r8
    b726:	48 8b 01             	mov    (%rcx),%rax
    b729:	48 8b 40 18          	mov    0x18(%rax),%rax
    b72d:	48 89 05 7c 83 00 00 	mov    %rax,0x837c(%rip)        # 13ab0 <__pyx_dict_version.16829>
    b734:	eb 56                	jmp    b78c <__Pyx_AddTraceback+0x10d>
    b736:	48 8b 3d 53 89 00 00 	mov    0x8953(%rip),%rdi        # 14090 <__pyx_cython_runtime>
    b73d:	48 8b 35 9c 88 00 00 	mov    0x889c(%rip),%rsi        # 13fe0 <__pyx_n_s_cline_in_traceback>
    b744:	e8 cc ea ff ff       	callq  a215 <__Pyx_PyObject_GetAttrStr>
    b749:	48 89 c7             	mov    %rax,%rdi
    b74c:	48 85 c0             	test   %rax,%rax
    b74f:	74 34                	je     b785 <__Pyx_AddTraceback+0x106>
    b751:	48 89 44 24 18       	mov    %rax,0x18(%rsp)
    b756:	e8 15 90 ff ff       	callq  4770 <PyObject_Not@plt>
    b75b:	4c 8d 05 3e 75 00 00 	lea    0x753e(%rip),%r8        # 12ca0 <_Py_FalseStruct>
    b762:	48 8b 7c 24 18       	mov    0x18(%rsp),%rdi
    b767:	85 c0                	test   %eax,%eax
    b769:	48 8d 05 f0 76 00 00 	lea    0x76f0(%rip),%rax        # 12e60 <_Py_TrueStruct>
    b770:	4c 0f 44 c0          	cmove  %rax,%r8
    b774:	4c 89 44 24 10       	mov    %r8,0x10(%rsp)
    b779:	e8 f1 ef ff ff       	callq  a76f <_Py_DECREF.isra.0>
    b77e:	4c 8b 44 24 10       	mov    0x10(%rsp),%r8
    b783:	eb 28                	jmp    b7ad <__Pyx_AddTraceback+0x12e>
    b785:	e8 a6 93 ff ff       	callq  4b30 <PyErr_Clear@plt>
    b78a:	eb 05                	jmp    b791 <__Pyx_AddTraceback+0x112>
    b78c:	4d 85 c0             	test   %r8,%r8
    b78f:	75 1c                	jne    b7ad <__Pyx_AddTraceback+0x12e>
    b791:	48 8b 35 48 88 00 00 	mov    0x8848(%rip),%rsi        # 13fe0 <__pyx_n_s_cline_in_traceback>
    b798:	48 8b 3d f1 88 00 00 	mov    0x88f1(%rip),%rdi        # 14090 <__pyx_cython_runtime>
    b79f:	48 8d 15 fa 74 00 00 	lea    0x74fa(%rip),%rdx        # 12ca0 <_Py_FalseStruct>
    b7a6:	e8 c5 92 ff ff       	callq  4a70 <PyObject_SetAttr@plt>
    b7ab:	eb 24                	jmp    b7d1 <__Pyx_AddTraceback+0x152>
    b7ad:	48 8d 05 ec 74 00 00 	lea    0x74ec(%rip),%rax        # 12ca0 <_Py_FalseStruct>
    b7b4:	49 39 c0             	cmp    %rax,%r8
    b7b7:	74 18                	je     b7d1 <__Pyx_AddTraceback+0x152>
    b7b9:	48 8d 05 a0 76 00 00 	lea    0x76a0(%rip),%rax        # 12e60 <_Py_TrueStruct>
    b7c0:	49 39 c0             	cmp    %rax,%r8
    b7c3:	74 0f                	je     b7d4 <__Pyx_AddTraceback+0x155>
    b7c5:	4c 89 c7             	mov    %r8,%rdi
    b7c8:	e8 a3 8f ff ff       	callq  4770 <PyObject_Not@plt>
    b7cd:	85 c0                	test   %eax,%eax
    b7cf:	74 03                	je     b7d4 <__Pyx_AddTraceback+0x155>
    b7d1:	45 31 e4             	xor    %r12d,%r12d
    b7d4:	48 8b 04 24          	mov    (%rsp),%rax
    b7d8:	4c 8b 45 68          	mov    0x68(%rbp),%r8
    b7dc:	4c 8b 4d 60          	mov    0x60(%rbp),%r9
    b7e0:	48 8b 7d 58          	mov    0x58(%rbp),%rdi
    b7e4:	4c 89 75 60          	mov    %r14,0x60(%rbp)
    b7e8:	41 89 de             	mov    %ebx,%r14d
    b7eb:	48 89 45 68          	mov    %rax,0x68(%rbp)
    b7ef:	4c 89 7d 58          	mov    %r15,0x58(%rbp)
    b7f3:	4c 89 44 24 10       	mov    %r8,0x10(%rsp)
    b7f8:	4c 89 4c 24 18       	mov    %r9,0x18(%rsp)
    b7fd:	e8 5d f0 ff ff       	callq  a85f <_Py_XDECREF>
    b802:	4c 8b 4c 24 18       	mov    0x18(%rsp),%r9
    b807:	4c 89 cf             	mov    %r9,%rdi
    b80a:	e8 50 f0 ff ff       	callq  a85f <_Py_XDECREF>
    b80f:	4c 8b 44 24 10       	mov    0x10(%rsp),%r8
    b814:	4c 89 c7             	mov    %r8,%rdi
    b817:	e8 43 f0 ff ff       	callq  a85f <_Py_XDECREF>
    b81c:	45 85 e4             	test   %r12d,%r12d
    b81f:	74 06                	je     b827 <__Pyx_AddTraceback+0x1a8>
    b821:	45 89 e6             	mov    %r12d,%r14d
    b824:	41 f7 de             	neg    %r14d
    b827:	48 8b 3d 3a 88 00 00 	mov    0x883a(%rip),%rdi        # 14068 <__pyx_code_cache+0x8>
    b82e:	48 85 ff             	test   %rdi,%rdi
    b831:	74 2e                	je     b861 <__Pyx_AddTraceback+0x1e2>
    b833:	44 8b 0d 26 88 00 00 	mov    0x8826(%rip),%r9d        # 14060 <__pyx_code_cache>
    b83a:	44 89 f2             	mov    %r14d,%edx
    b83d:	44 89 ce             	mov    %r9d,%esi
    b840:	e8 5f e7 ff ff       	callq  9fa4 <__pyx_bisect_code_objects>
    b845:	41 39 c1             	cmp    %eax,%r9d
    b848:	7e 17                	jle    b861 <__Pyx_AddTraceback+0x1e2>
    b84a:	48 98                	cltq   
    b84c:	48 c1 e0 04          	shl    $0x4,%rax
    b850:	48 01 f8             	add    %rdi,%rax
    b853:	44 39 70 08          	cmp    %r14d,0x8(%rax)
    b857:	75 08                	jne    b861 <__Pyx_AddTraceback+0x1e2>
    b859:	4c 8b 20             	mov    (%rax),%r12
    b85c:	e9 96 01 00 00       	jmpq   b9f7 <__Pyx_AddTraceback+0x378>
    b861:	48 8b 7c 24 08       	mov    0x8(%rsp),%rdi
    b866:	e8 95 8e ff ff       	callq  4700 <PyUnicode_FromString@plt>
    b86b:	49 89 c7             	mov    %rax,%r15
    b86e:	48 85 c0             	test   %rax,%rax
    b871:	0f 84 81 00 00 00    	je     b8f8 <__Pyx_AddTraceback+0x279>
    b877:	45 85 e4             	test   %r12d,%r12d
    b87a:	74 1d                	je     b899 <__Pyx_AddTraceback+0x21a>
    b87c:	44 89 e1             	mov    %r12d,%ecx
    b87f:	48 8d 15 7e 17 00 00 	lea    0x177e(%rip),%rdx        # d004 <_IO_stdin_used+0x4>
    b886:	4c 89 ee             	mov    %r13,%rsi
    b889:	31 c0                	xor    %eax,%eax
    b88b:	48 8d 3d 71 1d 00 00 	lea    0x1d71(%rip),%rdi        # d603 <_IO_stdin_used+0x603>
    b892:	e8 19 8f ff ff       	callq  47b0 <PyUnicode_FromFormat@plt>
    b897:	eb 08                	jmp    b8a1 <__Pyx_AddTraceback+0x222>
    b899:	4c 89 ef             	mov    %r13,%rdi
    b89c:	e8 5f 8e ff ff       	callq  4700 <PyUnicode_FromString@plt>
    b8a1:	49 89 c5             	mov    %rax,%r13
    b8a4:	48 85 c0             	test   %rax,%rax
    b8a7:	74 4f                	je     b8f8 <__Pyx_AddTraceback+0x279>
    b8a9:	48 8b 05 d8 87 00 00 	mov    0x87d8(%rip),%rax        # 14088 <__pyx_empty_tuple>
    b8b0:	45 31 c0             	xor    %r8d,%r8d
    b8b3:	31 c9                	xor    %ecx,%ecx
    b8b5:	31 f6                	xor    %esi,%esi
    b8b7:	4c 8b 0d c2 87 00 00 	mov    0x87c2(%rip),%r9        # 14080 <__pyx_empty_bytes>
    b8be:	52                   	push   %rdx
    b8bf:	31 ff                	xor    %edi,%edi
    b8c1:	31 d2                	xor    %edx,%edx
    b8c3:	41 51                	push   %r9
    b8c5:	53                   	push   %rbx
    b8c6:	41 55                	push   %r13
    b8c8:	41 57                	push   %r15
    b8ca:	50                   	push   %rax
    b8cb:	50                   	push   %rax
    b8cc:	50                   	push   %rax
    b8cd:	50                   	push   %rax
    b8ce:	50                   	push   %rax
    b8cf:	e8 3c 8f ff ff       	callq  4810 <PyCode_New@plt>
    b8d4:	48 83 c4 50          	add    $0x50,%rsp
    b8d8:	4c 89 ff             	mov    %r15,%rdi
    b8db:	49 89 c4             	mov    %rax,%r12
    b8de:	e8 8c ee ff ff       	callq  a76f <_Py_DECREF.isra.0>
    b8e3:	4c 89 ef             	mov    %r13,%rdi
    b8e6:	45 31 ed             	xor    %r13d,%r13d
    b8e9:	e8 81 ee ff ff       	callq  a76f <_Py_DECREF.isra.0>
    b8ee:	4d 85 e4             	test   %r12,%r12
    b8f1:	75 18                	jne    b90b <__Pyx_AddTraceback+0x28c>
    b8f3:	e9 2a 01 00 00       	jmpq   ba22 <__Pyx_AddTraceback+0x3a3>
    b8f8:	4c 89 ff             	mov    %r15,%rdi
    b8fb:	45 31 ed             	xor    %r13d,%r13d
    b8fe:	45 31 e4             	xor    %r12d,%r12d
    b901:	e8 59 ef ff ff       	callq  a85f <_Py_XDECREF>
    b906:	e9 17 01 00 00       	jmpq   ba22 <__Pyx_AddTraceback+0x3a3>
    b90b:	48 8b 3d 56 87 00 00 	mov    0x8756(%rip),%rdi        # 14068 <__pyx_code_cache+0x8>
    b912:	45 85 f6             	test   %r14d,%r14d
    b915:	0f 84 e0 00 00 00    	je     b9fb <__Pyx_AddTraceback+0x37c>
    b91b:	48 85 ff             	test   %rdi,%rdi
    b91e:	75 37                	jne    b957 <__Pyx_AddTraceback+0x2d8>
    b920:	bf 00 04 00 00       	mov    $0x400,%edi
    b925:	e8 06 93 ff ff       	callq  4c30 <PyMem_Malloc@plt>
    b92a:	48 85 c0             	test   %rax,%rax
    b92d:	0f 84 c8 00 00 00    	je     b9fb <__Pyx_AddTraceback+0x37c>
    b933:	48 ba 01 00 00 00 40 	movabs $0x4000000001,%rdx
    b93a:	00 00 00 
    b93d:	48 89 05 24 87 00 00 	mov    %rax,0x8724(%rip)        # 14068 <__pyx_code_cache+0x8>
    b944:	48 89 15 15 87 00 00 	mov    %rdx,0x8715(%rip)        # 14060 <__pyx_code_cache>
    b94b:	44 89 70 08          	mov    %r14d,0x8(%rax)
    b94f:	4c 89 20             	mov    %r12,(%rax)
    b952:	e9 a0 00 00 00       	jmpq   b9f7 <__Pyx_AddTraceback+0x378>
    b957:	44 8b 3d 02 87 00 00 	mov    0x8702(%rip),%r15d        # 14060 <__pyx_code_cache>
    b95e:	44 89 f2             	mov    %r14d,%edx
    b961:	44 89 fe             	mov    %r15d,%esi
    b964:	e8 3b e6 ff ff       	callq  9fa4 <__pyx_bisect_code_objects>
    b969:	4c 63 e8             	movslq %eax,%r13
    b96c:	45 39 ef             	cmp    %r13d,%r15d
    b96f:	7e 1d                	jle    b98e <__Pyx_AddTraceback+0x30f>
    b971:	49 63 c5             	movslq %r13d,%rax
    b974:	48 c1 e0 04          	shl    $0x4,%rax
    b978:	48 01 f8             	add    %rdi,%rax
    b97b:	44 39 70 08          	cmp    %r14d,0x8(%rax)
    b97f:	75 0d                	jne    b98e <__Pyx_AddTraceback+0x30f>
    b981:	48 8b 38             	mov    (%rax),%rdi
    b984:	4c 89 20             	mov    %r12,(%rax)
    b987:	e8 e3 ed ff ff       	callq  a76f <_Py_DECREF.isra.0>
    b98c:	eb 6d                	jmp    b9fb <__Pyx_AddTraceback+0x37c>
    b98e:	44 3b 3d cf 86 00 00 	cmp    0x86cf(%rip),%r15d        # 14064 <__pyx_code_cache+0x4>
    b995:	75 26                	jne    b9bd <__Pyx_AddTraceback+0x33e>
    b997:	41 83 c7 40          	add    $0x40,%r15d
    b99b:	49 63 f7             	movslq %r15d,%rsi
    b99e:	48 c1 e6 04          	shl    $0x4,%rsi
    b9a2:	e8 b9 8d ff ff       	callq  4760 <PyMem_Realloc@plt>
    b9a7:	48 89 c7             	mov    %rax,%rdi
    b9aa:	48 85 c0             	test   %rax,%rax
    b9ad:	74 4c                	je     b9fb <__Pyx_AddTraceback+0x37c>
    b9af:	48 89 05 b2 86 00 00 	mov    %rax,0x86b2(%rip)        # 14068 <__pyx_code_cache+0x8>
    b9b6:	44 89 3d a7 86 00 00 	mov    %r15d,0x86a7(%rip)        # 14064 <__pyx_code_cache+0x4>
    b9bd:	48 63 15 9c 86 00 00 	movslq 0x869c(%rip),%rdx        # 14060 <__pyx_code_cache>
    b9c4:	48 89 d0             	mov    %rdx,%rax
    b9c7:	41 39 d5             	cmp    %edx,%r13d
    b9ca:	7d 15                	jge    b9e1 <__Pyx_AddTraceback+0x362>
    b9cc:	48 89 d1             	mov    %rdx,%rcx
    b9cf:	48 ff ca             	dec    %rdx
    b9d2:	48 c1 e1 04          	shl    $0x4,%rcx
    b9d6:	0f 10 44 0f f0       	movups -0x10(%rdi,%rcx,1),%xmm0
    b9db:	0f 11 04 0f          	movups %xmm0,(%rdi,%rcx,1)
    b9df:	eb e6                	jmp    b9c7 <__Pyx_AddTraceback+0x348>
    b9e1:	49 c1 e5 04          	shl    $0x4,%r13
    b9e5:	ff c0                	inc    %eax
    b9e7:	4c 01 ef             	add    %r13,%rdi
    b9ea:	89 05 70 86 00 00    	mov    %eax,0x8670(%rip)        # 14060 <__pyx_code_cache>
    b9f0:	44 89 77 08          	mov    %r14d,0x8(%rdi)
    b9f4:	4c 89 27             	mov    %r12,(%rdi)
    b9f7:	49 ff 04 24          	incq   (%r12)
    b9fb:	48 8b 15 9e 86 00 00 	mov    0x869e(%rip),%rdx        # 140a0 <__pyx_d>
    ba02:	31 c9                	xor    %ecx,%ecx
    ba04:	4c 89 e6             	mov    %r12,%rsi
    ba07:	48 89 ef             	mov    %rbp,%rdi
    ba0a:	e8 81 8c ff ff       	callq  4690 <PyFrame_New@plt>
    ba0f:	49 89 c5             	mov    %rax,%r13
    ba12:	48 85 c0             	test   %rax,%rax
    ba15:	74 0b                	je     ba22 <__Pyx_AddTraceback+0x3a3>
    ba17:	89 58 6c             	mov    %ebx,0x6c(%rax)
    ba1a:	48 89 c7             	mov    %rax,%rdi
    ba1d:	e8 be 90 ff ff       	callq  4ae0 <PyTraceBack_Here@plt>
    ba22:	4c 89 e7             	mov    %r12,%rdi
    ba25:	e8 35 ee ff ff       	callq  a85f <_Py_XDECREF>
    ba2a:	48 83 c4 28          	add    $0x28,%rsp
    ba2e:	4c 89 ef             	mov    %r13,%rdi
    ba31:	5b                   	pop    %rbx
    ba32:	5d                   	pop    %rbp
    ba33:	41 5c                	pop    %r12
    ba35:	41 5d                	pop    %r13
    ba37:	41 5e                	pop    %r14
    ba39:	41 5f                	pop    %r15
    ba3b:	e9 1f ee ff ff       	jmpq   a85f <_Py_XDECREF>

000000000000ba40 <__pyx_pw_11arrow_mouse_14Time_measuring_3measure>:
    ba40:	f3 0f 1e fa          	endbr64 
    ba44:	41 57                	push   %r15
    ba46:	48 89 f7             	mov    %rsi,%rdi
    ba49:	41 56                	push   %r14
    ba4b:	41 55                	push   %r13
    ba4d:	41 54                	push   %r12
    ba4f:	55                   	push   %rbp
    ba50:	53                   	push   %rbx
    ba51:	48 83 ec 28          	sub    $0x28,%rsp
    ba55:	48 8b 35 ec 83 00 00 	mov    0x83ec(%rip),%rsi        # 13e48 <__pyx_n_s_tss_ms>
    ba5c:	e8 b4 e7 ff ff       	callq  a215 <__Pyx_PyObject_GetAttrStr>
    ba61:	49 89 c5             	mov    %rax,%r13
    ba64:	48 85 c0             	test   %rax,%rax
    ba67:	0f 84 43 03 00 00    	je     bdb0 <__pyx_pw_11arrow_mouse_14Time_measuring_3measure+0x370>
    ba6d:	48 8b 05 2c 86 00 00 	mov    0x862c(%rip),%rax        # 140a0 <__pyx_d>
    ba74:	48 8b 3d d5 83 00 00 	mov    0x83d5(%rip),%rdi        # 13e50 <__pyx_n_s_time>
    ba7b:	48 8b 0d 3e 80 00 00 	mov    0x803e(%rip),%rcx        # 13ac0 <__pyx_dict_version.15736>
    ba82:	48 39 48 18          	cmp    %rcx,0x18(%rax)
    ba86:	75 19                	jne    baa1 <__pyx_pw_11arrow_mouse_14Time_measuring_3measure+0x61>
    ba88:	48 8b 2d 29 80 00 00 	mov    0x8029(%rip),%rbp        # 13ab8 <__pyx_dict_cached_value.15737>
    ba8f:	48 85 ed             	test   %rbp,%rbp
    ba92:	74 06                	je     ba9a <__pyx_pw_11arrow_mouse_14Time_measuring_3measure+0x5a>
    ba94:	48 ff 45 00          	incq   0x0(%rbp)
    ba98:	eb 26                	jmp    bac0 <__pyx_pw_11arrow_mouse_14Time_measuring_3measure+0x80>
    ba9a:	e8 28 ec ff ff       	callq  a6c7 <__Pyx_GetBuiltinName>
    ba9f:	eb 13                	jmp    bab4 <__pyx_pw_11arrow_mouse_14Time_measuring_3measure+0x74>
    baa1:	48 8d 15 10 80 00 00 	lea    0x8010(%rip),%rdx        # 13ab8 <__pyx_dict_cached_value.15737>
    baa8:	48 8d 35 11 80 00 00 	lea    0x8011(%rip),%rsi        # 13ac0 <__pyx_dict_version.15736>
    baaf:	e8 53 ec ff ff       	callq  a707 <__Pyx__GetModuleGlobalName>
    bab4:	48 89 c5             	mov    %rax,%rbp
    bab7:	48 85 c0             	test   %rax,%rax
    baba:	0f 84 00 03 00 00    	je     bdc0 <__pyx_pw_11arrow_mouse_14Time_measuring_3measure+0x380>
    bac0:	48 8b 35 89 83 00 00 	mov    0x8389(%rip),%rsi        # 13e50 <__pyx_n_s_time>
    bac7:	48 89 ef             	mov    %rbp,%rdi
    baca:	e8 46 e7 ff ff       	callq  a215 <__Pyx_PyObject_GetAttrStr>
    bacf:	49 89 c4             	mov    %rax,%r12
    bad2:	48 85 c0             	test   %rax,%rax
    bad5:	0f 84 f3 02 00 00    	je     bdce <__pyx_pw_11arrow_mouse_14Time_measuring_3measure+0x38e>
    badb:	48 89 ef             	mov    %rbp,%rdi
    bade:	4c 8d 3d 1b 77 00 00 	lea    0x771b(%rip),%r15        # 13200 <PyMethod_Type>
    bae5:	e8 85 ec ff ff       	callq  a76f <_Py_DECREF.isra.0>
    baea:	4d 39 7c 24 08       	cmp    %r15,0x8(%r12)
    baef:	4c 89 7c 24 08       	mov    %r15,0x8(%rsp)
    baf4:	75 30                	jne    bb26 <__pyx_pw_11arrow_mouse_14Time_measuring_3measure+0xe6>
    baf6:	4d 8b 74 24 18       	mov    0x18(%r12),%r14
    bafb:	4d 85 f6             	test   %r14,%r14
    bafe:	74 26                	je     bb26 <__pyx_pw_11arrow_mouse_14Time_measuring_3measure+0xe6>
    bb00:	49 8b 5c 24 10       	mov    0x10(%r12),%rbx
    bb05:	49 ff 06             	incq   (%r14)
    bb08:	4c 89 e7             	mov    %r12,%rdi
    bb0b:	48 ff 03             	incq   (%rbx)
    bb0e:	49 89 dc             	mov    %rbx,%r12
    bb11:	e8 59 ec ff ff       	callq  a76f <_Py_DECREF.isra.0>
    bb16:	4c 89 f6             	mov    %r14,%rsi
    bb19:	48 89 df             	mov    %rbx,%rdi
    bb1c:	e8 13 fa ff ff       	callq  b534 <__Pyx_PyObject_CallOneArg>
    bb21:	48 89 c5             	mov    %rax,%rbp
    bb24:	eb 0e                	jmp    bb34 <__pyx_pw_11arrow_mouse_14Time_measuring_3measure+0xf4>
    bb26:	4c 89 e7             	mov    %r12,%rdi
    bb29:	45 31 f6             	xor    %r14d,%r14d
    bb2c:	e8 ea fa ff ff       	callq  b61b <__Pyx_PyObject_CallNoArg>
    bb31:	48 89 c5             	mov    %rax,%rbp
    bb34:	4c 89 f7             	mov    %r14,%rdi
    bb37:	e8 23 ed ff ff       	callq  a85f <_Py_XDECREF>
    bb3c:	48 85 ed             	test   %rbp,%rbp
    bb3f:	0f 84 96 02 00 00    	je     bddb <__pyx_pw_11arrow_mouse_14Time_measuring_3measure+0x39b>
    bb45:	4c 89 e7             	mov    %r12,%rdi
    bb48:	e8 22 ec ff ff       	callq  a76f <_Py_DECREF.isra.0>
    bb4d:	4d 8b 75 08          	mov    0x8(%r13),%r14
    bb51:	48 8d 05 e8 68 00 00 	lea    0x68e8(%rip),%rax        # 12440 <PyList_Type>
    bb58:	49 39 c6             	cmp    %rax,%r14
    bb5b:	75 48                	jne    bba5 <__pyx_pw_11arrow_mouse_14Time_measuring_3measure+0x165>
    bb5d:	49 8b 55 20          	mov    0x20(%r13),%rdx
    bb61:	49 8b 45 10          	mov    0x10(%r13),%rax
    bb65:	48 89 d1             	mov    %rdx,%rcx
    bb68:	48 d1 f9             	sar    %rcx
    bb6b:	48 39 c8             	cmp    %rcx,%rax
    bb6e:	7e 1d                	jle    bb8d <__pyx_pw_11arrow_mouse_14Time_measuring_3measure+0x14d>
    bb70:	48 39 d0             	cmp    %rdx,%rax
    bb73:	7d 18                	jge    bb8d <__pyx_pw_11arrow_mouse_14Time_measuring_3measure+0x14d>
    bb75:	49 8b 55 18          	mov    0x18(%r13),%rdx
    bb79:	48 ff 45 00          	incq   0x0(%rbp)
    bb7d:	48 89 2c c2          	mov    %rbp,(%rdx,%rax,8)
    bb81:	48 ff c0             	inc    %rax
    bb84:	49 89 45 10          	mov    %rax,0x10(%r13)
    bb88:	e9 00 02 00 00       	jmpq   bd8d <__pyx_pw_11arrow_mouse_14Time_measuring_3measure+0x34d>
    bb8d:	48 89 ee             	mov    %rbp,%rsi
    bb90:	4c 89 ef             	mov    %r13,%rdi
    bb93:	e8 c8 8e ff ff       	callq  4a60 <PyList_Append@plt>
    bb98:	85 c0                	test   %eax,%eax
    bb9a:	0f 89 ed 01 00 00    	jns    bd8d <__pyx_pw_11arrow_mouse_14Time_measuring_3measure+0x34d>
    bba0:	e9 9d 02 00 00       	jmpq   be42 <__pyx_pw_11arrow_mouse_14Time_measuring_3measure+0x402>
    bba5:	4c 8b 3d 5c 84 00 00 	mov    0x845c(%rip),%r15        # 14008 <__pyx_n_s_append>
    bbac:	48 8b 05 3d 54 00 00 	mov    0x543d(%rip),%rax        # 10ff0 <PyObject_GenericGetAttr>
    bbb3:	49 39 86 90 00 00 00 	cmp    %rax,0x90(%r14)
    bbba:	74 13                	je     bbcf <__pyx_pw_11arrow_mouse_14Time_measuring_3measure+0x18f>
    bbbc:	4c 89 fe             	mov    %r15,%rsi
    bbbf:	4c 89 ef             	mov    %r13,%rdi
    bbc2:	e8 4e e6 ff ff       	callq  a215 <__Pyx_PyObject_GetAttrStr>
    bbc7:	49 89 c4             	mov    %rax,%r12
    bbca:	e9 61 01 00 00       	jmpq   bd30 <__pyx_pw_11arrow_mouse_14Time_measuring_3measure+0x2f0>
    bbcf:	49 83 be 08 01 00 00 	cmpq   $0x0,0x108(%r14)
    bbd6:	00 
    bbd7:	74 15                	je     bbee <__pyx_pw_11arrow_mouse_14Time_measuring_3measure+0x1ae>
    bbd9:	4c 89 fe             	mov    %r15,%rsi
    bbdc:	4c 89 f7             	mov    %r14,%rdi
    bbdf:	e8 1c 90 ff ff       	callq  4c00 <_PyType_Lookup@plt>
    bbe4:	49 89 c4             	mov    %rax,%r12
    bbe7:	48 85 c0             	test   %rax,%rax
    bbea:	75 13                	jne    bbff <__pyx_pw_11arrow_mouse_14Time_measuring_3measure+0x1bf>
    bbec:	eb 6c                	jmp    bc5a <__pyx_pw_11arrow_mouse_14Time_measuring_3measure+0x21a>
    bbee:	4c 89 f7             	mov    %r14,%rdi
    bbf1:	e8 da 8a ff ff       	callq  46d0 <PyType_Ready@plt>
    bbf6:	85 c0                	test   %eax,%eax
    bbf8:	79 df                	jns    bbd9 <__pyx_pw_11arrow_mouse_14Time_measuring_3measure+0x199>
    bbfa:	e9 43 02 00 00       	jmpq   be42 <__pyx_pw_11arrow_mouse_14Time_measuring_3measure+0x402>
    bbff:	48 8b 50 08          	mov    0x8(%rax),%rdx
    bc03:	48 ff 00             	incq   (%rax)
    bc06:	48 8d 05 d3 7c 00 00 	lea    0x7cd3(%rip),%rax        # 138e0 <PyFunction_Type>
    bc0d:	48 39 c2             	cmp    %rax,%rdx
    bc10:	74 4d                	je     bc5f <__pyx_pw_11arrow_mouse_14Time_measuring_3measure+0x21f>
    bc12:	48 8d 05 27 7b 00 00 	lea    0x7b27(%rip),%rax        # 13740 <PyMethodDescr_Type>
    bc19:	48 39 c2             	cmp    %rax,%rdx
    bc1c:	74 41                	je     bc5f <__pyx_pw_11arrow_mouse_14Time_measuring_3measure+0x21f>
    bc1e:	48 8b 35 4b 84 00 00 	mov    0x844b(%rip),%rsi        # 14070 <__pyx_CyFunctionType>
    bc25:	48 89 d7             	mov    %rdx,%rdi
    bc28:	48 89 54 24 10       	mov    %rdx,0x10(%rsp)
    bc2d:	e8 dc e8 ff ff       	callq  a50e <__Pyx_IsSubtype>
    bc32:	48 8b 54 24 10       	mov    0x10(%rsp),%rdx
    bc37:	85 c0                	test   %eax,%eax
    bc39:	41 89 c0             	mov    %eax,%r8d
    bc3c:	75 21                	jne    bc5f <__pyx_pw_11arrow_mouse_14Time_measuring_3measure+0x21f>
    bc3e:	48 8b 9a 10 01 00 00 	mov    0x110(%rdx),%rbx
    bc45:	48 85 db             	test   %rbx,%rbx
    bc48:	74 10                	je     bc5a <__pyx_pw_11arrow_mouse_14Time_measuring_3measure+0x21a>
    bc4a:	48 83 ba 18 01 00 00 	cmpq   $0x0,0x118(%rdx)
    bc51:	00 
    bc52:	0f 85 92 00 00 00    	jne    bcea <__pyx_pw_11arrow_mouse_14Time_measuring_3measure+0x2aa>
    bc58:	eb 0d                	jmp    bc67 <__pyx_pw_11arrow_mouse_14Time_measuring_3measure+0x227>
    bc5a:	45 31 c0             	xor    %r8d,%r8d
    bc5d:	eb 06                	jmp    bc65 <__pyx_pw_11arrow_mouse_14Time_measuring_3measure+0x225>
    bc5f:	41 b8 01 00 00 00    	mov    $0x1,%r8d
    bc65:	31 db                	xor    %ebx,%ebx
    bc67:	4c 89 ef             	mov    %r13,%rdi
    bc6a:	44 89 44 24 10       	mov    %r8d,0x10(%rsp)
    bc6f:	e8 bc 8a ff ff       	callq  4730 <_PyObject_GetDictPtr@plt>
    bc74:	44 8b 44 24 10       	mov    0x10(%rsp),%r8d
    bc79:	48 85 c0             	test   %rax,%rax
    bc7c:	74 5e                	je     bcdc <__pyx_pw_11arrow_mouse_14Time_measuring_3measure+0x29c>
    bc7e:	48 8b 38             	mov    (%rax),%rdi
    bc81:	48 85 ff             	test   %rdi,%rdi
    bc84:	74 56                	je     bcdc <__pyx_pw_11arrow_mouse_14Time_measuring_3measure+0x29c>
    bc86:	48 ff 07             	incq   (%rdi)
    bc89:	49 8b 57 18          	mov    0x18(%r15),%rdx
    bc8d:	4c 89 fe             	mov    %r15,%rsi
    bc90:	44 89 44 24 1c       	mov    %r8d,0x1c(%rsp)
    bc95:	48 89 7c 24 10       	mov    %rdi,0x10(%rsp)
    bc9a:	e8 21 8e ff ff       	callq  4ac0 <_PyDict_GetItem_KnownHash@plt>
    bc9f:	48 8b 7c 24 10       	mov    0x10(%rsp),%rdi
    bca4:	44 8b 44 24 1c       	mov    0x1c(%rsp),%r8d
    bca9:	48 85 c0             	test   %rax,%rax
    bcac:	74 1f                	je     bccd <__pyx_pw_11arrow_mouse_14Time_measuring_3measure+0x28d>
    bcae:	48 ff 00             	incq   (%rax)
    bcb1:	48 89 44 24 10       	mov    %rax,0x10(%rsp)
    bcb6:	e8 b4 ea ff ff       	callq  a76f <_Py_DECREF.isra.0>
    bcbb:	4c 89 e7             	mov    %r12,%rdi
    bcbe:	e8 9c eb ff ff       	callq  a85f <_Py_XDECREF>
    bcc3:	48 8b 44 24 10       	mov    0x10(%rsp),%rax
    bcc8:	49 89 c4             	mov    %rax,%r12
    bccb:	eb 6c                	jmp    bd39 <__pyx_pw_11arrow_mouse_14Time_measuring_3measure+0x2f9>
    bccd:	44 89 44 24 10       	mov    %r8d,0x10(%rsp)
    bcd2:	e8 98 ea ff ff       	callq  a76f <_Py_DECREF.isra.0>
    bcd7:	44 8b 44 24 10       	mov    0x10(%rsp),%r8d
    bcdc:	45 85 c0             	test   %r8d,%r8d
    bcdf:	0f 85 82 00 00 00    	jne    bd67 <__pyx_pw_11arrow_mouse_14Time_measuring_3measure+0x327>
    bce5:	48 85 db             	test   %rbx,%rbx
    bce8:	74 1c                	je     bd06 <__pyx_pw_11arrow_mouse_14Time_measuring_3measure+0x2c6>
    bcea:	4c 89 e7             	mov    %r12,%rdi
    bced:	49 8b 55 08          	mov    0x8(%r13),%rdx
    bcf1:	4c 89 ee             	mov    %r13,%rsi
    bcf4:	ff d3                	callq  *%rbx
    bcf6:	4c 89 e7             	mov    %r12,%rdi
    bcf9:	48 89 c3             	mov    %rax,%rbx
    bcfc:	e8 6e ea ff ff       	callq  a76f <_Py_DECREF.isra.0>
    bd01:	49 89 dc             	mov    %rbx,%r12
    bd04:	eb 2a                	jmp    bd30 <__pyx_pw_11arrow_mouse_14Time_measuring_3measure+0x2f0>
    bd06:	4d 85 e4             	test   %r12,%r12
    bd09:	0f 85 23 01 00 00    	jne    be32 <__pyx_pw_11arrow_mouse_14Time_measuring_3measure+0x3f2>
    bd0f:	49 8b 56 18          	mov    0x18(%r14),%rdx
    bd13:	48 8b 3d 4e 78 00 00 	mov    0x784e(%rip),%rdi        # 13568 <PyExc_AttributeError>
    bd1a:	4c 89 f9             	mov    %r15,%rcx
    bd1d:	31 c0                	xor    %eax,%eax
    bd1f:	48 8d 35 e8 18 00 00 	lea    0x18e8(%rip),%rsi        # d60e <_IO_stdin_used+0x60e>
    bd26:	e8 b5 8a ff ff       	callq  47e0 <PyErr_Format@plt>
    bd2b:	e9 12 01 00 00       	jmpq   be42 <__pyx_pw_11arrow_mouse_14Time_measuring_3measure+0x402>
    bd30:	4d 85 e4             	test   %r12,%r12
    bd33:	0f 84 09 01 00 00    	je     be42 <__pyx_pw_11arrow_mouse_14Time_measuring_3measure+0x402>
    bd39:	48 8b 44 24 08       	mov    0x8(%rsp),%rax
    bd3e:	49 39 44 24 08       	cmp    %rax,0x8(%r12)
    bd43:	0f 85 e9 00 00 00    	jne    be32 <__pyx_pw_11arrow_mouse_14Time_measuring_3measure+0x3f2>
    bd49:	4d 3b 6c 24 18       	cmp    0x18(%r12),%r13
    bd4e:	0f 85 de 00 00 00    	jne    be32 <__pyx_pw_11arrow_mouse_14Time_measuring_3measure+0x3f2>
    bd54:	49 8b 5c 24 10       	mov    0x10(%r12),%rbx
    bd59:	4c 89 e7             	mov    %r12,%rdi
    bd5c:	48 ff 03             	incq   (%rbx)
    bd5f:	49 89 dc             	mov    %rbx,%r12
    bd62:	e8 08 ea ff ff       	callq  a76f <_Py_DECREF.isra.0>
    bd67:	48 89 ea             	mov    %rbp,%rdx
    bd6a:	4c 89 ee             	mov    %r13,%rsi
    bd6d:	4c 89 e7             	mov    %r12,%rdi
    bd70:	e8 85 f6 ff ff       	callq  b3fa <__Pyx_PyObject_Call2Args>
    bd75:	49 89 c6             	mov    %rax,%r14
    bd78:	4c 89 e7             	mov    %r12,%rdi
    bd7b:	e8 ef e9 ff ff       	callq  a76f <_Py_DECREF.isra.0>
    bd80:	4d 85 f6             	test   %r14,%r14
    bd83:	74 61                	je     bde6 <__pyx_pw_11arrow_mouse_14Time_measuring_3measure+0x3a6>
    bd85:	4c 89 f7             	mov    %r14,%rdi
    bd88:	e8 e2 e9 ff ff       	callq  a76f <_Py_DECREF.isra.0>
    bd8d:	4c 89 ef             	mov    %r13,%rdi
    bd90:	e8 da e9 ff ff       	callq  a76f <_Py_DECREF.isra.0>
    bd95:	48 89 ef             	mov    %rbp,%rdi
    bd98:	e8 d2 e9 ff ff       	callq  a76f <_Py_DECREF.isra.0>
    bd9d:	48 ff 05 9c 77 00 00 	incq   0x779c(%rip)        # 13540 <_Py_NoneStruct>
    bda4:	48 8d 05 95 77 00 00 	lea    0x7795(%rip),%rax        # 13540 <_Py_NoneStruct>
    bdab:	e9 a0 00 00 00       	jmpq   be50 <__pyx_pw_11arrow_mouse_14Time_measuring_3measure+0x410>
    bdb0:	45 31 e4             	xor    %r12d,%r12d
    bdb3:	45 31 f6             	xor    %r14d,%r14d
    bdb6:	31 ed                	xor    %ebp,%ebp
    bdb8:	41 bf 2f 06 00 00    	mov    $0x62f,%r15d
    bdbe:	eb 2f                	jmp    bdef <__pyx_pw_11arrow_mouse_14Time_measuring_3measure+0x3af>
    bdc0:	45 31 e4             	xor    %r12d,%r12d
    bdc3:	45 31 f6             	xor    %r14d,%r14d
    bdc6:	41 bf 31 06 00 00    	mov    $0x631,%r15d
    bdcc:	eb 21                	jmp    bdef <__pyx_pw_11arrow_mouse_14Time_measuring_3measure+0x3af>
    bdce:	49 89 ee             	mov    %rbp,%r14
    bdd1:	41 bf 33 06 00 00    	mov    $0x633,%r15d
    bdd7:	31 ed                	xor    %ebp,%ebp
    bdd9:	eb 14                	jmp    bdef <__pyx_pw_11arrow_mouse_14Time_measuring_3measure+0x3af>
    bddb:	45 31 f6             	xor    %r14d,%r14d
    bdde:	41 bf 42 06 00 00    	mov    $0x642,%r15d
    bde4:	eb 09                	jmp    bdef <__pyx_pw_11arrow_mouse_14Time_measuring_3measure+0x3af>
    bde6:	45 31 e4             	xor    %r12d,%r12d
    bde9:	41 bf 45 06 00 00    	mov    $0x645,%r15d
    bdef:	f3 0f 1e fa          	endbr64 
    bdf3:	4c 89 ef             	mov    %r13,%rdi
    bdf6:	e8 64 ea ff ff       	callq  a85f <_Py_XDECREF>
    bdfb:	48 89 ef             	mov    %rbp,%rdi
    bdfe:	e8 5c ea ff ff       	callq  a85f <_Py_XDECREF>
    be03:	4c 89 f7             	mov    %r14,%rdi
    be06:	e8 54 ea ff ff       	callq  a85f <_Py_XDECREF>
    be0b:	4c 89 e7             	mov    %r12,%rdi
    be0e:	e8 4c ea ff ff       	callq  a85f <_Py_XDECREF>
    be13:	48 8d 0d 19 18 00 00 	lea    0x1819(%rip),%rcx        # d633 <_IO_stdin_used+0x633>
    be1a:	44 89 fe             	mov    %r15d,%esi
    be1d:	ba 0b 00 00 00       	mov    $0xb,%edx
    be22:	48 8d 3d 1a 18 00 00 	lea    0x181a(%rip),%rdi        # d643 <_IO_stdin_used+0x643>
    be29:	e8 51 f8 ff ff       	callq  b67f <__Pyx_AddTraceback>
    be2e:	31 c0                	xor    %eax,%eax
    be30:	eb 1e                	jmp    be50 <__pyx_pw_11arrow_mouse_14Time_measuring_3measure+0x410>
    be32:	48 89 ee             	mov    %rbp,%rsi
    be35:	4c 89 e7             	mov    %r12,%rdi
    be38:	e8 f7 f6 ff ff       	callq  b534 <__Pyx_PyObject_CallOneArg>
    be3d:	e9 33 ff ff ff       	jmpq   bd75 <__pyx_pw_11arrow_mouse_14Time_measuring_3measure+0x335>
    be42:	41 bf 45 06 00 00    	mov    $0x645,%r15d
    be48:	45 31 e4             	xor    %r12d,%r12d
    be4b:	45 31 f6             	xor    %r14d,%r14d
    be4e:	eb 9f                	jmp    bdef <__pyx_pw_11arrow_mouse_14Time_measuring_3measure+0x3af>
    be50:	48 83 c4 28          	add    $0x28,%rsp
    be54:	5b                   	pop    %rbx
    be55:	5d                   	pop    %rbp
    be56:	41 5c                	pop    %r12
    be58:	41 5d                	pop    %r13
    be5a:	41 5e                	pop    %r14
    be5c:	41 5f                	pop    %r15
    be5e:	c3                   	retq   

000000000000be5f <__pyx_pw_11arrow_mouse_14Time_measuring_1__init__>:
    be5f:	f3 0f 1e fa          	endbr64 
    be63:	41 54                	push   %r12
    be65:	31 ff                	xor    %edi,%edi
    be67:	49 89 f4             	mov    %rsi,%r12
    be6a:	55                   	push   %rbp
    be6b:	51                   	push   %rcx
    be6c:	e8 af 8d ff ff       	callq  4c20 <PyList_New@plt>
    be71:	48 89 c5             	mov    %rax,%rbp
    be74:	48 85 c0             	test   %rax,%rax
    be77:	74 43                	je     bebc <__pyx_pw_11arrow_mouse_14Time_measuring_1__init__+0x5d>
    be79:	49 8b 44 24 08       	mov    0x8(%r12),%rax
    be7e:	48 8b 35 c3 7f 00 00 	mov    0x7fc3(%rip),%rsi        # 13e48 <__pyx_n_s_tss_ms>
    be85:	48 89 ea             	mov    %rbp,%rdx
    be88:	4c 89 e7             	mov    %r12,%rdi
    be8b:	48 8b 80 98 00 00 00 	mov    0x98(%rax),%rax
    be92:	48 85 c0             	test   %rax,%rax
    be95:	74 04                	je     be9b <__pyx_pw_11arrow_mouse_14Time_measuring_1__init__+0x3c>
    be97:	ff d0                	callq  *%rax
    be99:	eb 05                	jmp    bea0 <__pyx_pw_11arrow_mouse_14Time_measuring_1__init__+0x41>
    be9b:	e8 d0 8b ff ff       	callq  4a70 <PyObject_SetAttr@plt>
    bea0:	85 c0                	test   %eax,%eax
    bea2:	78 20                	js     bec4 <__pyx_pw_11arrow_mouse_14Time_measuring_1__init__+0x65>
    bea4:	48 89 ef             	mov    %rbp,%rdi
    bea7:	e8 c3 e8 ff ff       	callq  a76f <_Py_DECREF.isra.0>
    beac:	48 ff 05 8d 76 00 00 	incq   0x768d(%rip)        # 13540 <_Py_NoneStruct>
    beb3:	48 8d 05 86 76 00 00 	lea    0x7686(%rip),%rax        # 13540 <_Py_NoneStruct>
    beba:	eb 37                	jmp    bef3 <__pyx_pw_11arrow_mouse_14Time_measuring_1__init__+0x94>
    bebc:	41 bc eb 05 00 00    	mov    $0x5eb,%r12d
    bec2:	eb 06                	jmp    beca <__pyx_pw_11arrow_mouse_14Time_measuring_1__init__+0x6b>
    bec4:	41 bc ed 05 00 00    	mov    $0x5ed,%r12d
    beca:	48 89 ef             	mov    %rbp,%rdi
    becd:	e8 8d e9 ff ff       	callq  a85f <_Py_XDECREF>
    bed2:	48 8d 0d 5a 17 00 00 	lea    0x175a(%rip),%rcx        # d633 <_IO_stdin_used+0x633>
    bed9:	44 89 e6             	mov    %r12d,%esi
    bedc:	ba 08 00 00 00       	mov    $0x8,%edx
    bee1:	48 8d 3d 7e 17 00 00 	lea    0x177e(%rip),%rdi        # d666 <_IO_stdin_used+0x666>
    bee8:	e8 92 f7 ff ff       	callq  b67f <__Pyx_AddTraceback>
    beed:	31 c0                	xor    %eax,%eax
    beef:	f3 0f 1e fa          	endbr64 
    bef3:	5a                   	pop    %rdx
    bef4:	5d                   	pop    %rbp
    bef5:	41 5c                	pop    %r12
    bef7:	c3                   	retq   

000000000000bef8 <__pyx_pw_11arrow_mouse_5speed_function>:
    bef8:	f3 0f 1e fa          	endbr64 
    befc:	41 57                	push   %r15
    befe:	41 56                	push   %r14
    bf00:	41 55                	push   %r13
    bf02:	41 54                	push   %r12
    bf04:	55                   	push   %rbp
    bf05:	53                   	push   %rbx
    bf06:	48 89 f3             	mov    %rsi,%rbx
    bf09:	48 83 ec 38          	sub    $0x38,%rsp
    bf0d:	64 48 8b 04 25 28 00 	mov    %fs:0x28,%rax
    bf14:	00 00 
    bf16:	48 89 44 24 28       	mov    %rax,0x28(%rsp)
    bf1b:	31 c0                	xor    %eax,%eax
    bf1d:	48 8b 46 08          	mov    0x8(%rsi),%rax
    bf21:	48 c7 44 24 10 00 00 	movq   $0x0,0x10(%rsp)
    bf28:	00 00 
    bf2a:	48 c7 44 24 18 00 00 	movq   $0x0,0x18(%rsp)
    bf31:	00 00 
    bf33:	48 8b 80 a8 00 00 00 	mov    0xa8(%rax),%rax
    bf3a:	25 00 00 00 04       	and    $0x4000000,%eax
    bf3f:	48 85 d2             	test   %rdx,%rdx
    bf42:	0f 84 e9 00 00 00    	je     c031 <__pyx_pw_11arrow_mouse_5speed_function+0x139>
    bf48:	48 85 c0             	test   %rax,%rax
    bf4b:	75 11                	jne    bf5e <__pyx_pw_11arrow_mouse_5speed_function+0x66>
    bf4d:	48 8d 0d 4c 1e 00 00 	lea    0x1e4c(%rip),%rcx        # dda0 <__PRETTY_FUNCTION__.15900>
    bf54:	ba 92 08 00 00       	mov    $0x892,%edx
    bf59:	e9 e4 00 00 00       	jmpq   c042 <__pyx_pw_11arrow_mouse_5speed_function+0x14a>
    bf5e:	4c 8b 6e 10          	mov    0x10(%rsi),%r13
    bf62:	48 89 d5             	mov    %rdx,%rbp
    bf65:	49 83 fd 01          	cmp    $0x1,%r13
    bf69:	74 1a                	je     bf85 <__pyx_pw_11arrow_mouse_5speed_function+0x8d>
    bf6b:	49 83 fd 02          	cmp    $0x2,%r13
    bf6f:	74 0b                	je     bf7c <__pyx_pw_11arrow_mouse_5speed_function+0x84>
    bf71:	4d 85 ed             	test   %r13,%r13
    bf74:	0f 85 a5 05 00 00    	jne    c51f <__pyx_pw_11arrow_mouse_5speed_function+0x627>
    bf7a:	eb 12                	jmp    bf8e <__pyx_pw_11arrow_mouse_5speed_function+0x96>
    bf7c:	48 8b 46 20          	mov    0x20(%rsi),%rax
    bf80:	48 89 44 24 18       	mov    %rax,0x18(%rsp)
    bf85:	48 8b 43 18          	mov    0x18(%rbx),%rax
    bf89:	48 89 44 24 10       	mov    %rax,0x10(%rsp)
    bf8e:	48 89 ef             	mov    %rbp,%rdi
    bf91:	e8 8a 89 ff ff       	callq  4920 <PyDict_Size@plt>
    bf96:	49 89 c4             	mov    %rax,%r12
    bf99:	4d 85 ed             	test   %r13,%r13
    bf9c:	74 08                	je     bfa6 <__pyx_pw_11arrow_mouse_5speed_function+0xae>
    bf9e:	49 83 fd 01          	cmp    $0x1,%r13
    bfa2:	74 26                	je     bfca <__pyx_pw_11arrow_mouse_5speed_function+0xd2>
    bfa4:	eb 5f                	jmp    c005 <__pyx_pw_11arrow_mouse_5speed_function+0x10d>
    bfa6:	48 8b 35 e3 7e 00 00 	mov    0x7ee3(%rip),%rsi        # 13e90 <__pyx_n_s_speed>
    bfad:	48 89 ef             	mov    %rbp,%rdi
    bfb0:	49 ff cc             	dec    %r12
    bfb3:	48 8b 56 18          	mov    0x18(%rsi),%rdx
    bfb7:	e8 04 8b ff ff       	callq  4ac0 <_PyDict_GetItem_KnownHash@plt>
    bfbc:	48 89 44 24 10       	mov    %rax,0x10(%rsp)
    bfc1:	48 85 c0             	test   %rax,%rax
    bfc4:	0f 84 55 05 00 00    	je     c51f <__pyx_pw_11arrow_mouse_5speed_function+0x627>
    bfca:	48 8b 35 9f 7e 00 00 	mov    0x7e9f(%rip),%rsi        # 13e70 <__pyx_n_s_t>
    bfd1:	48 89 ef             	mov    %rbp,%rdi
    bfd4:	49 ff cc             	dec    %r12
    bfd7:	48 8b 56 18          	mov    0x18(%rsi),%rdx
    bfdb:	e8 e0 8a ff ff       	callq  4ac0 <_PyDict_GetItem_KnownHash@plt>
    bfe0:	48 89 44 24 18       	mov    %rax,0x18(%rsp)
    bfe5:	48 85 c0             	test   %rax,%rax
    bfe8:	75 1b                	jne    c005 <__pyx_pw_11arrow_mouse_5speed_function+0x10d>
    bfea:	be 01 00 00 00       	mov    $0x1,%esi
    bfef:	48 8d 3d ec 16 00 00 	lea    0x16ec(%rip),%rdi        # d6e2 <_IO_stdin_used+0x6e2>
    bff6:	e8 30 f1 ff ff       	callq  b12b <__Pyx_RaiseArgtupleInvalid.constprop.0>
    bffb:	be a4 08 00 00       	mov    $0x8a4,%esi
    c000:	e9 54 05 00 00       	jmpq   c559 <__pyx_pw_11arrow_mouse_5speed_function+0x661>
    c005:	4d 85 e4             	test   %r12,%r12
    c008:	7e 68                	jle    c072 <__pyx_pw_11arrow_mouse_5speed_function+0x17a>
    c00a:	48 8d 54 24 10       	lea    0x10(%rsp),%rdx
    c00f:	4c 89 e9             	mov    %r13,%rcx
    c012:	48 89 ef             	mov    %rbp,%rdi
    c015:	4c 8d 05 c6 16 00 00 	lea    0x16c6(%rip),%r8        # d6e2 <_IO_stdin_used+0x6e2>
    c01c:	48 8d 35 3d 50 00 00 	lea    0x503d(%rip),%rsi        # 11060 <__pyx_pyargnames.15896>
    c023:	e8 66 ed ff ff       	callq  ad8e <__Pyx_ParseOptionalKeywords.constprop.0>
    c028:	85 c0                	test   %eax,%eax
    c02a:	79 46                	jns    c072 <__pyx_pw_11arrow_mouse_5speed_function+0x17a>
    c02c:	e9 0c 05 00 00       	jmpq   c53d <__pyx_pw_11arrow_mouse_5speed_function+0x645>
    c031:	48 85 c0             	test   %rax,%rax
    c034:	75 1f                	jne    c055 <__pyx_pw_11arrow_mouse_5speed_function+0x15d>
    c036:	48 8d 0d 63 1d 00 00 	lea    0x1d63(%rip),%rcx        # dda0 <__PRETTY_FUNCTION__.15900>
    c03d:	ba aa 08 00 00       	mov    $0x8aa,%edx
    c042:	48 8d 35 bb 0f 00 00 	lea    0xfbb(%rip),%rsi        # d004 <_IO_stdin_used+0x4>
    c049:	48 8d 3d 3a 16 00 00 	lea    0x163a(%rip),%rdi        # d68a <_IO_stdin_used+0x68a>
    c050:	e8 9b 86 ff ff       	callq  46f0 <__assert_fail@plt>
    c055:	48 83 7e 10 02       	cmpq   $0x2,0x10(%rsi)
    c05a:	0f 85 bf 04 00 00    	jne    c51f <__pyx_pw_11arrow_mouse_5speed_function+0x627>
    c060:	48 8b 46 18          	mov    0x18(%rsi),%rax
    c064:	48 89 44 24 10       	mov    %rax,0x10(%rsp)
    c069:	48 8b 46 20          	mov    0x20(%rsi),%rax
    c06d:	48 89 44 24 18       	mov    %rax,0x18(%rsp)
    c072:	4c 8b 64 24 10       	mov    0x10(%rsp),%r12
    c077:	48 8b 05 22 80 00 00 	mov    0x8022(%rip),%rax        # 140a0 <__pyx_d>
    c07e:	48 8b 5c 24 18       	mov    0x18(%rsp),%rbx
    c083:	49 ff 04 24          	incq   (%r12)
    c087:	48 8b 0d 52 7a 00 00 	mov    0x7a52(%rip),%rcx        # 13ae0 <__pyx_dict_version.15925>
    c08e:	48 39 48 18          	cmp    %rcx,0x18(%rax)
    c092:	75 20                	jne    c0b4 <__pyx_pw_11arrow_mouse_5speed_function+0x1bc>
    c094:	48 8b 2d 3d 7a 00 00 	mov    0x7a3d(%rip),%rbp        # 13ad8 <__pyx_dict_cached_value.15926>
    c09b:	48 85 ed             	test   %rbp,%rbp
    c09e:	74 06                	je     c0a6 <__pyx_pw_11arrow_mouse_5speed_function+0x1ae>
    c0a0:	48 ff 45 00          	incq   0x0(%rbp)
    c0a4:	eb 34                	jmp    c0da <__pyx_pw_11arrow_mouse_5speed_function+0x1e2>
    c0a6:	48 8b 3d cb 7d 00 00 	mov    0x7dcb(%rip),%rdi        # 13e78 <__pyx_n_s_speed_function_quadric>
    c0ad:	e8 15 e6 ff ff       	callq  a6c7 <__Pyx_GetBuiltinName>
    c0b2:	eb 1a                	jmp    c0ce <__pyx_pw_11arrow_mouse_5speed_function+0x1d6>
    c0b4:	48 8b 3d bd 7d 00 00 	mov    0x7dbd(%rip),%rdi        # 13e78 <__pyx_n_s_speed_function_quadric>
    c0bb:	48 8d 15 16 7a 00 00 	lea    0x7a16(%rip),%rdx        # 13ad8 <__pyx_dict_cached_value.15926>
    c0c2:	48 8d 35 17 7a 00 00 	lea    0x7a17(%rip),%rsi        # 13ae0 <__pyx_dict_version.15925>
    c0c9:	e8 39 e6 ff ff       	callq  a707 <__Pyx__GetModuleGlobalName>
    c0ce:	48 89 c5             	mov    %rax,%rbp
    c0d1:	48 85 c0             	test   %rax,%rax
    c0d4:	0f 84 ad 03 00 00    	je     c487 <__pyx_pw_11arrow_mouse_5speed_function+0x58f>
    c0da:	48 8d 05 1f 71 00 00 	lea    0x711f(%rip),%rax        # 13200 <PyMethod_Type>
    c0e1:	45 31 ed             	xor    %r13d,%r13d
    c0e4:	45 31 ff             	xor    %r15d,%r15d
    c0e7:	48 39 45 08          	cmp    %rax,0x8(%rbp)
    c0eb:	48 89 04 24          	mov    %rax,(%rsp)
    c0ef:	75 25                	jne    c116 <__pyx_pw_11arrow_mouse_5speed_function+0x21e>
    c0f1:	4c 8b 7d 18          	mov    0x18(%rbp),%r15
    c0f5:	4d 85 ff             	test   %r15,%r15
    c0f8:	74 1c                	je     c116 <__pyx_pw_11arrow_mouse_5speed_function+0x21e>
    c0fa:	4c 8b 6d 10          	mov    0x10(%rbp),%r13
    c0fe:	49 ff 07             	incq   (%r15)
    c101:	48 89 ef             	mov    %rbp,%rdi
    c104:	49 ff 45 00          	incq   0x0(%r13)
    c108:	4c 89 ed             	mov    %r13,%rbp
    c10b:	41 bd 01 00 00 00    	mov    $0x1,%r13d
    c111:	e8 59 e6 ff ff       	callq  a76f <_Py_DECREF.isra.0>
    c116:	48 8b 45 08          	mov    0x8(%rbp),%rax
    c11a:	4c 8d 35 bf 77 00 00 	lea    0x77bf(%rip),%r14        # 138e0 <PyFunction_Type>
    c121:	41 8d 55 02          	lea    0x2(%r13),%edx
    c125:	4c 89 74 24 08       	mov    %r14,0x8(%rsp)
    c12a:	48 63 d2             	movslq %edx,%rdx
    c12d:	4c 39 f0             	cmp    %r14,%rax
    c130:	75 37                	jne    c169 <__pyx_pw_11arrow_mouse_5speed_function+0x271>
    c132:	b8 01 00 00 00       	mov    $0x1,%eax
    c137:	48 89 ef             	mov    %rbp,%rdi
    c13a:	4c 89 7c 24 10       	mov    %r15,0x10(%rsp)
    c13f:	4c 29 e8             	sub    %r13,%rax
    c142:	4c 89 64 24 18       	mov    %r12,0x18(%rsp)
    c147:	41 bd e8 08 00 00    	mov    $0x8e8,%r13d
    c14d:	48 8d 74 c4 10       	lea    0x10(%rsp,%rax,8),%rsi
    c152:	48 89 5c 24 20       	mov    %rbx,0x20(%rsp)
    c157:	e8 32 f1 ff ff       	callq  b28e <__Pyx_PyFunction_FastCallDict.constprop.0>
    c15c:	49 89 c6             	mov    %rax,%r14
    c15f:	48 85 c0             	test   %rax,%rax
    c162:	75 58                	jne    c1bc <__pyx_pw_11arrow_mouse_5speed_function+0x2c4>
    c164:	e9 3a 03 00 00       	jmpq   c4a3 <__pyx_pw_11arrow_mouse_5speed_function+0x5ab>
    c169:	48 8d 0d 10 74 00 00 	lea    0x7410(%rip),%rcx        # 13580 <PyCFunction_Type>
    c170:	48 39 c8             	cmp    %rcx,%rax
    c173:	75 57                	jne    c1cc <__pyx_pw_11arrow_mouse_5speed_function+0x2d4>
    c175:	48 8b 45 10          	mov    0x10(%rbp),%rax
    c179:	8b 40 10             	mov    0x10(%rax),%eax
    c17c:	83 e0 8d             	and    $0xffffff8d,%eax
    c17f:	3d 80 00 00 00       	cmp    $0x80,%eax
    c184:	75 46                	jne    c1cc <__pyx_pw_11arrow_mouse_5speed_function+0x2d4>
    c186:	b8 01 00 00 00       	mov    $0x1,%eax
    c18b:	48 89 ef             	mov    %rbp,%rdi
    c18e:	4c 89 7c 24 10       	mov    %r15,0x10(%rsp)
    c193:	4c 29 e8             	sub    %r13,%rax
    c196:	4c 89 64 24 18       	mov    %r12,0x18(%rsp)
    c19b:	41 bd f0 08 00 00    	mov    $0x8f0,%r13d
    c1a1:	48 8d 74 c4 10       	lea    0x10(%rsp,%rax,8),%rsi
    c1a6:	48 89 5c 24 20       	mov    %rbx,0x20(%rsp)
    c1ab:	e8 de e3 ff ff       	callq  a58e <__Pyx_PyCFunction_FastCall>
    c1b0:	49 89 c6             	mov    %rax,%r14
    c1b3:	48 85 c0             	test   %rax,%rax
    c1b6:	0f 84 e7 02 00 00    	je     c4a3 <__pyx_pw_11arrow_mouse_5speed_function+0x5ab>
    c1bc:	4c 89 ff             	mov    %r15,%rdi
    c1bf:	4d 89 f5             	mov    %r14,%r13
    c1c2:	e8 98 e6 ff ff       	callq  a85f <_Py_XDECREF>
    c1c7:	e9 aa 00 00 00       	jmpq   c276 <__pyx_pw_11arrow_mouse_5speed_function+0x37e>
    c1cc:	48 89 d7             	mov    %rdx,%rdi
    c1cf:	e8 6c 89 ff ff       	callq  4b40 <PyTuple_New@plt>
    c1d4:	49 89 c6             	mov    %rax,%r14
    c1d7:	48 85 c0             	test   %rax,%rax
    c1da:	0f 84 b5 02 00 00    	je     c495 <__pyx_pw_11arrow_mouse_5speed_function+0x59d>
    c1e0:	48 8b 40 08          	mov    0x8(%rax),%rax
    c1e4:	4d 85 ff             	test   %r15,%r15
    c1e7:	74 19                	je     c202 <__pyx_pw_11arrow_mouse_5speed_function+0x30a>
    c1e9:	48 8d 0d 50 1b 00 00 	lea    0x1b50(%rip),%rcx        # dd40 <__PRETTY_FUNCTION__.15932>
    c1f0:	ba f9 08 00 00       	mov    $0x8f9,%edx
    c1f5:	f6 80 ab 00 00 00 04 	testb  $0x4,0xab(%rax)
    c1fc:	74 3d                	je     c23b <__pyx_pw_11arrow_mouse_5speed_function+0x343>
    c1fe:	4d 89 7e 18          	mov    %r15,0x18(%r14)
    c202:	49 ff 04 24          	incq   (%r12)
    c206:	48 8d 0d 33 1b 00 00 	lea    0x1b33(%rip),%rcx        # dd40 <__PRETTY_FUNCTION__.15932>
    c20d:	ba fd 08 00 00       	mov    $0x8fd,%edx
    c212:	f6 80 ab 00 00 00 04 	testb  $0x4,0xab(%rax)
    c219:	74 20                	je     c23b <__pyx_pw_11arrow_mouse_5speed_function+0x343>
    c21b:	4b 8d 14 ee          	lea    (%r14,%r13,8),%rdx
    c21f:	4c 89 62 18          	mov    %r12,0x18(%rdx)
    c223:	48 ff 03             	incq   (%rbx)
    c226:	f6 80 ab 00 00 00 04 	testb  $0x4,0xab(%rax)
    c22d:	75 1f                	jne    c24e <__pyx_pw_11arrow_mouse_5speed_function+0x356>
    c22f:	48 8d 0d 0a 1b 00 00 	lea    0x1b0a(%rip),%rcx        # dd40 <__PRETTY_FUNCTION__.15932>
    c236:	ba 00 09 00 00       	mov    $0x900,%edx
    c23b:	48 8d 35 c2 0d 00 00 	lea    0xdc2(%rip),%rsi        # d004 <_IO_stdin_used+0x4>
    c242:	48 8d 3d 5b 14 00 00 	lea    0x145b(%rip),%rdi        # d6a4 <_IO_stdin_used+0x6a4>
    c249:	e9 02 fe ff ff       	jmpq   c050 <__pyx_pw_11arrow_mouse_5speed_function+0x158>
    c24e:	48 89 5a 20          	mov    %rbx,0x20(%rdx)
    c252:	4c 89 f6             	mov    %r14,%rsi
    c255:	31 d2                	xor    %edx,%edx
    c257:	48 89 ef             	mov    %rbp,%rdi
    c25a:	e8 7e e0 ff ff       	callq  a2dd <__Pyx_PyObject_Call>
    c25f:	49 89 c7             	mov    %rax,%r15
    c262:	48 85 c0             	test   %rax,%rax
    c265:	0f 84 32 02 00 00    	je     c49d <__pyx_pw_11arrow_mouse_5speed_function+0x5a5>
    c26b:	4c 89 f7             	mov    %r14,%rdi
    c26e:	4d 89 fd             	mov    %r15,%r13
    c271:	e8 f9 e4 ff ff       	callq  a76f <_Py_DECREF.isra.0>
    c276:	48 89 ef             	mov    %rbp,%rdi
    c279:	e8 f1 e4 ff ff       	callq  a76f <_Py_DECREF.isra.0>
    c27e:	4c 89 e7             	mov    %r12,%rdi
    c281:	e8 e9 e4 ff ff       	callq  a76f <_Py_DECREF.isra.0>
    c286:	48 8b 05 13 7e 00 00 	mov    0x7e13(%rip),%rax        # 140a0 <__pyx_d>
    c28d:	48 8b 0d 3c 78 00 00 	mov    0x783c(%rip),%rcx        # 13ad0 <__pyx_dict_version.15934>
    c294:	48 39 48 18          	cmp    %rcx,0x18(%rax)
    c298:	75 20                	jne    c2ba <__pyx_pw_11arrow_mouse_5speed_function+0x3c2>
    c29a:	48 8b 2d 27 78 00 00 	mov    0x7827(%rip),%rbp        # 13ac8 <__pyx_dict_cached_value.15935>
    c2a1:	48 85 ed             	test   %rbp,%rbp
    c2a4:	74 06                	je     c2ac <__pyx_pw_11arrow_mouse_5speed_function+0x3b4>
    c2a6:	48 ff 45 00          	incq   0x0(%rbp)
    c2aa:	eb 34                	jmp    c2e0 <__pyx_pw_11arrow_mouse_5speed_function+0x3e8>
    c2ac:	48 8b 3d cd 7b 00 00 	mov    0x7bcd(%rip),%rdi        # 13e80 <__pyx_n_s_speed_function_linear>
    c2b3:	e8 0f e4 ff ff       	callq  a6c7 <__Pyx_GetBuiltinName>
    c2b8:	eb 1a                	jmp    c2d4 <__pyx_pw_11arrow_mouse_5speed_function+0x3dc>
    c2ba:	48 8b 3d bf 7b 00 00 	mov    0x7bbf(%rip),%rdi        # 13e80 <__pyx_n_s_speed_function_linear>
    c2c1:	48 8d 15 00 78 00 00 	lea    0x7800(%rip),%rdx        # 13ac8 <__pyx_dict_cached_value.15935>
    c2c8:	48 8d 35 01 78 00 00 	lea    0x7801(%rip),%rsi        # 13ad0 <__pyx_dict_version.15934>
    c2cf:	e8 33 e4 ff ff       	callq  a707 <__Pyx__GetModuleGlobalName>
    c2d4:	48 89 c5             	mov    %rax,%rbp
    c2d7:	48 85 c0             	test   %rax,%rax
    c2da:	0f 84 ca 01 00 00    	je     c4aa <__pyx_pw_11arrow_mouse_5speed_function+0x5b2>
    c2e0:	48 8b 04 24          	mov    (%rsp),%rax
    c2e4:	45 31 f6             	xor    %r14d,%r14d
    c2e7:	45 31 e4             	xor    %r12d,%r12d
    c2ea:	48 39 45 08          	cmp    %rax,0x8(%rbp)
    c2ee:	75 25                	jne    c315 <__pyx_pw_11arrow_mouse_5speed_function+0x41d>
    c2f0:	4c 8b 75 18          	mov    0x18(%rbp),%r14
    c2f4:	4d 85 f6             	test   %r14,%r14
    c2f7:	74 1c                	je     c315 <__pyx_pw_11arrow_mouse_5speed_function+0x41d>
    c2f9:	4c 8b 65 10          	mov    0x10(%rbp),%r12
    c2fd:	49 ff 06             	incq   (%r14)
    c300:	48 89 ef             	mov    %rbp,%rdi
    c303:	49 ff 04 24          	incq   (%r12)
    c307:	4c 89 e5             	mov    %r12,%rbp
    c30a:	41 bc 01 00 00 00    	mov    $0x1,%r12d
    c310:	e8 5a e4 ff ff       	callq  a76f <_Py_DECREF.isra.0>
    c315:	41 8d 54 24 02       	lea    0x2(%r12),%edx
    c31a:	48 8b 45 08          	mov    0x8(%rbp),%rax
    c31e:	48 63 d2             	movslq %edx,%rdx
    c321:	48 3b 44 24 08       	cmp    0x8(%rsp),%rax
    c326:	75 3a                	jne    c362 <__pyx_pw_11arrow_mouse_5speed_function+0x46a>
    c328:	b8 01 00 00 00       	mov    $0x1,%eax
    c32d:	48 89 ef             	mov    %rbp,%rdi
    c330:	4c 89 74 24 10       	mov    %r14,0x10(%rsp)
    c335:	4c 29 e0             	sub    %r12,%rax
    c338:	4c 89 6c 24 18       	mov    %r13,0x18(%rsp)
    c33d:	48 8d 74 c4 10       	lea    0x10(%rsp,%rax,8),%rsi
    c342:	48 89 5c 24 20       	mov    %rbx,0x20(%rsp)
    c347:	e8 42 ef ff ff       	callq  b28e <__Pyx_PyFunction_FastCallDict.constprop.0>
    c34c:	49 89 c7             	mov    %rax,%r15
    c34f:	48 85 c0             	test   %rax,%rax
    c352:	75 65                	jne    c3b9 <__pyx_pw_11arrow_mouse_5speed_function+0x4c1>
    c354:	4d 89 ec             	mov    %r13,%r12
    c357:	41 bd 21 09 00 00    	mov    $0x921,%r13d
    c35d:	e9 6d 01 00 00       	jmpq   c4cf <__pyx_pw_11arrow_mouse_5speed_function+0x5d7>
    c362:	48 8d 0d 17 72 00 00 	lea    0x7217(%rip),%rcx        # 13580 <PyCFunction_Type>
    c369:	48 39 c8             	cmp    %rcx,%rax
    c36c:	75 58                	jne    c3c6 <__pyx_pw_11arrow_mouse_5speed_function+0x4ce>
    c36e:	48 8b 45 10          	mov    0x10(%rbp),%rax
    c372:	8b 40 10             	mov    0x10(%rax),%eax
    c375:	83 e0 8d             	and    $0xffffff8d,%eax
    c378:	3d 80 00 00 00       	cmp    $0x80,%eax
    c37d:	75 47                	jne    c3c6 <__pyx_pw_11arrow_mouse_5speed_function+0x4ce>
    c37f:	b8 01 00 00 00       	mov    $0x1,%eax
    c384:	48 89 ef             	mov    %rbp,%rdi
    c387:	4c 89 74 24 10       	mov    %r14,0x10(%rsp)
    c38c:	4c 29 e0             	sub    %r12,%rax
    c38f:	4c 89 6c 24 18       	mov    %r13,0x18(%rsp)
    c394:	48 8d 74 c4 10       	lea    0x10(%rsp,%rax,8),%rsi
    c399:	48 89 5c 24 20       	mov    %rbx,0x20(%rsp)
    c39e:	e8 eb e1 ff ff       	callq  a58e <__Pyx_PyCFunction_FastCall>
    c3a3:	49 89 c7             	mov    %rax,%r15
    c3a6:	48 85 c0             	test   %rax,%rax
    c3a9:	75 0e                	jne    c3b9 <__pyx_pw_11arrow_mouse_5speed_function+0x4c1>
    c3ab:	4d 89 ec             	mov    %r13,%r12
    c3ae:	41 bd 29 09 00 00    	mov    $0x929,%r13d
    c3b4:	e9 16 01 00 00       	jmpq   c4cf <__pyx_pw_11arrow_mouse_5speed_function+0x5d7>
    c3b9:	4c 89 f7             	mov    %r14,%rdi
    c3bc:	e8 9e e4 ff ff       	callq  a85f <_Py_XDECREF>
    c3c1:	e9 a6 00 00 00       	jmpq   c46c <__pyx_pw_11arrow_mouse_5speed_function+0x574>
    c3c6:	48 89 d7             	mov    %rdx,%rdi
    c3c9:	e8 72 87 ff ff       	callq  4b40 <PyTuple_New@plt>
    c3ce:	49 89 c7             	mov    %rax,%r15
    c3d1:	48 85 c0             	test   %rax,%rax
    c3d4:	0f 84 e1 00 00 00    	je     c4bb <__pyx_pw_11arrow_mouse_5speed_function+0x5c3>
    c3da:	48 8b 40 08          	mov    0x8(%rax),%rax
    c3de:	4d 85 f6             	test   %r14,%r14
    c3e1:	74 19                	je     c3fc <__pyx_pw_11arrow_mouse_5speed_function+0x504>
    c3e3:	48 8d 0d 56 19 00 00 	lea    0x1956(%rip),%rcx        # dd40 <__PRETTY_FUNCTION__.15932>
    c3ea:	ba 32 09 00 00       	mov    $0x932,%edx
    c3ef:	f6 80 ab 00 00 00 04 	testb  $0x4,0xab(%rax)
    c3f6:	74 3d                	je     c435 <__pyx_pw_11arrow_mouse_5speed_function+0x53d>
    c3f8:	4d 89 77 18          	mov    %r14,0x18(%r15)
    c3fc:	49 ff 45 00          	incq   0x0(%r13)
    c400:	48 8d 0d 39 19 00 00 	lea    0x1939(%rip),%rcx        # dd40 <__PRETTY_FUNCTION__.15932>
    c407:	ba 36 09 00 00       	mov    $0x936,%edx
    c40c:	f6 80 ab 00 00 00 04 	testb  $0x4,0xab(%rax)
    c413:	74 20                	je     c435 <__pyx_pw_11arrow_mouse_5speed_function+0x53d>
    c415:	4b 8d 14 e7          	lea    (%r15,%r12,8),%rdx
    c419:	4c 89 6a 18          	mov    %r13,0x18(%rdx)
    c41d:	48 ff 03             	incq   (%rbx)
    c420:	f6 80 ab 00 00 00 04 	testb  $0x4,0xab(%rax)
    c427:	75 1f                	jne    c448 <__pyx_pw_11arrow_mouse_5speed_function+0x550>
    c429:	48 8d 0d 10 19 00 00 	lea    0x1910(%rip),%rcx        # dd40 <__PRETTY_FUNCTION__.15932>
    c430:	ba 39 09 00 00       	mov    $0x939,%edx
    c435:	48 8d 35 c8 0b 00 00 	lea    0xbc8(%rip),%rsi        # d004 <_IO_stdin_used+0x4>
    c43c:	48 8d 3d 7a 12 00 00 	lea    0x127a(%rip),%rdi        # d6bd <_IO_stdin_used+0x6bd>
    c443:	e9 08 fc ff ff       	jmpq   c050 <__pyx_pw_11arrow_mouse_5speed_function+0x158>
    c448:	48 89 5a 20          	mov    %rbx,0x20(%rdx)
    c44c:	4c 89 fe             	mov    %r15,%rsi
    c44f:	31 d2                	xor    %edx,%edx
    c451:	48 89 ef             	mov    %rbp,%rdi
    c454:	e8 84 de ff ff       	callq  a2dd <__Pyx_PyObject_Call>
    c459:	49 89 c6             	mov    %rax,%r14
    c45c:	48 85 c0             	test   %rax,%rax
    c45f:	74 65                	je     c4c6 <__pyx_pw_11arrow_mouse_5speed_function+0x5ce>
    c461:	4c 89 ff             	mov    %r15,%rdi
    c464:	4d 89 f7             	mov    %r14,%r15
    c467:	e8 03 e3 ff ff       	callq  a76f <_Py_DECREF.isra.0>
    c46c:	48 89 ef             	mov    %rbp,%rdi
    c46f:	4d 89 fc             	mov    %r15,%r12
    c472:	e8 f8 e2 ff ff       	callq  a76f <_Py_DECREF.isra.0>
    c477:	4c 89 ef             	mov    %r13,%rdi
    c47a:	e8 f0 e2 ff ff       	callq  a76f <_Py_DECREF.isra.0>
    c47f:	49 ff 07             	incq   (%r15)
    c482:	e9 8e 00 00 00       	jmpq   c515 <__pyx_pw_11arrow_mouse_5speed_function+0x61d>
    c487:	45 31 f6             	xor    %r14d,%r14d
    c48a:	45 31 ff             	xor    %r15d,%r15d
    c48d:	41 bd d7 08 00 00    	mov    $0x8d7,%r13d
    c493:	eb 0e                	jmp    c4a3 <__pyx_pw_11arrow_mouse_5speed_function+0x5ab>
    c495:	41 bd f6 08 00 00    	mov    $0x8f6,%r13d
    c49b:	eb 06                	jmp    c4a3 <__pyx_pw_11arrow_mouse_5speed_function+0x5ab>
    c49d:	41 bd 01 09 00 00    	mov    $0x901,%r13d
    c4a3:	ba 37 00 00 00       	mov    $0x37,%edx
    c4a8:	eb 2a                	jmp    c4d4 <__pyx_pw_11arrow_mouse_5speed_function+0x5dc>
    c4aa:	4d 89 ec             	mov    %r13,%r12
    c4ad:	45 31 f6             	xor    %r14d,%r14d
    c4b0:	45 31 ff             	xor    %r15d,%r15d
    c4b3:	41 bd 10 09 00 00    	mov    $0x910,%r13d
    c4b9:	eb 14                	jmp    c4cf <__pyx_pw_11arrow_mouse_5speed_function+0x5d7>
    c4bb:	4d 89 ec             	mov    %r13,%r12
    c4be:	41 bd 2f 09 00 00    	mov    $0x92f,%r13d
    c4c4:	eb 09                	jmp    c4cf <__pyx_pw_11arrow_mouse_5speed_function+0x5d7>
    c4c6:	4d 89 ec             	mov    %r13,%r12
    c4c9:	41 bd 3a 09 00 00    	mov    $0x93a,%r13d
    c4cf:	ba 38 00 00 00       	mov    $0x38,%edx
    c4d4:	31 ff                	xor    %edi,%edi
    c4d6:	89 14 24             	mov    %edx,(%rsp)
    c4d9:	e8 81 e3 ff ff       	callq  a85f <_Py_XDECREF>
    c4de:	48 89 ef             	mov    %rbp,%rdi
    c4e1:	e8 79 e3 ff ff       	callq  a85f <_Py_XDECREF>
    c4e6:	4c 89 ff             	mov    %r15,%rdi
    c4e9:	4d 89 e7             	mov    %r12,%r15
    c4ec:	45 31 e4             	xor    %r12d,%r12d
    c4ef:	e8 6b e3 ff ff       	callq  a85f <_Py_XDECREF>
    c4f4:	4c 89 f7             	mov    %r14,%rdi
    c4f7:	e8 63 e3 ff ff       	callq  a85f <_Py_XDECREF>
    c4fc:	8b 14 24             	mov    (%rsp),%edx
    c4ff:	44 89 ee             	mov    %r13d,%esi
    c502:	48 8d 0d 2a 11 00 00 	lea    0x112a(%rip),%rcx        # d633 <_IO_stdin_used+0x633>
    c509:	48 8d 3d c6 11 00 00 	lea    0x11c6(%rip),%rdi        # d6d6 <_IO_stdin_used+0x6d6>
    c510:	e8 6a f1 ff ff       	callq  b67f <__Pyx_AddTraceback>
    c515:	4c 89 ff             	mov    %r15,%rdi
    c518:	e8 42 e3 ff ff       	callq  a85f <_Py_XDECREF>
    c51d:	eb 55                	jmp    c574 <__pyx_pw_11arrow_mouse_5speed_function+0x67c>
    c51f:	48 8b 43 08          	mov    0x8(%rbx),%rax
    c523:	f6 80 ab 00 00 00 04 	testb  $0x4,0xab(%rax)
    c52a:	75 18                	jne    c544 <__pyx_pw_11arrow_mouse_5speed_function+0x64c>
    c52c:	48 8d 0d 6d 18 00 00 	lea    0x186d(%rip),%rcx        # dda0 <__PRETTY_FUNCTION__.15900>
    c533:	ba b5 08 00 00       	mov    $0x8b5,%edx
    c538:	e9 05 fb ff ff       	jmpq   c042 <__pyx_pw_11arrow_mouse_5speed_function+0x14a>
    c53d:	be a8 08 00 00       	mov    $0x8a8,%esi
    c542:	eb 15                	jmp    c559 <__pyx_pw_11arrow_mouse_5speed_function+0x661>
    c544:	48 8b 73 10          	mov    0x10(%rbx),%rsi
    c548:	48 8d 3d 93 11 00 00 	lea    0x1193(%rip),%rdi        # d6e2 <_IO_stdin_used+0x6e2>
    c54f:	e8 d7 eb ff ff       	callq  b12b <__Pyx_RaiseArgtupleInvalid.constprop.0>
    c554:	be b5 08 00 00       	mov    $0x8b5,%esi
    c559:	48 8d 0d d3 10 00 00 	lea    0x10d3(%rip),%rcx        # d633 <_IO_stdin_used+0x633>
    c560:	ba 34 00 00 00       	mov    $0x34,%edx
    c565:	48 8d 3d 6a 11 00 00 	lea    0x116a(%rip),%rdi        # d6d6 <_IO_stdin_used+0x6d6>
    c56c:	45 31 e4             	xor    %r12d,%r12d
    c56f:	e8 0b f1 ff ff       	callq  b67f <__Pyx_AddTraceback>
    c574:	48 8b 44 24 28       	mov    0x28(%rsp),%rax
    c579:	64 48 33 04 25 28 00 	xor    %fs:0x28,%rax
    c580:	00 00 
    c582:	74 05                	je     c589 <__pyx_pw_11arrow_mouse_5speed_function+0x691>
    c584:	e8 b7 84 ff ff       	callq  4a40 <__stack_chk_fail@plt>
    c589:	48 83 c4 38          	add    $0x38,%rsp
    c58d:	4c 89 e0             	mov    %r12,%rax
    c590:	5b                   	pop    %rbx
    c591:	5d                   	pop    %rbp
    c592:	41 5c                	pop    %r12
    c594:	41 5d                	pop    %r13
    c596:	41 5e                	pop    %r14
    c598:	41 5f                	pop    %r15
    c59a:	c3                   	retq   

000000000000c59b <__pyx_pw_11arrow_mouse_3speed_function_linear>:
    c59b:	f3 0f 1e fa          	endbr64 
    c59f:	41 57                	push   %r15
    c5a1:	41 56                	push   %r14
    c5a3:	41 55                	push   %r13
    c5a5:	41 54                	push   %r12
    c5a7:	55                   	push   %rbp
    c5a8:	48 89 f5             	mov    %rsi,%rbp
    c5ab:	48 83 ec 20          	sub    $0x20,%rsp
    c5af:	64 48 8b 04 25 28 00 	mov    %fs:0x28,%rax
    c5b6:	00 00 
    c5b8:	48 89 44 24 18       	mov    %rax,0x18(%rsp)
    c5bd:	31 c0                	xor    %eax,%eax
    c5bf:	48 8b 46 08          	mov    0x8(%rsi),%rax
    c5c3:	48 c7 44 24 08 00 00 	movq   $0x0,0x8(%rsp)
    c5ca:	00 00 
    c5cc:	48 c7 44 24 10 00 00 	movq   $0x0,0x10(%rsp)
    c5d3:	00 00 
    c5d5:	48 8b 80 a8 00 00 00 	mov    0xa8(%rax),%rax
    c5dc:	25 00 00 00 04       	and    $0x4000000,%eax
    c5e1:	48 85 d2             	test   %rdx,%rdx
    c5e4:	0f 84 e9 00 00 00    	je     c6d3 <__pyx_pw_11arrow_mouse_3speed_function_linear+0x138>
    c5ea:	48 85 c0             	test   %rax,%rax
    c5ed:	75 11                	jne    c600 <__pyx_pw_11arrow_mouse_3speed_function_linear+0x65>
    c5ef:	48 8d 0d 0a 17 00 00 	lea    0x170a(%rip),%rcx        # dd00 <__PRETTY_FUNCTION__.15853>
    c5f6:	ba db 07 00 00       	mov    $0x7db,%edx
    c5fb:	e9 e4 00 00 00       	jmpq   c6e4 <__pyx_pw_11arrow_mouse_3speed_function_linear+0x149>
    c600:	4c 8b 76 10          	mov    0x10(%rsi),%r14
    c604:	49 89 d4             	mov    %rdx,%r12
    c607:	49 83 fe 01          	cmp    $0x1,%r14
    c60b:	74 1a                	je     c627 <__pyx_pw_11arrow_mouse_3speed_function_linear+0x8c>
    c60d:	49 83 fe 02          	cmp    $0x2,%r14
    c611:	74 0b                	je     c61e <__pyx_pw_11arrow_mouse_3speed_function_linear+0x83>
    c613:	4d 85 f6             	test   %r14,%r14
    c616:	0f 85 48 02 00 00    	jne    c864 <__pyx_pw_11arrow_mouse_3speed_function_linear+0x2c9>
    c61c:	eb 12                	jmp    c630 <__pyx_pw_11arrow_mouse_3speed_function_linear+0x95>
    c61e:	48 8b 46 20          	mov    0x20(%rsi),%rax
    c622:	48 89 44 24 10       	mov    %rax,0x10(%rsp)
    c627:	48 8b 45 18          	mov    0x18(%rbp),%rax
    c62b:	48 89 44 24 08       	mov    %rax,0x8(%rsp)
    c630:	4c 89 e7             	mov    %r12,%rdi
    c633:	e8 e8 82 ff ff       	callq  4920 <PyDict_Size@plt>
    c638:	49 89 c5             	mov    %rax,%r13
    c63b:	4d 85 f6             	test   %r14,%r14
    c63e:	74 08                	je     c648 <__pyx_pw_11arrow_mouse_3speed_function_linear+0xad>
    c640:	49 83 fe 01          	cmp    $0x1,%r14
    c644:	74 26                	je     c66c <__pyx_pw_11arrow_mouse_3speed_function_linear+0xd1>
    c646:	eb 5f                	jmp    c6a7 <__pyx_pw_11arrow_mouse_3speed_function_linear+0x10c>
    c648:	48 8b 35 41 78 00 00 	mov    0x7841(%rip),%rsi        # 13e90 <__pyx_n_s_speed>
    c64f:	4c 89 e7             	mov    %r12,%rdi
    c652:	49 ff cd             	dec    %r13
    c655:	48 8b 56 18          	mov    0x18(%rsi),%rdx
    c659:	e8 62 84 ff ff       	callq  4ac0 <_PyDict_GetItem_KnownHash@plt>
    c65e:	48 89 44 24 08       	mov    %rax,0x8(%rsp)
    c663:	48 85 c0             	test   %rax,%rax
    c666:	0f 84 f8 01 00 00    	je     c864 <__pyx_pw_11arrow_mouse_3speed_function_linear+0x2c9>
    c66c:	48 8b 35 fd 77 00 00 	mov    0x77fd(%rip),%rsi        # 13e70 <__pyx_n_s_t>
    c673:	4c 89 e7             	mov    %r12,%rdi
    c676:	49 ff cd             	dec    %r13
    c679:	48 8b 56 18          	mov    0x18(%rsi),%rdx
    c67d:	e8 3e 84 ff ff       	callq  4ac0 <_PyDict_GetItem_KnownHash@plt>
    c682:	48 89 44 24 10       	mov    %rax,0x10(%rsp)
    c687:	48 85 c0             	test   %rax,%rax
    c68a:	75 1b                	jne    c6a7 <__pyx_pw_11arrow_mouse_3speed_function_linear+0x10c>
    c68c:	be 01 00 00 00       	mov    $0x1,%esi
    c691:	48 8d 3d 65 10 00 00 	lea    0x1065(%rip),%rdi        # d6fd <_IO_stdin_used+0x6fd>
    c698:	e8 8e ea ff ff       	callq  b12b <__Pyx_RaiseArgtupleInvalid.constprop.0>
    c69d:	be ed 07 00 00       	mov    $0x7ed,%esi
    c6a2:	e9 f7 01 00 00       	jmpq   c89e <__pyx_pw_11arrow_mouse_3speed_function_linear+0x303>
    c6a7:	4d 85 ed             	test   %r13,%r13
    c6aa:	7e 68                	jle    c714 <__pyx_pw_11arrow_mouse_3speed_function_linear+0x179>
    c6ac:	48 8d 54 24 08       	lea    0x8(%rsp),%rdx
    c6b1:	4c 89 f1             	mov    %r14,%rcx
    c6b4:	4c 89 e7             	mov    %r12,%rdi
    c6b7:	4c 8d 05 3f 10 00 00 	lea    0x103f(%rip),%r8        # d6fd <_IO_stdin_used+0x6fd>
    c6be:	48 8d 35 7b 49 00 00 	lea    0x497b(%rip),%rsi        # 11040 <__pyx_pyargnames.15849>
    c6c5:	e8 c4 e6 ff ff       	callq  ad8e <__Pyx_ParseOptionalKeywords.constprop.0>
    c6ca:	85 c0                	test   %eax,%eax
    c6cc:	79 46                	jns    c714 <__pyx_pw_11arrow_mouse_3speed_function_linear+0x179>
    c6ce:	e9 af 01 00 00       	jmpq   c882 <__pyx_pw_11arrow_mouse_3speed_function_linear+0x2e7>
    c6d3:	48 85 c0             	test   %rax,%rax
    c6d6:	75 1f                	jne    c6f7 <__pyx_pw_11arrow_mouse_3speed_function_linear+0x15c>
    c6d8:	48 8d 0d 21 16 00 00 	lea    0x1621(%rip),%rcx        # dd00 <__PRETTY_FUNCTION__.15853>
    c6df:	ba f3 07 00 00       	mov    $0x7f3,%edx
    c6e4:	48 8d 35 19 09 00 00 	lea    0x919(%rip),%rsi        # d004 <_IO_stdin_used+0x4>
    c6eb:	48 8d 3d 98 0f 00 00 	lea    0xf98(%rip),%rdi        # d68a <_IO_stdin_used+0x68a>
    c6f2:	e8 f9 7f ff ff       	callq  46f0 <__assert_fail@plt>
    c6f7:	48 83 7e 10 02       	cmpq   $0x2,0x10(%rsi)
    c6fc:	0f 85 62 01 00 00    	jne    c864 <__pyx_pw_11arrow_mouse_3speed_function_linear+0x2c9>
    c702:	48 8b 46 18          	mov    0x18(%rsi),%rax
    c706:	48 89 44 24 08       	mov    %rax,0x8(%rsp)
    c70b:	48 8b 46 20          	mov    0x20(%rsi),%rax
    c70f:	48 89 44 24 10       	mov    %rax,0x10(%rsp)
    c714:	4c 8b 74 24 08       	mov    0x8(%rsp),%r14
    c719:	48 8b 74 24 10       	mov    0x10(%rsp),%rsi
    c71e:	49 ff 06             	incq   (%r14)
    c721:	4c 89 f7             	mov    %r14,%rdi
    c724:	e8 27 7f ff ff       	callq  4650 <PyNumber_Add@plt>
    c729:	48 89 c5             	mov    %rax,%rbp
    c72c:	48 85 c0             	test   %rax,%rax
    c72f:	0f 84 b1 00 00 00    	je     c7e6 <__pyx_pw_11arrow_mouse_3speed_function_linear+0x24b>
    c735:	48 8b 35 e4 76 00 00 	mov    0x76e4(%rip),%rsi        # 13e20 <__pyx_float_0_2>
    c73c:	48 89 c7             	mov    %rax,%rdi
    c73f:	e8 4c 81 ff ff       	callq  4890 <PyNumber_Multiply@plt>
    c744:	49 89 c4             	mov    %rax,%r12
    c747:	48 85 c0             	test   %rax,%rax
    c74a:	0f 84 a4 00 00 00    	je     c7f4 <__pyx_pw_11arrow_mouse_3speed_function_linear+0x259>
    c750:	48 89 ef             	mov    %rbp,%rdi
    c753:	e8 17 e0 ff ff       	callq  a76f <_Py_DECREF.isra.0>
    c758:	4c 89 f7             	mov    %r14,%rdi
    c75b:	e8 0f e0 ff ff       	callq  a76f <_Py_DECREF.isra.0>
    c760:	bf 14 00 00 00       	mov    $0x14,%edi
    c765:	e8 66 83 ff ff       	callq  4ad0 <PyLong_FromLong@plt>
    c76a:	49 89 c5             	mov    %rax,%r13
    c76d:	48 85 c0             	test   %rax,%rax
    c770:	0f 84 92 00 00 00    	je     c808 <__pyx_pw_11arrow_mouse_3speed_function_linear+0x26d>
    c776:	ba 05 00 00 00       	mov    $0x5,%edx
    c77b:	48 89 c6             	mov    %rax,%rsi
    c77e:	4c 89 e7             	mov    %r12,%rdi
    c781:	e8 da 81 ff ff       	callq  4960 <PyObject_RichCompare@plt>
    c786:	48 89 c5             	mov    %rax,%rbp
    c789:	48 85 c0             	test   %rax,%rax
    c78c:	0f 84 80 00 00 00    	je     c812 <__pyx_pw_11arrow_mouse_3speed_function_linear+0x277>
    c792:	4c 89 ef             	mov    %r13,%rdi
    c795:	e8 d5 df ff ff       	callq  a76f <_Py_DECREF.isra.0>
    c79a:	48 89 ef             	mov    %rbp,%rdi
    c79d:	e8 04 dc ff ff       	callq  a3a6 <__Pyx_PyObject_IsTrue>
    c7a2:	41 89 c5             	mov    %eax,%r13d
    c7a5:	85 c0                	test   %eax,%eax
    c7a7:	78 77                	js     c820 <__pyx_pw_11arrow_mouse_3speed_function_linear+0x285>
    c7a9:	48 89 ef             	mov    %rbp,%rdi
    c7ac:	e8 be df ff ff       	callq  a76f <_Py_DECREF.isra.0>
    c7b1:	45 85 ed             	test   %r13d,%r13d
    c7b4:	74 27                	je     c7dd <__pyx_pw_11arrow_mouse_3speed_function_linear+0x242>
    c7b6:	bf 14 00 00 00       	mov    $0x14,%edi
    c7bb:	e8 10 83 ff ff       	callq  4ad0 <PyLong_FromLong@plt>
    c7c0:	48 89 c5             	mov    %rax,%rbp
    c7c3:	48 85 c0             	test   %rax,%rax
    c7c6:	0f 85 8e 00 00 00    	jne    c85a <__pyx_pw_11arrow_mouse_3speed_function_linear+0x2bf>
    c7cc:	45 31 ed             	xor    %r13d,%r13d
    c7cf:	41 be 47 08 00 00    	mov    $0x847,%r14d
    c7d5:	41 bf 2f 00 00 00    	mov    $0x2f,%r15d
    c7db:	eb 52                	jmp    c82f <__pyx_pw_11arrow_mouse_3speed_function_linear+0x294>
    c7dd:	49 ff 04 24          	incq   (%r12)
    c7e1:	4c 89 e5             	mov    %r12,%rbp
    c7e4:	eb 74                	jmp    c85a <__pyx_pw_11arrow_mouse_3speed_function_linear+0x2bf>
    c7e6:	4d 89 f4             	mov    %r14,%r12
    c7e9:	45 31 ed             	xor    %r13d,%r13d
    c7ec:	41 be 28 08 00 00    	mov    $0x828,%r14d
    c7f2:	eb 0c                	jmp    c800 <__pyx_pw_11arrow_mouse_3speed_function_linear+0x265>
    c7f4:	4d 89 f4             	mov    %r14,%r12
    c7f7:	45 31 ed             	xor    %r13d,%r13d
    c7fa:	41 be 2a 08 00 00    	mov    $0x82a,%r14d
    c800:	41 bf 2d 00 00 00    	mov    $0x2d,%r15d
    c806:	eb 27                	jmp    c82f <__pyx_pw_11arrow_mouse_3speed_function_linear+0x294>
    c808:	31 ed                	xor    %ebp,%ebp
    c80a:	41 be 37 08 00 00    	mov    $0x837,%r14d
    c810:	eb 06                	jmp    c818 <__pyx_pw_11arrow_mouse_3speed_function_linear+0x27d>
    c812:	41 be 39 08 00 00    	mov    $0x839,%r14d
    c818:	41 bf 2e 00 00 00    	mov    $0x2e,%r15d
    c81e:	eb 0f                	jmp    c82f <__pyx_pw_11arrow_mouse_3speed_function_linear+0x294>
    c820:	41 be 3b 08 00 00    	mov    $0x83b,%r14d
    c826:	41 bf 2e 00 00 00    	mov    $0x2e,%r15d
    c82c:	45 31 ed             	xor    %r13d,%r13d
    c82f:	48 89 ef             	mov    %rbp,%rdi
    c832:	31 ed                	xor    %ebp,%ebp
    c834:	e8 26 e0 ff ff       	callq  a85f <_Py_XDECREF>
    c839:	4c 89 ef             	mov    %r13,%rdi
    c83c:	e8 1e e0 ff ff       	callq  a85f <_Py_XDECREF>
    c841:	48 8d 0d eb 0d 00 00 	lea    0xdeb(%rip),%rcx        # d633 <_IO_stdin_used+0x633>
    c848:	44 89 fa             	mov    %r15d,%edx
    c84b:	44 89 f6             	mov    %r14d,%esi
    c84e:	48 8d 3d 9c 0e 00 00 	lea    0xe9c(%rip),%rdi        # d6f1 <_IO_stdin_used+0x6f1>
    c855:	e8 25 ee ff ff       	callq  b67f <__Pyx_AddTraceback>
    c85a:	4c 89 e7             	mov    %r12,%rdi
    c85d:	e8 fd df ff ff       	callq  a85f <_Py_XDECREF>
    c862:	eb 54                	jmp    c8b8 <__pyx_pw_11arrow_mouse_3speed_function_linear+0x31d>
    c864:	48 8b 45 08          	mov    0x8(%rbp),%rax
    c868:	f6 80 ab 00 00 00 04 	testb  $0x4,0xab(%rax)
    c86f:	75 18                	jne    c889 <__pyx_pw_11arrow_mouse_3speed_function_linear+0x2ee>
    c871:	48 8d 0d 88 14 00 00 	lea    0x1488(%rip),%rcx        # dd00 <__PRETTY_FUNCTION__.15853>
    c878:	ba fe 07 00 00       	mov    $0x7fe,%edx
    c87d:	e9 62 fe ff ff       	jmpq   c6e4 <__pyx_pw_11arrow_mouse_3speed_function_linear+0x149>
    c882:	be f1 07 00 00       	mov    $0x7f1,%esi
    c887:	eb 15                	jmp    c89e <__pyx_pw_11arrow_mouse_3speed_function_linear+0x303>
    c889:	48 8b 75 10          	mov    0x10(%rbp),%rsi
    c88d:	48 8d 3d 69 0e 00 00 	lea    0xe69(%rip),%rdi        # d6fd <_IO_stdin_used+0x6fd>
    c894:	e8 92 e8 ff ff       	callq  b12b <__Pyx_RaiseArgtupleInvalid.constprop.0>
    c899:	be fe 07 00 00       	mov    $0x7fe,%esi
    c89e:	48 8d 0d 8e 0d 00 00 	lea    0xd8e(%rip),%rcx        # d633 <_IO_stdin_used+0x633>
    c8a5:	ba 2b 00 00 00       	mov    $0x2b,%edx
    c8aa:	48 8d 3d 40 0e 00 00 	lea    0xe40(%rip),%rdi        # d6f1 <_IO_stdin_used+0x6f1>
    c8b1:	31 ed                	xor    %ebp,%ebp
    c8b3:	e8 c7 ed ff ff       	callq  b67f <__Pyx_AddTraceback>
    c8b8:	48 8b 44 24 18       	mov    0x18(%rsp),%rax
    c8bd:	64 48 33 04 25 28 00 	xor    %fs:0x28,%rax
    c8c4:	00 00 
    c8c6:	74 05                	je     c8cd <__pyx_pw_11arrow_mouse_3speed_function_linear+0x332>
    c8c8:	e8 73 81 ff ff       	callq  4a40 <__stack_chk_fail@plt>
    c8cd:	48 83 c4 20          	add    $0x20,%rsp
    c8d1:	48 89 e8             	mov    %rbp,%rax
    c8d4:	5d                   	pop    %rbp
    c8d5:	41 5c                	pop    %r12
    c8d7:	41 5d                	pop    %r13
    c8d9:	41 5e                	pop    %r14
    c8db:	41 5f                	pop    %r15
    c8dd:	c3                   	retq   

000000000000c8de <__pyx_pw_11arrow_mouse_1speed_function_quadric>:
    c8de:	f3 0f 1e fa          	endbr64 
    c8e2:	41 57                	push   %r15
    c8e4:	41 56                	push   %r14
    c8e6:	41 55                	push   %r13
    c8e8:	41 54                	push   %r12
    c8ea:	55                   	push   %rbp
    c8eb:	48 89 f5             	mov    %rsi,%rbp
    c8ee:	48 83 ec 20          	sub    $0x20,%rsp
    c8f2:	64 48 8b 04 25 28 00 	mov    %fs:0x28,%rax
    c8f9:	00 00 
    c8fb:	48 89 44 24 18       	mov    %rax,0x18(%rsp)
    c900:	31 c0                	xor    %eax,%eax
    c902:	48 8b 46 08          	mov    0x8(%rsi),%rax
    c906:	48 c7 44 24 08 00 00 	movq   $0x0,0x8(%rsp)
    c90d:	00 00 
    c90f:	48 c7 44 24 10 00 00 	movq   $0x0,0x10(%rsp)
    c916:	00 00 
    c918:	48 8b 80 a8 00 00 00 	mov    0xa8(%rax),%rax
    c91f:	25 00 00 00 04       	and    $0x4000000,%eax
    c924:	48 85 d2             	test   %rdx,%rdx
    c927:	0f 84 e9 00 00 00    	je     ca16 <__pyx_pw_11arrow_mouse_1speed_function_quadric+0x138>
    c92d:	48 85 c0             	test   %rax,%rax
    c930:	75 11                	jne    c943 <__pyx_pw_11arrow_mouse_1speed_function_quadric+0x65>
    c932:	48 8d 0d 87 13 00 00 	lea    0x1387(%rip),%rcx        # dcc0 <__PRETTY_FUNCTION__.15807>
    c939:	ba 48 07 00 00       	mov    $0x748,%edx
    c93e:	e9 e4 00 00 00       	jmpq   ca27 <__pyx_pw_11arrow_mouse_1speed_function_quadric+0x149>
    c943:	4c 8b 76 10          	mov    0x10(%rsi),%r14
    c947:	49 89 d4             	mov    %rdx,%r12
    c94a:	49 83 fe 01          	cmp    $0x1,%r14
    c94e:	74 1a                	je     c96a <__pyx_pw_11arrow_mouse_1speed_function_quadric+0x8c>
    c950:	49 83 fe 02          	cmp    $0x2,%r14
    c954:	74 0b                	je     c961 <__pyx_pw_11arrow_mouse_1speed_function_quadric+0x83>
    c956:	4d 85 f6             	test   %r14,%r14
    c959:	0f 85 cf 01 00 00    	jne    cb2e <__pyx_pw_11arrow_mouse_1speed_function_quadric+0x250>
    c95f:	eb 12                	jmp    c973 <__pyx_pw_11arrow_mouse_1speed_function_quadric+0x95>
    c961:	48 8b 46 20          	mov    0x20(%rsi),%rax
    c965:	48 89 44 24 10       	mov    %rax,0x10(%rsp)
    c96a:	48 8b 45 18          	mov    0x18(%rbp),%rax
    c96e:	48 89 44 24 08       	mov    %rax,0x8(%rsp)
    c973:	4c 89 e7             	mov    %r12,%rdi
    c976:	e8 a5 7f ff ff       	callq  4920 <PyDict_Size@plt>
    c97b:	49 89 c5             	mov    %rax,%r13
    c97e:	4d 85 f6             	test   %r14,%r14
    c981:	74 08                	je     c98b <__pyx_pw_11arrow_mouse_1speed_function_quadric+0xad>
    c983:	49 83 fe 01          	cmp    $0x1,%r14
    c987:	74 26                	je     c9af <__pyx_pw_11arrow_mouse_1speed_function_quadric+0xd1>
    c989:	eb 5f                	jmp    c9ea <__pyx_pw_11arrow_mouse_1speed_function_quadric+0x10c>
    c98b:	48 8b 35 fe 74 00 00 	mov    0x74fe(%rip),%rsi        # 13e90 <__pyx_n_s_speed>
    c992:	4c 89 e7             	mov    %r12,%rdi
    c995:	49 ff cd             	dec    %r13
    c998:	48 8b 56 18          	mov    0x18(%rsi),%rdx
    c99c:	e8 1f 81 ff ff       	callq  4ac0 <_PyDict_GetItem_KnownHash@plt>
    c9a1:	48 89 44 24 08       	mov    %rax,0x8(%rsp)
    c9a6:	48 85 c0             	test   %rax,%rax
    c9a9:	0f 84 7f 01 00 00    	je     cb2e <__pyx_pw_11arrow_mouse_1speed_function_quadric+0x250>
    c9af:	48 8b 35 ba 74 00 00 	mov    0x74ba(%rip),%rsi        # 13e70 <__pyx_n_s_t>
    c9b6:	4c 89 e7             	mov    %r12,%rdi
    c9b9:	49 ff cd             	dec    %r13
    c9bc:	48 8b 56 18          	mov    0x18(%rsi),%rdx
    c9c0:	e8 fb 80 ff ff       	callq  4ac0 <_PyDict_GetItem_KnownHash@plt>
    c9c5:	48 89 44 24 10       	mov    %rax,0x10(%rsp)
    c9ca:	48 85 c0             	test   %rax,%rax
    c9cd:	75 1b                	jne    c9ea <__pyx_pw_11arrow_mouse_1speed_function_quadric+0x10c>
    c9cf:	be 01 00 00 00       	mov    $0x1,%esi
    c9d4:	48 8d 3d 44 0d 00 00 	lea    0xd44(%rip),%rdi        # d71f <_IO_stdin_used+0x71f>
    c9db:	e8 4b e7 ff ff       	callq  b12b <__Pyx_RaiseArgtupleInvalid.constprop.0>
    c9e0:	be 5a 07 00 00       	mov    $0x75a,%esi
    c9e5:	e9 7e 01 00 00       	jmpq   cb68 <__pyx_pw_11arrow_mouse_1speed_function_quadric+0x28a>
    c9ea:	4d 85 ed             	test   %r13,%r13
    c9ed:	7e 5f                	jle    ca4e <__pyx_pw_11arrow_mouse_1speed_function_quadric+0x170>
    c9ef:	48 8d 54 24 08       	lea    0x8(%rsp),%rdx
    c9f4:	4c 89 f1             	mov    %r14,%rcx
    c9f7:	4c 89 e7             	mov    %r12,%rdi
    c9fa:	4c 8d 05 1e 0d 00 00 	lea    0xd1e(%rip),%r8        # d71f <_IO_stdin_used+0x71f>
    ca01:	48 8d 35 18 46 00 00 	lea    0x4618(%rip),%rsi        # 11020 <__pyx_pyargnames.15803>
    ca08:	e8 81 e3 ff ff       	callq  ad8e <__Pyx_ParseOptionalKeywords.constprop.0>
    ca0d:	85 c0                	test   %eax,%eax
    ca0f:	79 3d                	jns    ca4e <__pyx_pw_11arrow_mouse_1speed_function_quadric+0x170>
    ca11:	e9 36 01 00 00       	jmpq   cb4c <__pyx_pw_11arrow_mouse_1speed_function_quadric+0x26e>
    ca16:	48 85 c0             	test   %rax,%rax
    ca19:	75 1f                	jne    ca3a <__pyx_pw_11arrow_mouse_1speed_function_quadric+0x15c>
    ca1b:	48 8d 0d 9e 12 00 00 	lea    0x129e(%rip),%rcx        # dcc0 <__PRETTY_FUNCTION__.15807>
    ca22:	ba 60 07 00 00       	mov    $0x760,%edx
    ca27:	48 8d 35 d6 05 00 00 	lea    0x5d6(%rip),%rsi        # d004 <_IO_stdin_used+0x4>
    ca2e:	48 8d 3d 55 0c 00 00 	lea    0xc55(%rip),%rdi        # d68a <_IO_stdin_used+0x68a>
    ca35:	e8 b6 7c ff ff       	callq  46f0 <__assert_fail@plt>
    ca3a:	48 83 7e 10 02       	cmpq   $0x2,0x10(%rsi)
    ca3f:	0f 85 e9 00 00 00    	jne    cb2e <__pyx_pw_11arrow_mouse_1speed_function_quadric+0x250>
    ca45:	48 8b 46 18          	mov    0x18(%rsi),%rax
    ca49:	48 89 44 24 08       	mov    %rax,0x8(%rsp)
    ca4e:	4c 8b 74 24 08       	mov    0x8(%rsp),%r14
    ca53:	48 8b 35 b6 73 00 00 	mov    0x73b6(%rip),%rsi        # 13e10 <__pyx_int_1>
    ca5a:	31 d2                	xor    %edx,%edx
    ca5c:	49 ff 06             	incq   (%r14)
    ca5f:	4c 89 f7             	mov    %r14,%rdi
    ca62:	e8 21 e6 ff ff       	callq  b088 <__Pyx_PyInt_AddObjC.isra.0.constprop.0>
    ca67:	49 89 c5             	mov    %rax,%r13
    ca6a:	48 85 c0             	test   %rax,%rax
    ca6d:	74 55                	je     cac4 <__pyx_pw_11arrow_mouse_1speed_function_quadric+0x1e6>
    ca6f:	4c 89 f7             	mov    %r14,%rdi
    ca72:	e8 f8 dc ff ff       	callq  a76f <_Py_DECREF.isra.0>
    ca77:	f2 0f 10 05 f1 16 00 	movsd  0x16f1(%rip),%xmm0        # e170 <__pyx_k_a+0x11>
    ca7e:	00 
    ca7f:	e8 6c 7d ff ff       	callq  47f0 <PyFloat_FromDouble@plt>
    ca84:	48 89 c5             	mov    %rax,%rbp
    ca87:	48 85 c0             	test   %rax,%rax
    ca8a:	74 4e                	je     cada <__pyx_pw_11arrow_mouse_1speed_function_quadric+0x1fc>
    ca8c:	4c 89 ee             	mov    %r13,%rsi
    ca8f:	48 89 c7             	mov    %rax,%rdi
    ca92:	e8 f9 7d ff ff       	callq  4890 <PyNumber_Multiply@plt>
    ca97:	49 89 c4             	mov    %rax,%r12
    ca9a:	48 85 c0             	test   %rax,%rax
    ca9d:	74 46                	je     cae5 <__pyx_pw_11arrow_mouse_1speed_function_quadric+0x207>
    ca9f:	48 89 ef             	mov    %rbp,%rdi
    caa2:	e8 c8 dc ff ff       	callq  a76f <_Py_DECREF.isra.0>
    caa7:	4c 89 ee             	mov    %r13,%rsi
    caaa:	4c 89 e7             	mov    %r12,%rdi
    caad:	e8 de 7d ff ff       	callq  4890 <PyNumber_Multiply@plt>
    cab2:	48 89 c5             	mov    %rax,%rbp
    cab5:	48 85 c0             	test   %rax,%rax
    cab8:	74 33                	je     caed <__pyx_pw_11arrow_mouse_1speed_function_quadric+0x20f>
    caba:	4c 89 e7             	mov    %r12,%rdi
    cabd:	e8 ad dc ff ff       	callq  a76f <_Py_DECREF.isra.0>
    cac2:	eb 60                	jmp    cb24 <__pyx_pw_11arrow_mouse_1speed_function_quadric+0x246>
    cac4:	4d 89 f5             	mov    %r14,%r13
    cac7:	45 31 e4             	xor    %r12d,%r12d
    caca:	31 ed                	xor    %ebp,%ebp
    cacc:	41 be 94 07 00 00    	mov    $0x794,%r14d
    cad2:	41 bf 28 00 00 00    	mov    $0x28,%r15d
    cad8:	eb 1f                	jmp    caf9 <__pyx_pw_11arrow_mouse_1speed_function_quadric+0x21b>
    cada:	45 31 e4             	xor    %r12d,%r12d
    cadd:	41 be a1 07 00 00    	mov    $0x7a1,%r14d
    cae3:	eb 0e                	jmp    caf3 <__pyx_pw_11arrow_mouse_1speed_function_quadric+0x215>
    cae5:	41 be a3 07 00 00    	mov    $0x7a3,%r14d
    caeb:	eb 06                	jmp    caf3 <__pyx_pw_11arrow_mouse_1speed_function_quadric+0x215>
    caed:	41 be a6 07 00 00    	mov    $0x7a6,%r14d
    caf3:	41 bf 29 00 00 00    	mov    $0x29,%r15d
    caf9:	48 89 ef             	mov    %rbp,%rdi
    cafc:	31 ed                	xor    %ebp,%ebp
    cafe:	e8 5c dd ff ff       	callq  a85f <_Py_XDECREF>
    cb03:	4c 89 e7             	mov    %r12,%rdi
    cb06:	e8 54 dd ff ff       	callq  a85f <_Py_XDECREF>
    cb0b:	48 8d 0d 21 0b 00 00 	lea    0xb21(%rip),%rcx        # d633 <_IO_stdin_used+0x633>
    cb12:	44 89 fa             	mov    %r15d,%edx
    cb15:	44 89 f6             	mov    %r14d,%esi
    cb18:	48 8d 3d f4 0b 00 00 	lea    0xbf4(%rip),%rdi        # d713 <_IO_stdin_used+0x713>
    cb1f:	e8 5b eb ff ff       	callq  b67f <__Pyx_AddTraceback>
    cb24:	4c 89 ef             	mov    %r13,%rdi
    cb27:	e8 33 dd ff ff       	callq  a85f <_Py_XDECREF>
    cb2c:	eb 54                	jmp    cb82 <__pyx_pw_11arrow_mouse_1speed_function_quadric+0x2a4>
    cb2e:	48 8b 45 08          	mov    0x8(%rbp),%rax
    cb32:	f6 80 ab 00 00 00 04 	testb  $0x4,0xab(%rax)
    cb39:	75 18                	jne    cb53 <__pyx_pw_11arrow_mouse_1speed_function_quadric+0x275>
    cb3b:	48 8d 0d 7e 11 00 00 	lea    0x117e(%rip),%rcx        # dcc0 <__PRETTY_FUNCTION__.15807>
    cb42:	ba 6b 07 00 00       	mov    $0x76b,%edx
    cb47:	e9 db fe ff ff       	jmpq   ca27 <__pyx_pw_11arrow_mouse_1speed_function_quadric+0x149>
    cb4c:	be 5e 07 00 00       	mov    $0x75e,%esi
    cb51:	eb 15                	jmp    cb68 <__pyx_pw_11arrow_mouse_1speed_function_quadric+0x28a>
    cb53:	48 8b 75 10          	mov    0x10(%rbp),%rsi
    cb57:	48 8d 3d c1 0b 00 00 	lea    0xbc1(%rip),%rdi        # d71f <_IO_stdin_used+0x71f>
    cb5e:	e8 c8 e5 ff ff       	callq  b12b <__Pyx_RaiseArgtupleInvalid.constprop.0>
    cb63:	be 6b 07 00 00       	mov    $0x76b,%esi
    cb68:	48 8d 0d c4 0a 00 00 	lea    0xac4(%rip),%rcx        # d633 <_IO_stdin_used+0x633>
    cb6f:	ba 26 00 00 00       	mov    $0x26,%edx
    cb74:	48 8d 3d 98 0b 00 00 	lea    0xb98(%rip),%rdi        # d713 <_IO_stdin_used+0x713>
    cb7b:	31 ed                	xor    %ebp,%ebp
    cb7d:	e8 fd ea ff ff       	callq  b67f <__Pyx_AddTraceback>
    cb82:	48 8b 44 24 18       	mov    0x18(%rsp),%rax
    cb87:	64 48 33 04 25 28 00 	xor    %fs:0x28,%rax
    cb8e:	00 00 
    cb90:	74 05                	je     cb97 <__pyx_pw_11arrow_mouse_1speed_function_quadric+0x2b9>
    cb92:	e8 a9 7e ff ff       	callq  4a40 <__stack_chk_fail@plt>
    cb97:	48 83 c4 20          	add    $0x20,%rsp
    cb9b:	48 89 e8             	mov    %rbp,%rax
    cb9e:	5d                   	pop    %rbp
    cb9f:	41 5c                	pop    %r12
    cba1:	41 5d                	pop    %r13
    cba3:	41 5e                	pop    %r14
    cba5:	41 5f                	pop    %r15
    cba7:	c3                   	retq   

000000000000cba8 <__pyx_pw_11arrow_mouse_14Time_measuring_7fps>:
    cba8:	f3 0f 1e fa          	endbr64 
    cbac:	41 54                	push   %r12
    cbae:	48 89 f7             	mov    %rsi,%rdi
    cbb1:	55                   	push   %rbp
    cbb2:	48 83 ec 18          	sub    $0x18,%rsp
    cbb6:	48 8b 35 0b 74 00 00 	mov    0x740b(%rip),%rsi        # 13fc8 <__pyx_n_s_delta_ts_ms>
    cbbd:	e8 53 d6 ff ff       	callq  a215 <__Pyx_PyObject_GetAttrStr>
    cbc2:	48 89 c5             	mov    %rax,%rbp
    cbc5:	48 85 c0             	test   %rax,%rax
    cbc8:	74 28                	je     cbf2 <__pyx_pw_11arrow_mouse_14Time_measuring_7fps+0x4a>
    cbca:	48 8b 3d 2f 72 00 00 	mov    0x722f(%rip),%rdi        # 13e00 <__pyx_int_1000>
    cbd1:	48 89 c6             	mov    %rax,%rsi
    cbd4:	e8 c7 7f ff ff       	callq  4ba0 <PyNumber_TrueDivide@plt>
    cbd9:	48 85 c0             	test   %rax,%rax
    cbdc:	48 89 44 24 08       	mov    %rax,0x8(%rsp)
    cbe1:	74 17                	je     cbfa <__pyx_pw_11arrow_mouse_14Time_measuring_7fps+0x52>
    cbe3:	48 89 ef             	mov    %rbp,%rdi
    cbe6:	e8 84 db ff ff       	callq  a76f <_Py_DECREF.isra.0>
    cbeb:	48 8b 44 24 08       	mov    0x8(%rsp),%rax
    cbf0:	eb 3e                	jmp    cc30 <__pyx_pw_11arrow_mouse_14Time_measuring_7fps+0x88>
    cbf2:	41 bc 12 07 00 00    	mov    $0x712,%r12d
    cbf8:	eb 06                	jmp    cc00 <__pyx_pw_11arrow_mouse_14Time_measuring_7fps+0x58>
    cbfa:	41 bc 14 07 00 00    	mov    $0x714,%r12d
    cc00:	48 89 ef             	mov    %rbp,%rdi
    cc03:	e8 57 dc ff ff       	callq  a85f <_Py_XDECREF>
    cc08:	31 ff                	xor    %edi,%edi
    cc0a:	e8 50 dc ff ff       	callq  a85f <_Py_XDECREF>
    cc0f:	48 8d 0d 1d 0a 00 00 	lea    0xa1d(%rip),%rcx        # d633 <_IO_stdin_used+0x633>
    cc16:	44 89 e6             	mov    %r12d,%esi
    cc19:	ba 17 00 00 00       	mov    $0x17,%edx
    cc1e:	48 8d 3d 11 0b 00 00 	lea    0xb11(%rip),%rdi        # d736 <_IO_stdin_used+0x736>
    cc25:	e8 55 ea ff ff       	callq  b67f <__Pyx_AddTraceback>
    cc2a:	31 c0                	xor    %eax,%eax
    cc2c:	f3 0f 1e fa          	endbr64 
    cc30:	48 83 c4 18          	add    $0x18,%rsp
    cc34:	5d                   	pop    %rbp
    cc35:	41 5c                	pop    %r12
    cc37:	c3                   	retq   

000000000000cc38 <__pyx_pw_11arrow_mouse_14Time_measuring_5delta_ts_ms>:
    cc38:	f3 0f 1e fa          	endbr64 
    cc3c:	41 57                	push   %r15
    cc3e:	41 56                	push   %r14
    cc40:	41 55                	push   %r13
    cc42:	41 54                	push   %r12
    cc44:	49 89 f4             	mov    %rsi,%r12
    cc47:	55                   	push   %rbp
    cc48:	4c 89 e7             	mov    %r12,%rdi
    cc4b:	48 83 ec 10          	sub    $0x10,%rsp
    cc4f:	48 8b 35 f2 71 00 00 	mov    0x71f2(%rip),%rsi        # 13e48 <__pyx_n_s_tss_ms>
    cc56:	e8 ba d5 ff ff       	callq  a215 <__Pyx_PyObject_GetAttrStr>
    cc5b:	48 89 c5             	mov    %rax,%rbp
    cc5e:	48 85 c0             	test   %rax,%rax
    cc61:	0f 84 d8 00 00 00    	je     cd3f <__pyx_pw_11arrow_mouse_14Time_measuring_5delta_ts_ms+0x107>
    cc67:	48 89 c7             	mov    %rax,%rdi
    cc6a:	e8 51 7c ff ff       	callq  48c0 <PyObject_Size@plt>
    cc6f:	49 89 c5             	mov    %rax,%r13
    cc72:	48 83 f8 ff          	cmp    $0xffffffffffffffff,%rax
    cc76:	0f 84 d9 00 00 00    	je     cd55 <__pyx_pw_11arrow_mouse_14Time_measuring_5delta_ts_ms+0x11d>
    cc7c:	48 89 ef             	mov    %rbp,%rdi
    cc7f:	e8 eb da ff ff       	callq  a76f <_Py_DECREF.isra.0>
    cc84:	49 ff cd             	dec    %r13
    cc87:	7f 16                	jg     cc9f <__pyx_pw_11arrow_mouse_14Time_measuring_5delta_ts_ms+0x67>
    cc89:	48 8b 2d 88 71 00 00 	mov    0x7188(%rip),%rbp        # 13e18 <__pyx_int_0>
    cc90:	45 31 e4             	xor    %r12d,%r12d
    cc93:	45 31 f6             	xor    %r14d,%r14d
    cc96:	48 ff 45 00          	incq   0x0(%rbp)
    cc9a:	e9 3a 01 00 00       	jmpq   cdd9 <__pyx_pw_11arrow_mouse_14Time_measuring_5delta_ts_ms+0x1a1>
    cc9f:	48 8b 35 a2 71 00 00 	mov    0x71a2(%rip),%rsi        # 13e48 <__pyx_n_s_tss_ms>
    cca6:	4c 89 e7             	mov    %r12,%rdi
    cca9:	e8 67 d5 ff ff       	callq  a215 <__Pyx_PyObject_GetAttrStr>
    ccae:	48 89 c5             	mov    %rax,%rbp
    ccb1:	48 85 c0             	test   %rax,%rax
    ccb4:	0f 84 b1 00 00 00    	je     cd6b <__pyx_pw_11arrow_mouse_14Time_measuring_5delta_ts_ms+0x133>
    ccba:	48 c7 c6 fe ff ff ff 	mov    $0xfffffffffffffffe,%rsi
    ccc1:	48 89 c7             	mov    %rax,%rdi
    ccc4:	e8 98 e4 ff ff       	callq  b161 <__Pyx_GetItemInt_Fast.constprop.0>
    ccc9:	49 89 c6             	mov    %rax,%r14
    cccc:	48 85 c0             	test   %rax,%rax
    cccf:	0f 84 a7 00 00 00    	je     cd7c <__pyx_pw_11arrow_mouse_14Time_measuring_5delta_ts_ms+0x144>
    ccd5:	48 89 ef             	mov    %rbp,%rdi
    ccd8:	e8 92 da ff ff       	callq  a76f <_Py_DECREF.isra.0>
    ccdd:	48 8b 35 64 71 00 00 	mov    0x7164(%rip),%rsi        # 13e48 <__pyx_n_s_tss_ms>
    cce4:	4c 89 e7             	mov    %r12,%rdi
    cce7:	e8 29 d5 ff ff       	callq  a215 <__Pyx_PyObject_GetAttrStr>
    ccec:	49 89 c5             	mov    %rax,%r13
    ccef:	48 85 c0             	test   %rax,%rax
    ccf2:	0f 84 97 00 00 00    	je     cd8f <__pyx_pw_11arrow_mouse_14Time_measuring_5delta_ts_ms+0x157>
    ccf8:	48 83 ce ff          	or     $0xffffffffffffffff,%rsi
    ccfc:	48 89 c7             	mov    %rax,%rdi
    ccff:	e8 5d e4 ff ff       	callq  b161 <__Pyx_GetItemInt_Fast.constprop.0>
    cd04:	49 89 c4             	mov    %rax,%r12
    cd07:	48 85 c0             	test   %rax,%rax
    cd0a:	0f 84 8c 00 00 00    	je     cd9c <__pyx_pw_11arrow_mouse_14Time_measuring_5delta_ts_ms+0x164>
    cd10:	4c 89 ef             	mov    %r13,%rdi
    cd13:	e8 57 da ff ff       	callq  a76f <_Py_DECREF.isra.0>
    cd18:	4c 89 f6             	mov    %r14,%rsi
    cd1b:	4c 89 e7             	mov    %r12,%rdi
    cd1e:	e8 ed 7c ff ff       	callq  4a10 <PyNumber_Subtract@plt>
    cd23:	48 89 c5             	mov    %rax,%rbp
    cd26:	48 85 c0             	test   %rax,%rax
    cd29:	0f 85 aa 00 00 00    	jne    cdd9 <__pyx_pw_11arrow_mouse_14Time_measuring_5delta_ts_ms+0x1a1>
    cd2f:	45 31 ed             	xor    %r13d,%r13d
    cd32:	41 bf ce 06 00 00    	mov    $0x6ce,%r15d
    cd38:	ba 13 00 00 00       	mov    $0x13,%edx
    cd3d:	eb 6a                	jmp    cda9 <__pyx_pw_11arrow_mouse_14Time_measuring_5delta_ts_ms+0x171>
    cd3f:	45 31 ed             	xor    %r13d,%r13d
    cd42:	45 31 e4             	xor    %r12d,%r12d
    cd45:	45 31 f6             	xor    %r14d,%r14d
    cd48:	41 bf 8c 06 00 00    	mov    $0x68c,%r15d
    cd4e:	ba 0f 00 00 00       	mov    $0xf,%edx
    cd53:	eb 54                	jmp    cda9 <__pyx_pw_11arrow_mouse_14Time_measuring_5delta_ts_ms+0x171>
    cd55:	41 bf 8e 06 00 00    	mov    $0x68e,%r15d
    cd5b:	45 31 ed             	xor    %r13d,%r13d
    cd5e:	45 31 e4             	xor    %r12d,%r12d
    cd61:	45 31 f6             	xor    %r14d,%r14d
    cd64:	ba 0f 00 00 00       	mov    $0xf,%edx
    cd69:	eb 3e                	jmp    cda9 <__pyx_pw_11arrow_mouse_14Time_measuring_5delta_ts_ms+0x171>
    cd6b:	45 31 ed             	xor    %r13d,%r13d
    cd6e:	45 31 e4             	xor    %r12d,%r12d
    cd71:	45 31 f6             	xor    %r14d,%r14d
    cd74:	41 bf af 06 00 00    	mov    $0x6af,%r15d
    cd7a:	eb 0c                	jmp    cd88 <__pyx_pw_11arrow_mouse_14Time_measuring_5delta_ts_ms+0x150>
    cd7c:	45 31 ed             	xor    %r13d,%r13d
    cd7f:	45 31 e4             	xor    %r12d,%r12d
    cd82:	41 bf b1 06 00 00    	mov    $0x6b1,%r15d
    cd88:	ba 11 00 00 00       	mov    $0x11,%edx
    cd8d:	eb 1a                	jmp    cda9 <__pyx_pw_11arrow_mouse_14Time_measuring_5delta_ts_ms+0x171>
    cd8f:	31 ed                	xor    %ebp,%ebp
    cd91:	45 31 e4             	xor    %r12d,%r12d
    cd94:	41 bf be 06 00 00    	mov    $0x6be,%r15d
    cd9a:	eb 08                	jmp    cda4 <__pyx_pw_11arrow_mouse_14Time_measuring_5delta_ts_ms+0x16c>
    cd9c:	31 ed                	xor    %ebp,%ebp
    cd9e:	41 bf c0 06 00 00    	mov    $0x6c0,%r15d
    cda4:	ba 12 00 00 00       	mov    $0x12,%edx
    cda9:	48 89 ef             	mov    %rbp,%rdi
    cdac:	89 54 24 0c          	mov    %edx,0xc(%rsp)
    cdb0:	31 ed                	xor    %ebp,%ebp
    cdb2:	e8 a8 da ff ff       	callq  a85f <_Py_XDECREF>
    cdb7:	4c 89 ef             	mov    %r13,%rdi
    cdba:	e8 a0 da ff ff       	callq  a85f <_Py_XDECREF>
    cdbf:	8b 54 24 0c          	mov    0xc(%rsp),%edx
    cdc3:	44 89 fe             	mov    %r15d,%esi
    cdc6:	48 8d 0d 66 08 00 00 	lea    0x866(%rip),%rcx        # d633 <_IO_stdin_used+0x633>
    cdcd:	48 8d 3d 81 09 00 00 	lea    0x981(%rip),%rdi        # d755 <_IO_stdin_used+0x755>
    cdd4:	e8 a6 e8 ff ff       	callq  b67f <__Pyx_AddTraceback>
    cdd9:	4c 89 f7             	mov    %r14,%rdi
    cddc:	e8 7e da ff ff       	callq  a85f <_Py_XDECREF>
    cde1:	4c 89 e7             	mov    %r12,%rdi
    cde4:	e8 76 da ff ff       	callq  a85f <_Py_XDECREF>
    cde9:	48 83 c4 10          	add    $0x10,%rsp
    cded:	48 89 e8             	mov    %rbp,%rax
    cdf0:	5d                   	pop    %rbp
    cdf1:	41 5c                	pop    %r12
    cdf3:	41 5d                	pop    %r13
    cdf5:	41 5e                	pop    %r14
    cdf7:	41 5f                	pop    %r15
    cdf9:	c3                   	retq   

000000000000cdfa <__Pyx_CyFunction_reduce>:
    cdfa:	f3 0f 1e fa          	endbr64 
    cdfe:	48 8b 47 48          	mov    0x48(%rdi),%rax
    ce02:	48 ff 00             	incq   (%rax)
    ce05:	c3                   	retq   

000000000000ce06 <__Pyx_CyFunction_set_annotations>:
    ce06:	f3 0f 1e fa          	endbr64 
    ce0a:	48 8d 05 2f 67 00 00 	lea    0x672f(%rip),%rax        # 13540 <_Py_NoneStruct>
    ce11:	51                   	push   %rcx
    ce12:	48 39 c6             	cmp    %rax,%rsi
    ce15:	74 2f                	je     ce46 <__Pyx_CyFunction_set_annotations+0x40>
    ce17:	48 85 f6             	test   %rsi,%rsi
    ce1a:	74 2a                	je     ce46 <__Pyx_CyFunction_set_annotations+0x40>
    ce1c:	48 8b 46 08          	mov    0x8(%rsi),%rax
    ce20:	f6 80 ab 00 00 00 20 	testb  $0x20,0xab(%rax)
    ce27:	75 18                	jne    ce41 <__Pyx_CyFunction_set_annotations+0x3b>
    ce29:	48 8b 3d b0 57 00 00 	mov    0x57b0(%rip),%rdi        # 125e0 <PyExc_TypeError>
    ce30:	48 8d 35 45 09 00 00 	lea    0x945(%rip),%rsi        # d77c <_IO_stdin_used+0x77c>
    ce37:	e8 54 7d ff ff       	callq  4b90 <PyErr_SetString@plt>
    ce3c:	83 c8 ff             	or     $0xffffffff,%eax
    ce3f:	eb 1f                	jmp    ce60 <__Pyx_CyFunction_set_annotations+0x5a>
    ce41:	48 ff 06             	incq   (%rsi)
    ce44:	eb 02                	jmp    ce48 <__Pyx_CyFunction_set_annotations+0x42>
    ce46:	31 f6                	xor    %esi,%esi
    ce48:	4c 8b 87 b0 00 00 00 	mov    0xb0(%rdi),%r8
    ce4f:	48 89 b7 b0 00 00 00 	mov    %rsi,0xb0(%rdi)
    ce56:	4c 89 c7             	mov    %r8,%rdi
    ce59:	e8 01 da ff ff       	callq  a85f <_Py_XDECREF>
    ce5e:	31 c0                	xor    %eax,%eax
    ce60:	5a                   	pop    %rdx
    ce61:	c3                   	retq   
    ce62:	66 2e 0f 1f 84 00 00 	nopw   %cs:0x0(%rax,%rax,1)
    ce69:	00 00 00 
    ce6c:	0f 1f 40 00          	nopl   0x0(%rax)

000000000000ce70 <__libc_csu_init>:
    ce70:	f3 0f 1e fa          	endbr64 
    ce74:	41 57                	push   %r15
    ce76:	4c 8d 3d 13 3c 00 00 	lea    0x3c13(%rip),%r15        # 10a90 <__frame_dummy_init_array_entry>
    ce7d:	41 56                	push   %r14
    ce7f:	49 89 d6             	mov    %rdx,%r14
    ce82:	41 55                	push   %r13
    ce84:	49 89 f5             	mov    %rsi,%r13
    ce87:	41 54                	push   %r12
    ce89:	41 89 fc             	mov    %edi,%r12d
    ce8c:	55                   	push   %rbp
    ce8d:	48 8d 2d 04 3c 00 00 	lea    0x3c04(%rip),%rbp        # 10a98 <__do_global_dtors_aux_fini_array_entry>
    ce94:	53                   	push   %rbx
    ce95:	4c 29 fd             	sub    %r15,%rbp
    ce98:	48 83 ec 08          	sub    $0x8,%rsp
    ce9c:	e8 5f 71 ff ff       	callq  4000 <_init>
    cea1:	48 c1 fd 03          	sar    $0x3,%rbp
    cea5:	74 1f                	je     cec6 <__libc_csu_init+0x56>
    cea7:	31 db                	xor    %ebx,%ebx
    cea9:	0f 1f 80 00 00 00 00 	nopl   0x0(%rax)
    ceb0:	4c 89 f2             	mov    %r14,%rdx
    ceb3:	4c 89 ee             	mov    %r13,%rsi
    ceb6:	44 89 e7             	mov    %r12d,%edi
    ceb9:	41 ff 14 df          	callq  *(%r15,%rbx,8)
    cebd:	48 83 c3 01          	add    $0x1,%rbx
    cec1:	48 39 dd             	cmp    %rbx,%rbp
    cec4:	75 ea                	jne    ceb0 <__libc_csu_init+0x40>
    cec6:	48 83 c4 08          	add    $0x8,%rsp
    ceca:	5b                   	pop    %rbx
    cecb:	5d                   	pop    %rbp
    cecc:	41 5c                	pop    %r12
    cece:	41 5d                	pop    %r13
    ced0:	41 5e                	pop    %r14
    ced2:	41 5f                	pop    %r15
    ced4:	c3                   	retq   
    ced5:	66 66 2e 0f 1f 84 00 	data16 nopw %cs:0x0(%rax,%rax,1)
    cedc:	00 00 00 00 

000000000000cee0 <__libc_csu_fini>:
    cee0:	f3 0f 1e fa          	endbr64 
    cee4:	c3                   	retq   

Disassembly of section .fini:

000000000000cee8 <_fini>:
    cee8:	f3 0f 1e fa          	endbr64 
    ceec:	48 83 ec 08          	sub    $0x8,%rsp
    cef0:	48 83 c4 08          	add    $0x8,%rsp
    cef4:	c3                   	retq   
