
arrow_mouse:     file format elf64-x86-64


Disassembly of section .init:

0000000000004000 <_init>:
    4000:	f3 0f 1e fa          	endbr64 
    4004:	48 83 ec 08          	sub    $0x8,%rsp
    4008:	48 8b 05 b1 cf 00 00 	mov    0xcfb1(%rip),%rax        # 10fc0 <__gmon_start__>
    400f:	48 85 c0             	test   %rax,%rax
    4012:	74 02                	je     4016 <_init+0x16>
    4014:	ff d0                	callq  *%rax
    4016:	48 83 c4 08          	add    $0x8,%rsp
    401a:	c3                   	retq   

Disassembly of section .plt:

0000000000004020 <.plt>:
    4020:	ff 35 82 cc 00 00    	pushq  0xcc82(%rip)        # 10ca8 <_GLOBAL_OFFSET_TABLE_+0x8>
    4026:	f2 ff 25 83 cc 00 00 	bnd jmpq *0xcc83(%rip)        # 10cb0 <_GLOBAL_OFFSET_TABLE_+0x10>
    402d:	0f 1f 00             	nopl   (%rax)
    4030:	f3 0f 1e fa          	endbr64 
    4034:	68 00 00 00 00       	pushq  $0x0
    4039:	f2 e9 e1 ff ff ff    	bnd jmpq 4020 <.plt>
    403f:	90                   	nop
    4040:	f3 0f 1e fa          	endbr64 
    4044:	68 01 00 00 00       	pushq  $0x1
    4049:	f2 e9 d1 ff ff ff    	bnd jmpq 4020 <.plt>
    404f:	90                   	nop
    4050:	f3 0f 1e fa          	endbr64 
    4054:	68 02 00 00 00       	pushq  $0x2
    4059:	f2 e9 c1 ff ff ff    	bnd jmpq 4020 <.plt>
    405f:	90                   	nop
    4060:	f3 0f 1e fa          	endbr64 
    4064:	68 03 00 00 00       	pushq  $0x3
    4069:	f2 e9 b1 ff ff ff    	bnd jmpq 4020 <.plt>
    406f:	90                   	nop
    4070:	f3 0f 1e fa          	endbr64 
    4074:	68 04 00 00 00       	pushq  $0x4
    4079:	f2 e9 a1 ff ff ff    	bnd jmpq 4020 <.plt>
    407f:	90                   	nop
    4080:	f3 0f 1e fa          	endbr64 
    4084:	68 05 00 00 00       	pushq  $0x5
    4089:	f2 e9 91 ff ff ff    	bnd jmpq 4020 <.plt>
    408f:	90                   	nop
    4090:	f3 0f 1e fa          	endbr64 
    4094:	68 06 00 00 00       	pushq  $0x6
    4099:	f2 e9 81 ff ff ff    	bnd jmpq 4020 <.plt>
    409f:	90                   	nop
    40a0:	f3 0f 1e fa          	endbr64 
    40a4:	68 07 00 00 00       	pushq  $0x7
    40a9:	f2 e9 71 ff ff ff    	bnd jmpq 4020 <.plt>
    40af:	90                   	nop
    40b0:	f3 0f 1e fa          	endbr64 
    40b4:	68 08 00 00 00       	pushq  $0x8
    40b9:	f2 e9 61 ff ff ff    	bnd jmpq 4020 <.plt>
    40bf:	90                   	nop
    40c0:	f3 0f 1e fa          	endbr64 
    40c4:	68 09 00 00 00       	pushq  $0x9
    40c9:	f2 e9 51 ff ff ff    	bnd jmpq 4020 <.plt>
    40cf:	90                   	nop
    40d0:	f3 0f 1e fa          	endbr64 
    40d4:	68 0a 00 00 00       	pushq  $0xa
    40d9:	f2 e9 41 ff ff ff    	bnd jmpq 4020 <.plt>
    40df:	90                   	nop
    40e0:	f3 0f 1e fa          	endbr64 
    40e4:	68 0b 00 00 00       	pushq  $0xb
    40e9:	f2 e9 31 ff ff ff    	bnd jmpq 4020 <.plt>
    40ef:	90                   	nop
    40f0:	f3 0f 1e fa          	endbr64 
    40f4:	68 0c 00 00 00       	pushq  $0xc
    40f9:	f2 e9 21 ff ff ff    	bnd jmpq 4020 <.plt>
    40ff:	90                   	nop
    4100:	f3 0f 1e fa          	endbr64 
    4104:	68 0d 00 00 00       	pushq  $0xd
    4109:	f2 e9 11 ff ff ff    	bnd jmpq 4020 <.plt>
    410f:	90                   	nop
    4110:	f3 0f 1e fa          	endbr64 
    4114:	68 0e 00 00 00       	pushq  $0xe
    4119:	f2 e9 01 ff ff ff    	bnd jmpq 4020 <.plt>
    411f:	90                   	nop
    4120:	f3 0f 1e fa          	endbr64 
    4124:	68 0f 00 00 00       	pushq  $0xf
    4129:	f2 e9 f1 fe ff ff    	bnd jmpq 4020 <.plt>
    412f:	90                   	nop
    4130:	f3 0f 1e fa          	endbr64 
    4134:	68 10 00 00 00       	pushq  $0x10
    4139:	f2 e9 e1 fe ff ff    	bnd jmpq 4020 <.plt>
    413f:	90                   	nop
    4140:	f3 0f 1e fa          	endbr64 
    4144:	68 11 00 00 00       	pushq  $0x11
    4149:	f2 e9 d1 fe ff ff    	bnd jmpq 4020 <.plt>
    414f:	90                   	nop
    4150:	f3 0f 1e fa          	endbr64 
    4154:	68 12 00 00 00       	pushq  $0x12
    4159:	f2 e9 c1 fe ff ff    	bnd jmpq 4020 <.plt>
    415f:	90                   	nop
    4160:	f3 0f 1e fa          	endbr64 
    4164:	68 13 00 00 00       	pushq  $0x13
    4169:	f2 e9 b1 fe ff ff    	bnd jmpq 4020 <.plt>
    416f:	90                   	nop
    4170:	f3 0f 1e fa          	endbr64 
    4174:	68 14 00 00 00       	pushq  $0x14
    4179:	f2 e9 a1 fe ff ff    	bnd jmpq 4020 <.plt>
    417f:	90                   	nop
    4180:	f3 0f 1e fa          	endbr64 
    4184:	68 15 00 00 00       	pushq  $0x15
    4189:	f2 e9 91 fe ff ff    	bnd jmpq 4020 <.plt>
    418f:	90                   	nop
    4190:	f3 0f 1e fa          	endbr64 
    4194:	68 16 00 00 00       	pushq  $0x16
    4199:	f2 e9 81 fe ff ff    	bnd jmpq 4020 <.plt>
    419f:	90                   	nop
    41a0:	f3 0f 1e fa          	endbr64 
    41a4:	68 17 00 00 00       	pushq  $0x17
    41a9:	f2 e9 71 fe ff ff    	bnd jmpq 4020 <.plt>
    41af:	90                   	nop
    41b0:	f3 0f 1e fa          	endbr64 
    41b4:	68 18 00 00 00       	pushq  $0x18
    41b9:	f2 e9 61 fe ff ff    	bnd jmpq 4020 <.plt>
    41bf:	90                   	nop
    41c0:	f3 0f 1e fa          	endbr64 
    41c4:	68 19 00 00 00       	pushq  $0x19
    41c9:	f2 e9 51 fe ff ff    	bnd jmpq 4020 <.plt>
    41cf:	90                   	nop
    41d0:	f3 0f 1e fa          	endbr64 
    41d4:	68 1a 00 00 00       	pushq  $0x1a
    41d9:	f2 e9 41 fe ff ff    	bnd jmpq 4020 <.plt>
    41df:	90                   	nop
    41e0:	f3 0f 1e fa          	endbr64 
    41e4:	68 1b 00 00 00       	pushq  $0x1b
    41e9:	f2 e9 31 fe ff ff    	bnd jmpq 4020 <.plt>
    41ef:	90                   	nop
    41f0:	f3 0f 1e fa          	endbr64 
    41f4:	68 1c 00 00 00       	pushq  $0x1c
    41f9:	f2 e9 21 fe ff ff    	bnd jmpq 4020 <.plt>
    41ff:	90                   	nop
    4200:	f3 0f 1e fa          	endbr64 
    4204:	68 1d 00 00 00       	pushq  $0x1d
    4209:	f2 e9 11 fe ff ff    	bnd jmpq 4020 <.plt>
    420f:	90                   	nop
    4210:	f3 0f 1e fa          	endbr64 
    4214:	68 1e 00 00 00       	pushq  $0x1e
    4219:	f2 e9 01 fe ff ff    	bnd jmpq 4020 <.plt>
    421f:	90                   	nop
    4220:	f3 0f 1e fa          	endbr64 
    4224:	68 1f 00 00 00       	pushq  $0x1f
    4229:	f2 e9 f1 fd ff ff    	bnd jmpq 4020 <.plt>
    422f:	90                   	nop
    4230:	f3 0f 1e fa          	endbr64 
    4234:	68 20 00 00 00       	pushq  $0x20
    4239:	f2 e9 e1 fd ff ff    	bnd jmpq 4020 <.plt>
    423f:	90                   	nop
    4240:	f3 0f 1e fa          	endbr64 
    4244:	68 21 00 00 00       	pushq  $0x21
    4249:	f2 e9 d1 fd ff ff    	bnd jmpq 4020 <.plt>
    424f:	90                   	nop
    4250:	f3 0f 1e fa          	endbr64 
    4254:	68 22 00 00 00       	pushq  $0x22
    4259:	f2 e9 c1 fd ff ff    	bnd jmpq 4020 <.plt>
    425f:	90                   	nop
    4260:	f3 0f 1e fa          	endbr64 
    4264:	68 23 00 00 00       	pushq  $0x23
    4269:	f2 e9 b1 fd ff ff    	bnd jmpq 4020 <.plt>
    426f:	90                   	nop
    4270:	f3 0f 1e fa          	endbr64 
    4274:	68 24 00 00 00       	pushq  $0x24
    4279:	f2 e9 a1 fd ff ff    	bnd jmpq 4020 <.plt>
    427f:	90                   	nop
    4280:	f3 0f 1e fa          	endbr64 
    4284:	68 25 00 00 00       	pushq  $0x25
    4289:	f2 e9 91 fd ff ff    	bnd jmpq 4020 <.plt>
    428f:	90                   	nop
    4290:	f3 0f 1e fa          	endbr64 
    4294:	68 26 00 00 00       	pushq  $0x26
    4299:	f2 e9 81 fd ff ff    	bnd jmpq 4020 <.plt>
    429f:	90                   	nop
    42a0:	f3 0f 1e fa          	endbr64 
    42a4:	68 27 00 00 00       	pushq  $0x27
    42a9:	f2 e9 71 fd ff ff    	bnd jmpq 4020 <.plt>
    42af:	90                   	nop
    42b0:	f3 0f 1e fa          	endbr64 
    42b4:	68 28 00 00 00       	pushq  $0x28
    42b9:	f2 e9 61 fd ff ff    	bnd jmpq 4020 <.plt>
    42bf:	90                   	nop
    42c0:	f3 0f 1e fa          	endbr64 
    42c4:	68 29 00 00 00       	pushq  $0x29
    42c9:	f2 e9 51 fd ff ff    	bnd jmpq 4020 <.plt>
    42cf:	90                   	nop
    42d0:	f3 0f 1e fa          	endbr64 
    42d4:	68 2a 00 00 00       	pushq  $0x2a
    42d9:	f2 e9 41 fd ff ff    	bnd jmpq 4020 <.plt>
    42df:	90                   	nop
    42e0:	f3 0f 1e fa          	endbr64 
    42e4:	68 2b 00 00 00       	pushq  $0x2b
    42e9:	f2 e9 31 fd ff ff    	bnd jmpq 4020 <.plt>
    42ef:	90                   	nop
    42f0:	f3 0f 1e fa          	endbr64 
    42f4:	68 2c 00 00 00       	pushq  $0x2c
    42f9:	f2 e9 21 fd ff ff    	bnd jmpq 4020 <.plt>
    42ff:	90                   	nop
    4300:	f3 0f 1e fa          	endbr64 
    4304:	68 2d 00 00 00       	pushq  $0x2d
    4309:	f2 e9 11 fd ff ff    	bnd jmpq 4020 <.plt>
    430f:	90                   	nop
    4310:	f3 0f 1e fa          	endbr64 
    4314:	68 2e 00 00 00       	pushq  $0x2e
    4319:	f2 e9 01 fd ff ff    	bnd jmpq 4020 <.plt>
    431f:	90                   	nop
    4320:	f3 0f 1e fa          	endbr64 
    4324:	68 2f 00 00 00       	pushq  $0x2f
    4329:	f2 e9 f1 fc ff ff    	bnd jmpq 4020 <.plt>
    432f:	90                   	nop
    4330:	f3 0f 1e fa          	endbr64 
    4334:	68 30 00 00 00       	pushq  $0x30
    4339:	f2 e9 e1 fc ff ff    	bnd jmpq 4020 <.plt>
    433f:	90                   	nop
    4340:	f3 0f 1e fa          	endbr64 
    4344:	68 31 00 00 00       	pushq  $0x31
    4349:	f2 e9 d1 fc ff ff    	bnd jmpq 4020 <.plt>
    434f:	90                   	nop
    4350:	f3 0f 1e fa          	endbr64 
    4354:	68 32 00 00 00       	pushq  $0x32
    4359:	f2 e9 c1 fc ff ff    	bnd jmpq 4020 <.plt>
    435f:	90                   	nop
    4360:	f3 0f 1e fa          	endbr64 
    4364:	68 33 00 00 00       	pushq  $0x33
    4369:	f2 e9 b1 fc ff ff    	bnd jmpq 4020 <.plt>
    436f:	90                   	nop
    4370:	f3 0f 1e fa          	endbr64 
    4374:	68 34 00 00 00       	pushq  $0x34
    4379:	f2 e9 a1 fc ff ff    	bnd jmpq 4020 <.plt>
    437f:	90                   	nop
    4380:	f3 0f 1e fa          	endbr64 
    4384:	68 35 00 00 00       	pushq  $0x35
    4389:	f2 e9 91 fc ff ff    	bnd jmpq 4020 <.plt>
    438f:	90                   	nop
    4390:	f3 0f 1e fa          	endbr64 
    4394:	68 36 00 00 00       	pushq  $0x36
    4399:	f2 e9 81 fc ff ff    	bnd jmpq 4020 <.plt>
    439f:	90                   	nop
    43a0:	f3 0f 1e fa          	endbr64 
    43a4:	68 37 00 00 00       	pushq  $0x37
    43a9:	f2 e9 71 fc ff ff    	bnd jmpq 4020 <.plt>
    43af:	90                   	nop
    43b0:	f3 0f 1e fa          	endbr64 
    43b4:	68 38 00 00 00       	pushq  $0x38
    43b9:	f2 e9 61 fc ff ff    	bnd jmpq 4020 <.plt>
    43bf:	90                   	nop
    43c0:	f3 0f 1e fa          	endbr64 
    43c4:	68 39 00 00 00       	pushq  $0x39
    43c9:	f2 e9 51 fc ff ff    	bnd jmpq 4020 <.plt>
    43cf:	90                   	nop
    43d0:	f3 0f 1e fa          	endbr64 
    43d4:	68 3a 00 00 00       	pushq  $0x3a
    43d9:	f2 e9 41 fc ff ff    	bnd jmpq 4020 <.plt>
    43df:	90                   	nop
    43e0:	f3 0f 1e fa          	endbr64 
    43e4:	68 3b 00 00 00       	pushq  $0x3b
    43e9:	f2 e9 31 fc ff ff    	bnd jmpq 4020 <.plt>
    43ef:	90                   	nop
    43f0:	f3 0f 1e fa          	endbr64 
    43f4:	68 3c 00 00 00       	pushq  $0x3c
    43f9:	f2 e9 21 fc ff ff    	bnd jmpq 4020 <.plt>
    43ff:	90                   	nop
    4400:	f3 0f 1e fa          	endbr64 
    4404:	68 3d 00 00 00       	pushq  $0x3d
    4409:	f2 e9 11 fc ff ff    	bnd jmpq 4020 <.plt>
    440f:	90                   	nop
    4410:	f3 0f 1e fa          	endbr64 
    4414:	68 3e 00 00 00       	pushq  $0x3e
    4419:	f2 e9 01 fc ff ff    	bnd jmpq 4020 <.plt>
    441f:	90                   	nop
    4420:	f3 0f 1e fa          	endbr64 
    4424:	68 3f 00 00 00       	pushq  $0x3f
    4429:	f2 e9 f1 fb ff ff    	bnd jmpq 4020 <.plt>
    442f:	90                   	nop
    4430:	f3 0f 1e fa          	endbr64 
    4434:	68 40 00 00 00       	pushq  $0x40
    4439:	f2 e9 e1 fb ff ff    	bnd jmpq 4020 <.plt>
    443f:	90                   	nop
    4440:	f3 0f 1e fa          	endbr64 
    4444:	68 41 00 00 00       	pushq  $0x41
    4449:	f2 e9 d1 fb ff ff    	bnd jmpq 4020 <.plt>
    444f:	90                   	nop
    4450:	f3 0f 1e fa          	endbr64 
    4454:	68 42 00 00 00       	pushq  $0x42
    4459:	f2 e9 c1 fb ff ff    	bnd jmpq 4020 <.plt>
    445f:	90                   	nop
    4460:	f3 0f 1e fa          	endbr64 
    4464:	68 43 00 00 00       	pushq  $0x43
    4469:	f2 e9 b1 fb ff ff    	bnd jmpq 4020 <.plt>
    446f:	90                   	nop
    4470:	f3 0f 1e fa          	endbr64 
    4474:	68 44 00 00 00       	pushq  $0x44
    4479:	f2 e9 a1 fb ff ff    	bnd jmpq 4020 <.plt>
    447f:	90                   	nop
    4480:	f3 0f 1e fa          	endbr64 
    4484:	68 45 00 00 00       	pushq  $0x45
    4489:	f2 e9 91 fb ff ff    	bnd jmpq 4020 <.plt>
    448f:	90                   	nop
    4490:	f3 0f 1e fa          	endbr64 
    4494:	68 46 00 00 00       	pushq  $0x46
    4499:	f2 e9 81 fb ff ff    	bnd jmpq 4020 <.plt>
    449f:	90                   	nop
    44a0:	f3 0f 1e fa          	endbr64 
    44a4:	68 47 00 00 00       	pushq  $0x47
    44a9:	f2 e9 71 fb ff ff    	bnd jmpq 4020 <.plt>
    44af:	90                   	nop
    44b0:	f3 0f 1e fa          	endbr64 
    44b4:	68 48 00 00 00       	pushq  $0x48
    44b9:	f2 e9 61 fb ff ff    	bnd jmpq 4020 <.plt>
    44bf:	90                   	nop
    44c0:	f3 0f 1e fa          	endbr64 
    44c4:	68 49 00 00 00       	pushq  $0x49
    44c9:	f2 e9 51 fb ff ff    	bnd jmpq 4020 <.plt>
    44cf:	90                   	nop
    44d0:	f3 0f 1e fa          	endbr64 
    44d4:	68 4a 00 00 00       	pushq  $0x4a
    44d9:	f2 e9 41 fb ff ff    	bnd jmpq 4020 <.plt>
    44df:	90                   	nop
    44e0:	f3 0f 1e fa          	endbr64 
    44e4:	68 4b 00 00 00       	pushq  $0x4b
    44e9:	f2 e9 31 fb ff ff    	bnd jmpq 4020 <.plt>
    44ef:	90                   	nop
    44f0:	f3 0f 1e fa          	endbr64 
    44f4:	68 4c 00 00 00       	pushq  $0x4c
    44f9:	f2 e9 21 fb ff ff    	bnd jmpq 4020 <.plt>
    44ff:	90                   	nop
    4500:	f3 0f 1e fa          	endbr64 
    4504:	68 4d 00 00 00       	pushq  $0x4d
    4509:	f2 e9 11 fb ff ff    	bnd jmpq 4020 <.plt>
    450f:	90                   	nop
    4510:	f3 0f 1e fa          	endbr64 
    4514:	68 4e 00 00 00       	pushq  $0x4e
    4519:	f2 e9 01 fb ff ff    	bnd jmpq 4020 <.plt>
    451f:	90                   	nop
    4520:	f3 0f 1e fa          	endbr64 
    4524:	68 4f 00 00 00       	pushq  $0x4f
    4529:	f2 e9 f1 fa ff ff    	bnd jmpq 4020 <.plt>
    452f:	90                   	nop
    4530:	f3 0f 1e fa          	endbr64 
    4534:	68 50 00 00 00       	pushq  $0x50
    4539:	f2 e9 e1 fa ff ff    	bnd jmpq 4020 <.plt>
    453f:	90                   	nop
    4540:	f3 0f 1e fa          	endbr64 
    4544:	68 51 00 00 00       	pushq  $0x51
    4549:	f2 e9 d1 fa ff ff    	bnd jmpq 4020 <.plt>
    454f:	90                   	nop
    4550:	f3 0f 1e fa          	endbr64 
    4554:	68 52 00 00 00       	pushq  $0x52
    4559:	f2 e9 c1 fa ff ff    	bnd jmpq 4020 <.plt>
    455f:	90                   	nop
    4560:	f3 0f 1e fa          	endbr64 
    4564:	68 53 00 00 00       	pushq  $0x53
    4569:	f2 e9 b1 fa ff ff    	bnd jmpq 4020 <.plt>
    456f:	90                   	nop
    4570:	f3 0f 1e fa          	endbr64 
    4574:	68 54 00 00 00       	pushq  $0x54
    4579:	f2 e9 a1 fa ff ff    	bnd jmpq 4020 <.plt>
    457f:	90                   	nop
    4580:	f3 0f 1e fa          	endbr64 
    4584:	68 55 00 00 00       	pushq  $0x55
    4589:	f2 e9 91 fa ff ff    	bnd jmpq 4020 <.plt>
    458f:	90                   	nop
    4590:	f3 0f 1e fa          	endbr64 
    4594:	68 56 00 00 00       	pushq  $0x56
    4599:	f2 e9 81 fa ff ff    	bnd jmpq 4020 <.plt>
    459f:	90                   	nop
    45a0:	f3 0f 1e fa          	endbr64 
    45a4:	68 57 00 00 00       	pushq  $0x57
    45a9:	f2 e9 71 fa ff ff    	bnd jmpq 4020 <.plt>
    45af:	90                   	nop
    45b0:	f3 0f 1e fa          	endbr64 
    45b4:	68 58 00 00 00       	pushq  $0x58
    45b9:	f2 e9 61 fa ff ff    	bnd jmpq 4020 <.plt>
    45bf:	90                   	nop
    45c0:	f3 0f 1e fa          	endbr64 
    45c4:	68 59 00 00 00       	pushq  $0x59
    45c9:	f2 e9 51 fa ff ff    	bnd jmpq 4020 <.plt>
    45cf:	90                   	nop
    45d0:	f3 0f 1e fa          	endbr64 
    45d4:	68 5a 00 00 00       	pushq  $0x5a
    45d9:	f2 e9 41 fa ff ff    	bnd jmpq 4020 <.plt>
    45df:	90                   	nop
    45e0:	f3 0f 1e fa          	endbr64 
    45e4:	68 5b 00 00 00       	pushq  $0x5b
    45e9:	f2 e9 31 fa ff ff    	bnd jmpq 4020 <.plt>
    45ef:	90                   	nop
    45f0:	f3 0f 1e fa          	endbr64 
    45f4:	68 5c 00 00 00       	pushq  $0x5c
    45f9:	f2 e9 21 fa ff ff    	bnd jmpq 4020 <.plt>
    45ff:	90                   	nop
    4600:	f3 0f 1e fa          	endbr64 
    4604:	68 5d 00 00 00       	pushq  $0x5d
    4609:	f2 e9 11 fa ff ff    	bnd jmpq 4020 <.plt>
    460f:	90                   	nop
    4610:	f3 0f 1e fa          	endbr64 
    4614:	68 5e 00 00 00       	pushq  $0x5e
    4619:	f2 e9 01 fa ff ff    	bnd jmpq 4020 <.plt>
    461f:	90                   	nop
    4620:	f3 0f 1e fa          	endbr64 
    4624:	68 5f 00 00 00       	pushq  $0x5f
    4629:	f2 e9 f1 f9 ff ff    	bnd jmpq 4020 <.plt>
    462f:	90                   	nop
    4630:	f3 0f 1e fa          	endbr64 
    4634:	68 60 00 00 00       	pushq  $0x60
    4639:	f2 e9 e1 f9 ff ff    	bnd jmpq 4020 <.plt>
    463f:	90                   	nop

Disassembly of section .plt.got:

0000000000004640 <__cxa_finalize@plt>:
    4640:	f3 0f 1e fa          	endbr64 
    4644:	f2 ff 25 9d c9 00 00 	bnd jmpq *0xc99d(%rip)        # 10fe8 <__cxa_finalize@GLIBC_2.2.5>
    464b:	0f 1f 44 00 00       	nopl   0x0(%rax,%rax,1)

0000000000004650 <PyNumber_Add@plt>:
    4650:	f3 0f 1e fa          	endbr64 
    4654:	f2 ff 25 9d c9 00 00 	bnd jmpq *0xc99d(%rip)        # 10ff8 <PyNumber_Add>
    465b:	0f 1f 44 00 00       	nopl   0x0(%rax,%rax,1)

Disassembly of section .plt.sec:

0000000000004660 <PyInterpreterState_GetID@plt>:
    4660:	f3 0f 1e fa          	endbr64 
    4664:	f2 ff 25 4d c6 00 00 	bnd jmpq *0xc64d(%rip)        # 10cb8 <PyInterpreterState_GetID>
    466b:	0f 1f 44 00 00       	nopl   0x0(%rax,%rax,1)

0000000000004670 <PyDict_SetItemString@plt>:
    4670:	f3 0f 1e fa          	endbr64 
    4674:	f2 ff 25 45 c6 00 00 	bnd jmpq *0xc645(%rip)        # 10cc0 <PyDict_SetItemString>
    467b:	0f 1f 44 00 00       	nopl   0x0(%rax,%rax,1)

0000000000004680 <PyUnicode_Compare@plt>:
    4680:	f3 0f 1e fa          	endbr64 
    4684:	f2 ff 25 3d c6 00 00 	bnd jmpq *0xc63d(%rip)        # 10cc8 <PyUnicode_Compare>
    468b:	0f 1f 44 00 00       	nopl   0x0(%rax,%rax,1)

0000000000004690 <PyFrame_New@plt>:
    4690:	f3 0f 1e fa          	endbr64 
    4694:	f2 ff 25 35 c6 00 00 	bnd jmpq *0xc635(%rip)        # 10cd0 <PyFrame_New>
    469b:	0f 1f 44 00 00       	nopl   0x0(%rax,%rax,1)

00000000000046a0 <PyModule_NewObject@plt>:
    46a0:	f3 0f 1e fa          	endbr64 
    46a4:	f2 ff 25 2d c6 00 00 	bnd jmpq *0xc62d(%rip)        # 10cd8 <PyModule_NewObject>
    46ab:	0f 1f 44 00 00       	nopl   0x0(%rax,%rax,1)

00000000000046b0 <mbrtowc@plt>:
    46b0:	f3 0f 1e fa          	endbr64 
    46b4:	f2 ff 25 25 c6 00 00 	bnd jmpq *0xc625(%rip)        # 10ce0 <mbrtowc@GLIBC_2.2.5>
    46bb:	0f 1f 44 00 00       	nopl   0x0(%rax,%rax,1)

00000000000046c0 <PyModule_ExecDef@plt>:
    46c0:	f3 0f 1e fa          	endbr64 
    46c4:	f2 ff 25 1d c6 00 00 	bnd jmpq *0xc61d(%rip)        # 10ce8 <PyModule_ExecDef>
    46cb:	0f 1f 44 00 00       	nopl   0x0(%rax,%rax,1)

00000000000046d0 <PyType_Ready@plt>:
    46d0:	f3 0f 1e fa          	endbr64 
    46d4:	f2 ff 25 15 c6 00 00 	bnd jmpq *0xc615(%rip)        # 10cf0 <PyType_Ready>
    46db:	0f 1f 44 00 00       	nopl   0x0(%rax,%rax,1)

00000000000046e0 <PySys_SetArgv@plt>:
    46e0:	f3 0f 1e fa          	endbr64 
    46e4:	f2 ff 25 0d c6 00 00 	bnd jmpq *0xc60d(%rip)        # 10cf8 <PySys_SetArgv>
    46eb:	0f 1f 44 00 00       	nopl   0x0(%rax,%rax,1)

00000000000046f0 <__assert_fail@plt>:
    46f0:	f3 0f 1e fa          	endbr64 
    46f4:	f2 ff 25 05 c6 00 00 	bnd jmpq *0xc605(%rip)        # 10d00 <__assert_fail@GLIBC_2.2.5>
    46fb:	0f 1f 44 00 00       	nopl   0x0(%rax,%rax,1)

0000000000004700 <PyUnicode_FromString@plt>:
    4700:	f3 0f 1e fa          	endbr64 
    4704:	f2 ff 25 fd c5 00 00 	bnd jmpq *0xc5fd(%rip)        # 10d08 <PyUnicode_FromString>
    470b:	0f 1f 44 00 00       	nopl   0x0(%rax,%rax,1)

0000000000004710 <PyObject_GC_Del@plt>:
    4710:	f3 0f 1e fa          	endbr64 
    4714:	f2 ff 25 f5 c5 00 00 	bnd jmpq *0xc5f5(%rip)        # 10d10 <PyObject_GC_Del>
    471b:	0f 1f 44 00 00       	nopl   0x0(%rax,%rax,1)

0000000000004720 <PyObject_GC_UnTrack@plt>:
    4720:	f3 0f 1e fa          	endbr64 
    4724:	f2 ff 25 ed c5 00 00 	bnd jmpq *0xc5ed(%rip)        # 10d18 <PyObject_GC_UnTrack>
    472b:	0f 1f 44 00 00       	nopl   0x0(%rax,%rax,1)

0000000000004730 <_PyObject_GetDictPtr@plt>:
    4730:	f3 0f 1e fa          	endbr64 
    4734:	f2 ff 25 e5 c5 00 00 	bnd jmpq *0xc5e5(%rip)        # 10d20 <_PyObject_GetDictPtr>
    473b:	0f 1f 44 00 00       	nopl   0x0(%rax,%rax,1)

0000000000004740 <PyObject_IsTrue@plt>:
    4740:	f3 0f 1e fa          	endbr64 
    4744:	f2 ff 25 dd c5 00 00 	bnd jmpq *0xc5dd(%rip)        # 10d28 <PyObject_IsTrue>
    474b:	0f 1f 44 00 00       	nopl   0x0(%rax,%rax,1)

0000000000004750 <malloc@plt>:
    4750:	f3 0f 1e fa          	endbr64 
    4754:	f2 ff 25 d5 c5 00 00 	bnd jmpq *0xc5d5(%rip)        # 10d30 <malloc@GLIBC_2.2.5>
    475b:	0f 1f 44 00 00       	nopl   0x0(%rax,%rax,1)

0000000000004760 <PyMem_Realloc@plt>:
    4760:	f3 0f 1e fa          	endbr64 
    4764:	f2 ff 25 cd c5 00 00 	bnd jmpq *0xc5cd(%rip)        # 10d38 <PyMem_Realloc>
    476b:	0f 1f 44 00 00       	nopl   0x0(%rax,%rax,1)

0000000000004770 <PyObject_Not@plt>:
    4770:	f3 0f 1e fa          	endbr64 
    4774:	f2 ff 25 c5 c5 00 00 	bnd jmpq *0xc5c5(%rip)        # 10d40 <PyObject_Not>
    477b:	0f 1f 44 00 00       	nopl   0x0(%rax,%rax,1)

0000000000004780 <PyErr_GivenExceptionMatches@plt>:
    4780:	f3 0f 1e fa          	endbr64 
    4784:	f2 ff 25 bd c5 00 00 	bnd jmpq *0xc5bd(%rip)        # 10d48 <PyErr_GivenExceptionMatches>
    478b:	0f 1f 44 00 00       	nopl   0x0(%rax,%rax,1)

0000000000004790 <PyOS_snprintf@plt>:
    4790:	f3 0f 1e fa          	endbr64 
    4794:	f2 ff 25 b5 c5 00 00 	bnd jmpq *0xc5b5(%rip)        # 10d50 <PyOS_snprintf>
    479b:	0f 1f 44 00 00       	nopl   0x0(%rax,%rax,1)

00000000000047a0 <PyObject_GetItem@plt>:
    47a0:	f3 0f 1e fa          	endbr64 
    47a4:	f2 ff 25 ad c5 00 00 	bnd jmpq *0xc5ad(%rip)        # 10d58 <PyObject_GetItem>
    47ab:	0f 1f 44 00 00       	nopl   0x0(%rax,%rax,1)

00000000000047b0 <PyUnicode_FromFormat@plt>:
    47b0:	f3 0f 1e fa          	endbr64 
    47b4:	f2 ff 25 a5 c5 00 00 	bnd jmpq *0xc5a5(%rip)        # 10d60 <PyUnicode_FromFormat>
    47bb:	0f 1f 44 00 00       	nopl   0x0(%rax,%rax,1)

00000000000047c0 <PyDict_Next@plt>:
    47c0:	f3 0f 1e fa          	endbr64 
    47c4:	f2 ff 25 9d c5 00 00 	bnd jmpq *0xc59d(%rip)        # 10d68 <PyDict_Next>
    47cb:	0f 1f 44 00 00       	nopl   0x0(%rax,%rax,1)

00000000000047d0 <PyImport_AddModule@plt>:
    47d0:	f3 0f 1e fa          	endbr64 
    47d4:	f2 ff 25 95 c5 00 00 	bnd jmpq *0xc595(%rip)        # 10d70 <PyImport_AddModule>
    47db:	0f 1f 44 00 00       	nopl   0x0(%rax,%rax,1)

00000000000047e0 <PyErr_Format@plt>:
    47e0:	f3 0f 1e fa          	endbr64 
    47e4:	f2 ff 25 8d c5 00 00 	bnd jmpq *0xc58d(%rip)        # 10d78 <PyErr_Format>
    47eb:	0f 1f 44 00 00       	nopl   0x0(%rax,%rax,1)

00000000000047f0 <PyFloat_FromDouble@plt>:
    47f0:	f3 0f 1e fa          	endbr64 
    47f4:	f2 ff 25 85 c5 00 00 	bnd jmpq *0xc585(%rip)        # 10d80 <PyFloat_FromDouble>
    47fb:	0f 1f 44 00 00       	nopl   0x0(%rax,%rax,1)

0000000000004800 <_PyDict_SetItem_KnownHash@plt>:
    4800:	f3 0f 1e fa          	endbr64 
    4804:	f2 ff 25 7d c5 00 00 	bnd jmpq *0xc57d(%rip)        # 10d88 <_PyDict_SetItem_KnownHash>
    480b:	0f 1f 44 00 00       	nopl   0x0(%rax,%rax,1)

0000000000004810 <PyCode_New@plt>:
    4810:	f3 0f 1e fa          	endbr64 
    4814:	f2 ff 25 75 c5 00 00 	bnd jmpq *0xc575(%rip)        # 10d90 <PyCode_New>
    481b:	0f 1f 44 00 00       	nopl   0x0(%rax,%rax,1)

0000000000004820 <Py_SetProgramName@plt>:
    4820:	f3 0f 1e fa          	endbr64 
    4824:	f2 ff 25 6d c5 00 00 	bnd jmpq *0xc56d(%rip)        # 10d98 <Py_SetProgramName>
    482b:	0f 1f 44 00 00       	nopl   0x0(%rax,%rax,1)

0000000000004830 <PyObject_GetAttr@plt>:
    4830:	f3 0f 1e fa          	endbr64 
    4834:	f2 ff 25 65 c5 00 00 	bnd jmpq *0xc565(%rip)        # 10da0 <PyObject_GetAttr>
    483b:	0f 1f 44 00 00       	nopl   0x0(%rax,%rax,1)

0000000000004840 <PyErr_ExceptionMatches@plt>:
    4840:	f3 0f 1e fa          	endbr64 
    4844:	f2 ff 25 5d c5 00 00 	bnd jmpq *0xc55d(%rip)        # 10da8 <PyErr_ExceptionMatches>
    484b:	0f 1f 44 00 00       	nopl   0x0(%rax,%rax,1)

0000000000004850 <PyErr_Occurred@plt>:
    4850:	f3 0f 1e fa          	endbr64 
    4854:	f2 ff 25 55 c5 00 00 	bnd jmpq *0xc555(%rip)        # 10db0 <PyErr_Occurred>
    485b:	0f 1f 44 00 00       	nopl   0x0(%rax,%rax,1)

0000000000004860 <PyTuple_GetSlice@plt>:
    4860:	f3 0f 1e fa          	endbr64 
    4864:	f2 ff 25 4d c5 00 00 	bnd jmpq *0xc54d(%rip)        # 10db8 <PyTuple_GetSlice>
    486b:	0f 1f 44 00 00       	nopl   0x0(%rax,%rax,1)

0000000000004870 <free@plt>:
    4870:	f3 0f 1e fa          	endbr64 
    4874:	f2 ff 25 45 c5 00 00 	bnd jmpq *0xc545(%rip)        # 10dc0 <free@GLIBC_2.2.5>
    487b:	0f 1f 44 00 00       	nopl   0x0(%rax,%rax,1)

0000000000004880 <Py_FinalizeEx@plt>:
    4880:	f3 0f 1e fa          	endbr64 
    4884:	f2 ff 25 3d c5 00 00 	bnd jmpq *0xc53d(%rip)        # 10dc8 <Py_FinalizeEx>
    488b:	0f 1f 44 00 00       	nopl   0x0(%rax,%rax,1)

0000000000004890 <PyNumber_Multiply@plt>:
    4890:	f3 0f 1e fa          	endbr64 
    4894:	f2 ff 25 35 c5 00 00 	bnd jmpq *0xc535(%rip)        # 10dd0 <PyNumber_Multiply>
    489b:	0f 1f 44 00 00       	nopl   0x0(%rax,%rax,1)

00000000000048a0 <PyEval_EvalCodeEx@plt>:
    48a0:	f3 0f 1e fa          	endbr64 
    48a4:	f2 ff 25 2d c5 00 00 	bnd jmpq *0xc52d(%rip)        # 10dd8 <PyEval_EvalCodeEx>
    48ab:	0f 1f 44 00 00       	nopl   0x0(%rax,%rax,1)

00000000000048b0 <PyUnicode_InternFromString@plt>:
    48b0:	f3 0f 1e fa          	endbr64 
    48b4:	f2 ff 25 25 c5 00 00 	bnd jmpq *0xc525(%rip)        # 10de0 <PyUnicode_InternFromString>
    48bb:	0f 1f 44 00 00       	nopl   0x0(%rax,%rax,1)

00000000000048c0 <PyObject_Size@plt>:
    48c0:	f3 0f 1e fa          	endbr64 
    48c4:	f2 ff 25 1d c5 00 00 	bnd jmpq *0xc51d(%rip)        # 10de8 <PyObject_Size>
    48cb:	0f 1f 44 00 00       	nopl   0x0(%rax,%rax,1)

00000000000048d0 <mbstowcs@plt>:
    48d0:	f3 0f 1e fa          	endbr64 
    48d4:	f2 ff 25 15 c5 00 00 	bnd jmpq *0xc515(%rip)        # 10df0 <mbstowcs@GLIBC_2.2.5>
    48db:	0f 1f 44 00 00       	nopl   0x0(%rax,%rax,1)

00000000000048e0 <_PyObject_GC_New@plt>:
    48e0:	f3 0f 1e fa          	endbr64 
    48e4:	f2 ff 25 0d c5 00 00 	bnd jmpq *0xc50d(%rip)        # 10df8 <_PyObject_GC_New>
    48eb:	0f 1f 44 00 00       	nopl   0x0(%rax,%rax,1)

00000000000048f0 <PyTuple_Pack@plt>:
    48f0:	f3 0f 1e fa          	endbr64 
    48f4:	f2 ff 25 05 c5 00 00 	bnd jmpq *0xc505(%rip)        # 10e00 <PyTuple_Pack>
    48fb:	0f 1f 44 00 00       	nopl   0x0(%rax,%rax,1)

0000000000004900 <PyThreadState_Get@plt>:
    4900:	f3 0f 1e fa          	endbr64 
    4904:	f2 ff 25 fd c4 00 00 	bnd jmpq *0xc4fd(%rip)        # 10e08 <PyThreadState_Get>
    490b:	0f 1f 44 00 00       	nopl   0x0(%rax,%rax,1)

0000000000004910 <PyMem_RawFree@plt>:
    4910:	f3 0f 1e fa          	endbr64 
    4914:	f2 ff 25 f5 c4 00 00 	bnd jmpq *0xc4f5(%rip)        # 10e10 <PyMem_RawFree>
    491b:	0f 1f 44 00 00       	nopl   0x0(%rax,%rax,1)

0000000000004920 <PyDict_Size@plt>:
    4920:	f3 0f 1e fa          	endbr64 
    4924:	f2 ff 25 ed c4 00 00 	bnd jmpq *0xc4ed(%rip)        # 10e18 <PyDict_Size>
    492b:	0f 1f 44 00 00       	nopl   0x0(%rax,%rax,1)

0000000000004930 <PyModule_GetDict@plt>:
    4930:	f3 0f 1e fa          	endbr64 
    4934:	f2 ff 25 e5 c4 00 00 	bnd jmpq *0xc4e5(%rip)        # 10e20 <PyModule_GetDict>
    493b:	0f 1f 44 00 00       	nopl   0x0(%rax,%rax,1)

0000000000004940 <PyImport_ImportModuleLevelObject@plt>:
    4940:	f3 0f 1e fa          	endbr64 
    4944:	f2 ff 25 dd c4 00 00 	bnd jmpq *0xc4dd(%rip)        # 10e28 <PyImport_ImportModuleLevelObject>
    494b:	0f 1f 44 00 00       	nopl   0x0(%rax,%rax,1)

0000000000004950 <PyObject_SetItem@plt>:
    4950:	f3 0f 1e fa          	endbr64 
    4954:	f2 ff 25 d5 c4 00 00 	bnd jmpq *0xc4d5(%rip)        # 10e30 <PyObject_SetItem>
    495b:	0f 1f 44 00 00       	nopl   0x0(%rax,%rax,1)

0000000000004960 <PyObject_RichCompare@plt>:
    4960:	f3 0f 1e fa          	endbr64 
    4964:	f2 ff 25 cd c4 00 00 	bnd jmpq *0xc4cd(%rip)        # 10e38 <PyObject_RichCompare>
    496b:	0f 1f 44 00 00       	nopl   0x0(%rax,%rax,1)

0000000000004970 <PyCFunction_NewEx@plt>:
    4970:	f3 0f 1e fa          	endbr64 
    4974:	f2 ff 25 c5 c4 00 00 	bnd jmpq *0xc4c5(%rip)        # 10e40 <PyCFunction_NewEx>
    497b:	0f 1f 44 00 00       	nopl   0x0(%rax,%rax,1)

0000000000004980 <PyObject_GetIter@plt>:
    4980:	f3 0f 1e fa          	endbr64 
    4984:	f2 ff 25 bd c4 00 00 	bnd jmpq *0xc4bd(%rip)        # 10e48 <PyObject_GetIter>
    498b:	0f 1f 44 00 00       	nopl   0x0(%rax,%rax,1)

0000000000004990 <PyType_IsSubtype@plt>:
    4990:	f3 0f 1e fa          	endbr64 
    4994:	f2 ff 25 b5 c4 00 00 	bnd jmpq *0xc4b5(%rip)        # 10e50 <PyType_IsSubtype>
    499b:	0f 1f 44 00 00       	nopl   0x0(%rax,%rax,1)

00000000000049a0 <fputs@plt>:
    49a0:	f3 0f 1e fa          	endbr64 
    49a4:	f2 ff 25 ad c4 00 00 	bnd jmpq *0xc4ad(%rip)        # 10e58 <fputs@GLIBC_2.2.5>
    49ab:	0f 1f 44 00 00       	nopl   0x0(%rax,%rax,1)

00000000000049b0 <PyUnicode_Decode@plt>:
    49b0:	f3 0f 1e fa          	endbr64 
    49b4:	f2 ff 25 a5 c4 00 00 	bnd jmpq *0xc4a5(%rip)        # 10e60 <PyUnicode_Decode>
    49bb:	0f 1f 44 00 00       	nopl   0x0(%rax,%rax,1)

00000000000049c0 <Py_GetVersion@plt>:
    49c0:	f3 0f 1e fa          	endbr64 
    49c4:	f2 ff 25 9d c4 00 00 	bnd jmpq *0xc49d(%rip)        # 10e68 <Py_GetVersion>
    49cb:	0f 1f 44 00 00       	nopl   0x0(%rax,%rax,1)

00000000000049d0 <PyErr_WarnEx@plt>:
    49d0:	f3 0f 1e fa          	endbr64 
    49d4:	f2 ff 25 95 c4 00 00 	bnd jmpq *0xc495(%rip)        # 10e70 <PyErr_WarnEx>
    49db:	0f 1f 44 00 00       	nopl   0x0(%rax,%rax,1)

00000000000049e0 <Py_Initialize@plt>:
    49e0:	f3 0f 1e fa          	endbr64 
    49e4:	f2 ff 25 8d c4 00 00 	bnd jmpq *0xc48d(%rip)        # 10e78 <Py_Initialize>
    49eb:	0f 1f 44 00 00       	nopl   0x0(%rax,%rax,1)

00000000000049f0 <PyObject_Hash@plt>:
    49f0:	f3 0f 1e fa          	endbr64 
    49f4:	f2 ff 25 85 c4 00 00 	bnd jmpq *0xc485(%rip)        # 10e80 <PyObject_Hash>
    49fb:	0f 1f 44 00 00       	nopl   0x0(%rax,%rax,1)

0000000000004a00 <PyObject_ClearWeakRefs@plt>:
    4a00:	f3 0f 1e fa          	endbr64 
    4a04:	f2 ff 25 7d c4 00 00 	bnd jmpq *0xc47d(%rip)        # 10e88 <PyObject_ClearWeakRefs>
    4a0b:	0f 1f 44 00 00       	nopl   0x0(%rax,%rax,1)

0000000000004a10 <PyNumber_Subtract@plt>:
    4a10:	f3 0f 1e fa          	endbr64 
    4a14:	f2 ff 25 75 c4 00 00 	bnd jmpq *0xc475(%rip)        # 10e90 <PyNumber_Subtract>
    4a1b:	0f 1f 44 00 00       	nopl   0x0(%rax,%rax,1)

0000000000004a20 <PyObject_GetAttrString@plt>:
    4a20:	f3 0f 1e fa          	endbr64 
    4a24:	f2 ff 25 6d c4 00 00 	bnd jmpq *0xc46d(%rip)        # 10e98 <PyObject_GetAttrString>
    4a2b:	0f 1f 44 00 00       	nopl   0x0(%rax,%rax,1)

0000000000004a30 <strdup@plt>:
    4a30:	f3 0f 1e fa          	endbr64 
    4a34:	f2 ff 25 65 c4 00 00 	bnd jmpq *0xc465(%rip)        # 10ea0 <strdup@GLIBC_2.2.5>
    4a3b:	0f 1f 44 00 00       	nopl   0x0(%rax,%rax,1)

0000000000004a40 <__stack_chk_fail@plt>:
    4a40:	f3 0f 1e fa          	endbr64 
    4a44:	f2 ff 25 5d c4 00 00 	bnd jmpq *0xc45d(%rip)        # 10ea8 <__stack_chk_fail@GLIBC_2.4>
    4a4b:	0f 1f 44 00 00       	nopl   0x0(%rax,%rax,1)

0000000000004a50 <PyObject_SetAttrString@plt>:
    4a50:	f3 0f 1e fa          	endbr64 
    4a54:	f2 ff 25 55 c4 00 00 	bnd jmpq *0xc455(%rip)        # 10eb0 <PyObject_SetAttrString>
    4a5b:	0f 1f 44 00 00       	nopl   0x0(%rax,%rax,1)

0000000000004a60 <PyList_Append@plt>:
    4a60:	f3 0f 1e fa          	endbr64 
    4a64:	f2 ff 25 4d c4 00 00 	bnd jmpq *0xc44d(%rip)        # 10eb8 <PyList_Append>
    4a6b:	0f 1f 44 00 00       	nopl   0x0(%rax,%rax,1)

0000000000004a70 <PyObject_SetAttr@plt>:
    4a70:	f3 0f 1e fa          	endbr64 
    4a74:	f2 ff 25 45 c4 00 00 	bnd jmpq *0xc445(%rip)        # 10ec0 <PyObject_SetAttr>
    4a7b:	0f 1f 44 00 00       	nopl   0x0(%rax,%rax,1)

0000000000004a80 <PyBytes_FromStringAndSize@plt>:
    4a80:	f3 0f 1e fa          	endbr64 
    4a84:	f2 ff 25 3d c4 00 00 	bnd jmpq *0xc43d(%rip)        # 10ec8 <PyBytes_FromStringAndSize>
    4a8b:	0f 1f 44 00 00       	nopl   0x0(%rax,%rax,1)

0000000000004a90 <PyDict_GetItemString@plt>:
    4a90:	f3 0f 1e fa          	endbr64 
    4a94:	f2 ff 25 35 c4 00 00 	bnd jmpq *0xc435(%rip)        # 10ed0 <PyDict_GetItemString>
    4a9b:	0f 1f 44 00 00       	nopl   0x0(%rax,%rax,1)

0000000000004aa0 <PyObject_Call@plt>:
    4aa0:	f3 0f 1e fa          	endbr64 
    4aa4:	f2 ff 25 2d c4 00 00 	bnd jmpq *0xc42d(%rip)        # 10ed8 <PyObject_Call>
    4aab:	0f 1f 44 00 00       	nopl   0x0(%rax,%rax,1)

0000000000004ab0 <PyErr_Print@plt>:
    4ab0:	f3 0f 1e fa          	endbr64 
    4ab4:	f2 ff 25 25 c4 00 00 	bnd jmpq *0xc425(%rip)        # 10ee0 <PyErr_Print>
    4abb:	0f 1f 44 00 00       	nopl   0x0(%rax,%rax,1)

0000000000004ac0 <_PyDict_GetItem_KnownHash@plt>:
    4ac0:	f3 0f 1e fa          	endbr64 
    4ac4:	f2 ff 25 1d c4 00 00 	bnd jmpq *0xc41d(%rip)        # 10ee8 <_PyDict_GetItem_KnownHash>
    4acb:	0f 1f 44 00 00       	nopl   0x0(%rax,%rax,1)

0000000000004ad0 <PyLong_FromLong@plt>:
    4ad0:	f3 0f 1e fa          	endbr64 
    4ad4:	f2 ff 25 15 c4 00 00 	bnd jmpq *0xc415(%rip)        # 10ef0 <PyLong_FromLong>
    4adb:	0f 1f 44 00 00       	nopl   0x0(%rax,%rax,1)

0000000000004ae0 <PyTraceBack_Here@plt>:
    4ae0:	f3 0f 1e fa          	endbr64 
    4ae4:	f2 ff 25 0d c4 00 00 	bnd jmpq *0xc40d(%rip)        # 10ef8 <PyTraceBack_Here>
    4aeb:	0f 1f 44 00 00       	nopl   0x0(%rax,%rax,1)

0000000000004af0 <PyMethod_New@plt>:
    4af0:	f3 0f 1e fa          	endbr64 
    4af4:	f2 ff 25 05 c4 00 00 	bnd jmpq *0xc405(%rip)        # 10f00 <PyMethod_New>
    4afb:	0f 1f 44 00 00       	nopl   0x0(%rax,%rax,1)

0000000000004b00 <memcmp@plt>:
    4b00:	f3 0f 1e fa          	endbr64 
    4b04:	f2 ff 25 fd c3 00 00 	bnd jmpq *0xc3fd(%rip)        # 10f08 <memcmp@GLIBC_2.2.5>
    4b0b:	0f 1f 44 00 00       	nopl   0x0(%rax,%rax,1)

0000000000004b10 <_Py_Dealloc@plt>:
    4b10:	f3 0f 1e fa          	endbr64 
    4b14:	f2 ff 25 f5 c3 00 00 	bnd jmpq *0xc3f5(%rip)        # 10f10 <_Py_Dealloc>
    4b1b:	0f 1f 44 00 00       	nopl   0x0(%rax,%rax,1)

0000000000004b20 <PyObject_Free@plt>:
    4b20:	f3 0f 1e fa          	endbr64 
    4b24:	f2 ff 25 ed c3 00 00 	bnd jmpq *0xc3ed(%rip)        # 10f18 <PyObject_Free>
    4b2b:	0f 1f 44 00 00       	nopl   0x0(%rax,%rax,1)

0000000000004b30 <PyErr_Clear@plt>:
    4b30:	f3 0f 1e fa          	endbr64 
    4b34:	f2 ff 25 e5 c3 00 00 	bnd jmpq *0xc3e5(%rip)        # 10f20 <PyErr_Clear>
    4b3b:	0f 1f 44 00 00       	nopl   0x0(%rax,%rax,1)

0000000000004b40 <PyTuple_New@plt>:
    4b40:	f3 0f 1e fa          	endbr64 
    4b44:	f2 ff 25 dd c3 00 00 	bnd jmpq *0xc3dd(%rip)        # 10f28 <PyTuple_New>
    4b4b:	0f 1f 44 00 00       	nopl   0x0(%rax,%rax,1)

0000000000004b50 <_Py_CheckRecursiveCall@plt>:
    4b50:	f3 0f 1e fa          	endbr64 
    4b54:	f2 ff 25 d5 c3 00 00 	bnd jmpq *0xc3d5(%rip)        # 10f30 <_Py_CheckRecursiveCall>
    4b5b:	0f 1f 44 00 00       	nopl   0x0(%rax,%rax,1)

0000000000004b60 <PyImport_GetModuleDict@plt>:
    4b60:	f3 0f 1e fa          	endbr64 
    4b64:	f2 ff 25 cd c3 00 00 	bnd jmpq *0xc3cd(%rip)        # 10f38 <PyImport_GetModuleDict>
    4b6b:	0f 1f 44 00 00       	nopl   0x0(%rax,%rax,1)

0000000000004b70 <PyTuple_GetItem@plt>:
    4b70:	f3 0f 1e fa          	endbr64 
    4b74:	f2 ff 25 c5 c3 00 00 	bnd jmpq *0xc3c5(%rip)        # 10f40 <PyTuple_GetItem>
    4b7b:	0f 1f 44 00 00       	nopl   0x0(%rax,%rax,1)

0000000000004b80 <PyLong_FromSsize_t@plt>:
    4b80:	f3 0f 1e fa          	endbr64 
    4b84:	f2 ff 25 bd c3 00 00 	bnd jmpq *0xc3bd(%rip)        # 10f48 <PyLong_FromSsize_t>
    4b8b:	0f 1f 44 00 00       	nopl   0x0(%rax,%rax,1)

0000000000004b90 <PyErr_SetString@plt>:
    4b90:	f3 0f 1e fa          	endbr64 
    4b94:	f2 ff 25 b5 c3 00 00 	bnd jmpq *0xc3b5(%rip)        # 10f50 <PyErr_SetString>
    4b9b:	0f 1f 44 00 00       	nopl   0x0(%rax,%rax,1)

0000000000004ba0 <PyNumber_TrueDivide@plt>:
    4ba0:	f3 0f 1e fa          	endbr64 
    4ba4:	f2 ff 25 ad c3 00 00 	bnd jmpq *0xc3ad(%rip)        # 10f58 <PyNumber_TrueDivide>
    4bab:	0f 1f 44 00 00       	nopl   0x0(%rax,%rax,1)

0000000000004bb0 <PyModuleDef_Init@plt>:
    4bb0:	f3 0f 1e fa          	endbr64 
    4bb4:	f2 ff 25 a5 c3 00 00 	bnd jmpq *0xc3a5(%rip)        # 10f60 <PyModuleDef_Init>
    4bbb:	0f 1f 44 00 00       	nopl   0x0(%rax,%rax,1)

0000000000004bc0 <_PyThreadState_UncheckedGet@plt>:
    4bc0:	f3 0f 1e fa          	endbr64 
    4bc4:	f2 ff 25 9d c3 00 00 	bnd jmpq *0xc39d(%rip)        # 10f68 <_PyThreadState_UncheckedGet>
    4bcb:	0f 1f 44 00 00       	nopl   0x0(%rax,%rax,1)

0000000000004bd0 <PyEval_EvalFrameEx@plt>:
    4bd0:	f3 0f 1e fa          	endbr64 
    4bd4:	f2 ff 25 95 c3 00 00 	bnd jmpq *0xc395(%rip)        # 10f70 <PyEval_EvalFrameEx>
    4bdb:	0f 1f 44 00 00       	nopl   0x0(%rax,%rax,1)

0000000000004be0 <PyUnicode_FromStringAndSize@plt>:
    4be0:	f3 0f 1e fa          	endbr64 
    4be4:	f2 ff 25 8d c3 00 00 	bnd jmpq *0xc38d(%rip)        # 10f78 <PyUnicode_FromStringAndSize>
    4beb:	0f 1f 44 00 00       	nopl   0x0(%rax,%rax,1)

0000000000004bf0 <setlocale@plt>:
    4bf0:	f3 0f 1e fa          	endbr64 
    4bf4:	f2 ff 25 85 c3 00 00 	bnd jmpq *0xc385(%rip)        # 10f80 <setlocale@GLIBC_2.2.5>
    4bfb:	0f 1f 44 00 00       	nopl   0x0(%rax,%rax,1)

0000000000004c00 <_PyType_Lookup@plt>:
    4c00:	f3 0f 1e fa          	endbr64 
    4c04:	f2 ff 25 7d c3 00 00 	bnd jmpq *0xc37d(%rip)        # 10f88 <_PyType_Lookup>
    4c0b:	0f 1f 44 00 00       	nopl   0x0(%rax,%rax,1)

0000000000004c10 <_PyUnicode_Ready@plt>:
    4c10:	f3 0f 1e fa          	endbr64 
    4c14:	f2 ff 25 75 c3 00 00 	bnd jmpq *0xc375(%rip)        # 10f90 <_PyUnicode_Ready>
    4c1b:	0f 1f 44 00 00       	nopl   0x0(%rax,%rax,1)

0000000000004c20 <PyList_New@plt>:
    4c20:	f3 0f 1e fa          	endbr64 
    4c24:	f2 ff 25 6d c3 00 00 	bnd jmpq *0xc36d(%rip)        # 10f98 <PyList_New>
    4c2b:	0f 1f 44 00 00       	nopl   0x0(%rax,%rax,1)

0000000000004c30 <PyMem_Malloc@plt>:
    4c30:	f3 0f 1e fa          	endbr64 
    4c34:	f2 ff 25 65 c3 00 00 	bnd jmpq *0xc365(%rip)        # 10fa0 <PyMem_Malloc>
    4c3b:	0f 1f 44 00 00       	nopl   0x0(%rax,%rax,1)

0000000000004c40 <PyObject_GC_Track@plt>:
    4c40:	f3 0f 1e fa          	endbr64 
    4c44:	f2 ff 25 5d c3 00 00 	bnd jmpq *0xc35d(%rip)        # 10fa8 <PyObject_GC_Track>
    4c4b:	0f 1f 44 00 00       	nopl   0x0(%rax,%rax,1)

0000000000004c50 <PyDict_SetItem@plt>:
    4c50:	f3 0f 1e fa          	endbr64 
    4c54:	f2 ff 25 55 c3 00 00 	bnd jmpq *0xc355(%rip)        # 10fb0 <PyDict_SetItem>
    4c5b:	0f 1f 44 00 00       	nopl   0x0(%rax,%rax,1)

0000000000004c60 <PyDict_New@plt>:
    4c60:	f3 0f 1e fa          	endbr64 
    4c64:	f2 ff 25 4d c3 00 00 	bnd jmpq *0xc34d(%rip)        # 10fb8 <PyDict_New>
    4c6b:	0f 1f 44 00 00       	nopl   0x0(%rax,%rax,1)

Disassembly of section .text:

0000000000004c70 <__Pyx_RaiseNeedMoreValuesError>:
    4c70:	48 83 ff 01          	cmp    $0x1,%rdi
    4c74:	48 8d 05 d2 8b 00 00 	lea    0x8bd2(%rip),%rax        # d84d <_IO_stdin_used+0x84d>
    4c7b:	48 89 fa             	mov    %rdi,%rdx
    4c7e:	48 8b 3d 9b d7 00 00 	mov    0xd79b(%rip),%rdi        # 12420 <PyExc_ValueError>
    4c85:	48 8d 0d 3e 84 00 00 	lea    0x843e(%rip),%rcx        # d0ca <_IO_stdin_used+0xca>
    4c8c:	48 8d 35 5c 84 00 00 	lea    0x845c(%rip),%rsi        # d0ef <_IO_stdin_used+0xef>
    4c93:	48 0f 45 c8          	cmovne %rax,%rcx
    4c97:	31 c0                	xor    %eax,%eax
    4c99:	e9 42 fb ff ff       	jmpq   47e0 <PyErr_Format@plt>

0000000000004c9e <__Pyx_IterFinish>:
    4c9e:	41 56                	push   %r14
    4ca0:	41 55                	push   %r13
    4ca2:	41 54                	push   %r12
    4ca4:	55                   	push   %rbp
    4ca5:	53                   	push   %rbx
    4ca6:	e8 15 ff ff ff       	callq  4bc0 <_PyThreadState_UncheckedGet@plt>
    4cab:	48 8b 68 58          	mov    0x58(%rax),%rbp
    4caf:	48 89 c3             	mov    %rax,%rbx
    4cb2:	31 c0                	xor    %eax,%eax
    4cb4:	48 85 ed             	test   %rbp,%rbp
    4cb7:	0f 84 03 01 00 00    	je     4dc0 <__Pyx_IterFinish+0x122>
    4cbd:	4c 8b 25 a4 d5 00 00 	mov    0xd5a4(%rip),%r12        # 12268 <PyExc_StopIteration>
    4cc4:	49 39 ec             	cmp    %rbp,%r12
    4cc7:	75 3f                	jne    4d08 <__Pyx_IterFinish+0x6a>
    4cc9:	4c 8b 6b 60          	mov    0x60(%rbx),%r13
    4ccd:	4c 8b 63 68          	mov    0x68(%rbx),%r12
    4cd1:	48 c7 43 58 00 00 00 	movq   $0x0,0x58(%rbx)
    4cd8:	00 
    4cd9:	48 89 ef             	mov    %rbp,%rdi
    4cdc:	48 c7 43 60 00 00 00 	movq   $0x0,0x60(%rbx)
    4ce3:	00 
    4ce4:	48 c7 43 68 00 00 00 	movq   $0x0,0x68(%rbx)
    4ceb:	00 
    4cec:	e8 7e 5a 00 00       	callq  a76f <_Py_DECREF.isra.0>
    4cf1:	4c 89 ef             	mov    %r13,%rdi
    4cf4:	e8 66 5b 00 00       	callq  a85f <_Py_XDECREF>
    4cf9:	4c 89 e7             	mov    %r12,%rdi
    4cfc:	e8 5e 5b 00 00       	callq  a85f <_Py_XDECREF>
    4d01:	31 c0                	xor    %eax,%eax
    4d03:	e9 b8 00 00 00       	jmpq   4dc0 <__Pyx_IterFinish+0x122>
    4d08:	48 8b 45 08          	mov    0x8(%rbp),%rax
    4d0c:	f6 80 ab 00 00 00 80 	testb  $0x80,0xab(%rax)
    4d13:	0f 84 91 00 00 00    	je     4daa <__Pyx_IterFinish+0x10c>
    4d19:	f6 85 ab 00 00 00 40 	testb  $0x40,0xab(%rbp)
    4d20:	0f 84 84 00 00 00    	je     4daa <__Pyx_IterFinish+0x10c>
    4d26:	49 8b 44 24 08       	mov    0x8(%r12),%rax
    4d2b:	48 8b 80 a8 00 00 00 	mov    0xa8(%rax),%rax
    4d32:	0f ba e0 1f          	bt     $0x1f,%eax
    4d36:	73 18                	jae    4d50 <__Pyx_IterFinish+0xb2>
    4d38:	41 f6 84 24 ab 00 00 	testb  $0x40,0xab(%r12)
    4d3f:	00 40 
    4d41:	74 0d                	je     4d50 <__Pyx_IterFinish+0xb2>
    4d43:	4c 89 e6             	mov    %r12,%rsi
    4d46:	48 89 ef             	mov    %rbp,%rdi
    4d49:	e8 c0 57 00 00       	callq  a50e <__Pyx_IsSubtype>
    4d4e:	eb 65                	jmp    4db5 <__Pyx_IterFinish+0x117>
    4d50:	0f ba e0 1a          	bt     $0x1a,%eax
    4d54:	73 54                	jae    4daa <__Pyx_IterFinish+0x10c>
    4d56:	4d 8b 74 24 10       	mov    0x10(%r12),%r14
    4d5b:	31 c0                	xor    %eax,%eax
    4d5d:	49 39 c6             	cmp    %rax,%r14
    4d60:	7e 10                	jle    4d72 <__Pyx_IterFinish+0xd4>
    4d62:	49 3b 6c c4 18       	cmp    0x18(%r12,%rax,8),%rbp
    4d67:	0f 84 5c ff ff ff    	je     4cc9 <__Pyx_IterFinish+0x2b>
    4d6d:	48 ff c0             	inc    %rax
    4d70:	eb eb                	jmp    4d5d <__Pyx_IterFinish+0xbf>
    4d72:	45 31 ed             	xor    %r13d,%r13d
    4d75:	4d 39 ee             	cmp    %r13,%r14
    4d78:	7e 43                	jle    4dbd <__Pyx_IterFinish+0x11f>
    4d7a:	4b 8b 74 ec 18       	mov    0x18(%r12,%r13,8),%rsi
    4d7f:	48 8b 46 08          	mov    0x8(%rsi),%rax
    4d83:	f6 80 ab 00 00 00 80 	testb  $0x80,0xab(%rax)
    4d8a:	74 19                	je     4da5 <__Pyx_IterFinish+0x107>
    4d8c:	f6 86 ab 00 00 00 40 	testb  $0x40,0xab(%rsi)
    4d93:	74 10                	je     4da5 <__Pyx_IterFinish+0x107>
    4d95:	48 89 ef             	mov    %rbp,%rdi
    4d98:	e8 71 57 00 00       	callq  a50e <__Pyx_IsSubtype>
    4d9d:	85 c0                	test   %eax,%eax
    4d9f:	0f 85 24 ff ff ff    	jne    4cc9 <__Pyx_IterFinish+0x2b>
    4da5:	49 ff c5             	inc    %r13
    4da8:	eb cb                	jmp    4d75 <__Pyx_IterFinish+0xd7>
    4daa:	4c 89 e6             	mov    %r12,%rsi
    4dad:	48 89 ef             	mov    %rbp,%rdi
    4db0:	e8 cb f9 ff ff       	callq  4780 <PyErr_GivenExceptionMatches@plt>
    4db5:	85 c0                	test   %eax,%eax
    4db7:	0f 85 0c ff ff ff    	jne    4cc9 <__Pyx_IterFinish+0x2b>
    4dbd:	83 c8 ff             	or     $0xffffffff,%eax
    4dc0:	5b                   	pop    %rbx
    4dc1:	5d                   	pop    %rbp
    4dc2:	41 5c                	pop    %r12
    4dc4:	41 5d                	pop    %r13
    4dc6:	41 5e                	pop    %r14
    4dc8:	c3                   	retq   

0000000000004dc9 <__Pyx_copy_spec_to_module>:
    4dc9:	41 56                	push   %r14
    4dcb:	49 89 ce             	mov    %rcx,%r14
    4dce:	41 55                	push   %r13
    4dd0:	49 89 f5             	mov    %rsi,%r13
    4dd3:	48 89 d6             	mov    %rdx,%rsi
    4dd6:	41 54                	push   %r12
    4dd8:	55                   	push   %rbp
    4dd9:	53                   	push   %rbx
    4dda:	44 89 c3             	mov    %r8d,%ebx
    4ddd:	e8 3e fc ff ff       	callq  4a20 <PyObject_GetAttrString@plt>
    4de2:	48 85 c0             	test   %rax,%rax
    4de5:	74 32                	je     4e19 <__Pyx_copy_spec_to_module+0x50>
    4de7:	48 89 c5             	mov    %rax,%rbp
    4dea:	48 8d 05 4f e7 00 00 	lea    0xe74f(%rip),%rax        # 13540 <_Py_NoneStruct>
    4df1:	48 39 c5             	cmp    %rax,%rbp
    4df4:	75 08                	jne    4dfe <__Pyx_copy_spec_to_module+0x35>
    4df6:	45 31 e4             	xor    %r12d,%r12d
    4df9:	80 e3 01             	and    $0x1,%bl
    4dfc:	74 11                	je     4e0f <__Pyx_copy_spec_to_module+0x46>
    4dfe:	48 89 ea             	mov    %rbp,%rdx
    4e01:	4c 89 f6             	mov    %r14,%rsi
    4e04:	4c 89 ef             	mov    %r13,%rdi
    4e07:	e8 64 f8 ff ff       	callq  4670 <PyDict_SetItemString@plt>
    4e0c:	41 89 c4             	mov    %eax,%r12d
    4e0f:	48 89 ef             	mov    %rbp,%rdi
    4e12:	e8 58 59 00 00       	callq  a76f <_Py_DECREF.isra.0>
    4e17:	eb 1c                	jmp    4e35 <__Pyx_copy_spec_to_module+0x6c>
    4e19:	48 8b 3d 48 e7 00 00 	mov    0xe748(%rip),%rdi        # 13568 <PyExc_AttributeError>
    4e20:	41 83 cc ff          	or     $0xffffffff,%r12d
    4e24:	e8 17 fa ff ff       	callq  4840 <PyErr_ExceptionMatches@plt>
    4e29:	85 c0                	test   %eax,%eax
    4e2b:	74 08                	je     4e35 <__Pyx_copy_spec_to_module+0x6c>
    4e2d:	e8 fe fc ff ff       	callq  4b30 <PyErr_Clear@plt>
    4e32:	45 31 e4             	xor    %r12d,%r12d
    4e35:	5b                   	pop    %rbx
    4e36:	44 89 e0             	mov    %r12d,%eax
    4e39:	5d                   	pop    %rbp
    4e3a:	41 5c                	pop    %r12
    4e3c:	41 5d                	pop    %r13
    4e3e:	41 5e                	pop    %r14
    4e40:	c3                   	retq   

0000000000004e41 <__pyx_pymod_create>:
    4e41:	f3 0f 1e fa          	endbr64 
    4e45:	41 55                	push   %r13
    4e47:	41 54                	push   %r12
    4e49:	55                   	push   %rbp
    4e4a:	48 89 fd             	mov    %rdi,%rbp
    4e4d:	e8 ae fa ff ff       	callq  4900 <PyThreadState_Get@plt>
    4e52:	48 8b 78 10          	mov    0x10(%rax),%rdi
    4e56:	e8 05 f8 ff ff       	callq  4660 <PyInterpreterState_GetID@plt>
    4e5b:	48 8b 15 ae c1 00 00 	mov    0xc1ae(%rip),%rdx        # 11010 <main_interpreter_id.16006>
    4e62:	48 83 fa ff          	cmp    $0xffffffffffffffff,%rdx
    4e66:	75 15                	jne    4e7d <__pyx_pymod_create+0x3c>
    4e68:	48 89 05 a1 c1 00 00 	mov    %rax,0xc1a1(%rip)        # 11010 <main_interpreter_id.16006>
    4e6f:	45 31 e4             	xor    %r12d,%r12d
    4e72:	48 ff c0             	inc    %rax
    4e75:	0f 84 13 01 00 00    	je     4f8e <__pyx_pymod_create+0x14d>
    4e7b:	eb 1d                	jmp    4e9a <__pyx_pymod_create+0x59>
    4e7d:	48 39 d0             	cmp    %rdx,%rax
    4e80:	74 18                	je     4e9a <__pyx_pymod_create+0x59>
    4e82:	48 8b 3d d7 d3 00 00 	mov    0xd3d7(%rip),%rdi        # 12260 <PyExc_ImportError>
    4e89:	48 8d 35 fd 83 00 00 	lea    0x83fd(%rip),%rsi        # d28d <_IO_stdin_used+0x28d>
    4e90:	e8 fb fc ff ff       	callq  4b90 <PyErr_SetString@plt>
    4e95:	e9 f1 00 00 00       	jmpq   4f8b <__pyx_pymod_create+0x14a>
    4e9a:	4c 8b 25 07 f2 00 00 	mov    0xf207(%rip),%r12        # 140a8 <__pyx_m>
    4ea1:	4d 85 e4             	test   %r12,%r12
    4ea4:	74 09                	je     4eaf <__pyx_pymod_create+0x6e>
    4ea6:	49 ff 04 24          	incq   (%r12)
    4eaa:	e9 df 00 00 00       	jmpq   4f8e <__pyx_pymod_create+0x14d>
    4eaf:	48 8d 35 d9 8b 00 00 	lea    0x8bd9(%rip),%rsi        # da8f <_IO_stdin_used+0xa8f>
    4eb6:	48 89 ef             	mov    %rbp,%rdi
    4eb9:	e8 62 fb ff ff       	callq  4a20 <PyObject_GetAttrString@plt>
    4ebe:	49 89 c5             	mov    %rax,%r13
    4ec1:	48 85 c0             	test   %rax,%rax
    4ec4:	75 08                	jne    4ece <__pyx_pymod_create+0x8d>
    4ec6:	45 31 e4             	xor    %r12d,%r12d
    4ec9:	e9 b5 00 00 00       	jmpq   4f83 <__pyx_pymod_create+0x142>
    4ece:	48 89 c7             	mov    %rax,%rdi
    4ed1:	e8 ca f7 ff ff       	callq  46a0 <PyModule_NewObject@plt>
    4ed6:	4c 89 ef             	mov    %r13,%rdi
    4ed9:	49 89 c4             	mov    %rax,%r12
    4edc:	e8 8e 58 00 00       	callq  a76f <_Py_DECREF.isra.0>
    4ee1:	4d 85 e4             	test   %r12,%r12
    4ee4:	74 e0                	je     4ec6 <__pyx_pymod_create+0x85>
    4ee6:	4c 89 e7             	mov    %r12,%rdi
    4ee9:	e8 42 fa ff ff       	callq  4930 <PyModule_GetDict@plt>
    4eee:	49 89 c5             	mov    %rax,%r13
    4ef1:	48 85 c0             	test   %rax,%rax
    4ef4:	0f 84 89 00 00 00    	je     4f83 <__pyx_pymod_create+0x142>
    4efa:	41 b8 01 00 00 00    	mov    $0x1,%r8d
    4f00:	48 8d 0d e5 83 00 00 	lea    0x83e5(%rip),%rcx        # d2ec <_IO_stdin_used+0x2ec>
    4f07:	48 89 c6             	mov    %rax,%rsi
    4f0a:	48 89 ef             	mov    %rbp,%rdi
    4f0d:	48 8d 15 e3 83 00 00 	lea    0x83e3(%rip),%rdx        # d2f7 <_IO_stdin_used+0x2f7>
    4f14:	e8 b0 fe ff ff       	callq  4dc9 <__Pyx_copy_spec_to_module>
    4f19:	85 c0                	test   %eax,%eax
    4f1b:	78 66                	js     4f83 <__pyx_pymod_create+0x142>
    4f1d:	41 b8 01 00 00 00    	mov    $0x1,%r8d
    4f23:	48 8d 0d d4 83 00 00 	lea    0x83d4(%rip),%rcx        # d2fe <_IO_stdin_used+0x2fe>
    4f2a:	4c 89 ee             	mov    %r13,%rsi
    4f2d:	48 89 ef             	mov    %rbp,%rdi
    4f30:	48 8d 15 d0 83 00 00 	lea    0x83d0(%rip),%rdx        # d307 <_IO_stdin_used+0x307>
    4f37:	e8 8d fe ff ff       	callq  4dc9 <__Pyx_copy_spec_to_module>
    4f3c:	85 c0                	test   %eax,%eax
    4f3e:	78 43                	js     4f83 <__pyx_pymod_create+0x142>
    4f40:	41 b8 01 00 00 00    	mov    $0x1,%r8d
    4f46:	48 8d 0d c1 83 00 00 	lea    0x83c1(%rip),%rcx        # d30e <_IO_stdin_used+0x30e>
    4f4d:	4c 89 ee             	mov    %r13,%rsi
    4f50:	48 89 ef             	mov    %rbp,%rdi
    4f53:	48 8d 15 c0 83 00 00 	lea    0x83c0(%rip),%rdx        # d31a <_IO_stdin_used+0x31a>
    4f5a:	e8 6a fe ff ff       	callq  4dc9 <__Pyx_copy_spec_to_module>
    4f5f:	85 c0                	test   %eax,%eax
    4f61:	78 20                	js     4f83 <__pyx_pymod_create+0x142>
    4f63:	45 31 c0             	xor    %r8d,%r8d
    4f66:	48 8d 0d b4 83 00 00 	lea    0x83b4(%rip),%rcx        # d321 <_IO_stdin_used+0x321>
    4f6d:	4c 89 ee             	mov    %r13,%rsi
    4f70:	48 89 ef             	mov    %rbp,%rdi
    4f73:	48 8d 15 b0 83 00 00 	lea    0x83b0(%rip),%rdx        # d32a <_IO_stdin_used+0x32a>
    4f7a:	e8 4a fe ff ff       	callq  4dc9 <__Pyx_copy_spec_to_module>
    4f7f:	85 c0                	test   %eax,%eax
    4f81:	79 0b                	jns    4f8e <__pyx_pymod_create+0x14d>
    4f83:	4c 89 e7             	mov    %r12,%rdi
    4f86:	e8 d4 58 00 00       	callq  a85f <_Py_XDECREF>
    4f8b:	45 31 e4             	xor    %r12d,%r12d
    4f8e:	4c 89 e0             	mov    %r12,%rax
    4f91:	5d                   	pop    %rbp
    4f92:	41 5c                	pop    %r12
    4f94:	41 5d                	pop    %r13
    4f96:	c3                   	retq   

0000000000004f97 <__Pyx_Import.constprop.0>:
    4f97:	41 56                	push   %r14
    4f99:	49 89 fe             	mov    %rdi,%r14
    4f9c:	31 ff                	xor    %edi,%edi
    4f9e:	41 55                	push   %r13
    4fa0:	41 54                	push   %r12
    4fa2:	55                   	push   %rbp
    4fa3:	51                   	push   %rcx
    4fa4:	e8 77 fc ff ff       	callq  4c20 <PyList_New@plt>
    4fa9:	49 89 c5             	mov    %rax,%r13
    4fac:	48 85 c0             	test   %rax,%rax
    4faf:	74 3c                	je     4fed <__Pyx_Import.constprop.0+0x56>
    4fb1:	48 8b 3d f0 f0 00 00 	mov    0xf0f0(%rip),%rdi        # 140a8 <__pyx_m>
    4fb8:	31 ed                	xor    %ebp,%ebp
    4fba:	e8 71 f9 ff ff       	callq  4930 <PyModule_GetDict@plt>
    4fbf:	49 89 c4             	mov    %rax,%r12
    4fc2:	48 85 c0             	test   %rax,%rax
    4fc5:	74 2b                	je     4ff2 <__Pyx_Import.constprop.0+0x5b>
    4fc7:	e8 94 fc ff ff       	callq  4c60 <PyDict_New@plt>
    4fcc:	48 89 c5             	mov    %rax,%rbp
    4fcf:	48 85 c0             	test   %rax,%rax
    4fd2:	74 1b                	je     4fef <__Pyx_Import.constprop.0+0x58>
    4fd4:	4c 89 e6             	mov    %r12,%rsi
    4fd7:	45 31 c0             	xor    %r8d,%r8d
    4fda:	4c 89 e9             	mov    %r13,%rcx
    4fdd:	48 89 c2             	mov    %rax,%rdx
    4fe0:	4c 89 f7             	mov    %r14,%rdi
    4fe3:	e8 58 f9 ff ff       	callq  4940 <PyImport_ImportModuleLevelObject@plt>
    4fe8:	49 89 c4             	mov    %rax,%r12
    4feb:	eb 05                	jmp    4ff2 <__Pyx_Import.constprop.0+0x5b>
    4fed:	31 ed                	xor    %ebp,%ebp
    4fef:	45 31 e4             	xor    %r12d,%r12d
    4ff2:	4c 89 ef             	mov    %r13,%rdi
    4ff5:	e8 65 58 00 00       	callq  a85f <_Py_XDECREF>
    4ffa:	48 89 ef             	mov    %rbp,%rdi
    4ffd:	e8 5d 58 00 00       	callq  a85f <_Py_XDECREF>
    5002:	5a                   	pop    %rdx
    5003:	4c 89 e0             	mov    %r12,%rax
    5006:	5d                   	pop    %rbp
    5007:	41 5c                	pop    %r12
    5009:	41 5d                	pop    %r13
    500b:	41 5e                	pop    %r14
    500d:	c3                   	retq   

000000000000500e <__Pyx_PrintOne.constprop.0>:
    500e:	41 54                	push   %r12
    5010:	48 89 fe             	mov    %rdi,%rsi
    5013:	31 c0                	xor    %eax,%eax
    5015:	bf 01 00 00 00       	mov    $0x1,%edi
    501a:	55                   	push   %rbp
    501b:	41 83 cc ff          	or     $0xffffffff,%r12d
    501f:	51                   	push   %rcx
    5020:	e8 cb f8 ff ff       	callq  48f0 <PyTuple_Pack@plt>
    5025:	48 85 c0             	test   %rax,%rax
    5028:	74 5d                	je     5087 <__Pyx_PrintOne.constprop.0+0x79>
    502a:	48 83 3d 26 f0 00 00 	cmpq   $0x0,0xf026(%rip)        # 14058 <__pyx_print>
    5031:	00 
    5032:	48 89 c5             	mov    %rax,%rbp
    5035:	74 1b                	je     5052 <__Pyx_PrintOne.constprop.0+0x44>
    5037:	48 8b 3d 1a f0 00 00 	mov    0xf01a(%rip),%rdi        # 14058 <__pyx_print>
    503e:	31 d2                	xor    %edx,%edx
    5040:	48 89 ee             	mov    %rbp,%rsi
    5043:	e8 58 fa ff ff       	callq  4aa0 <PyObject_Call@plt>
    5048:	48 89 c7             	mov    %rax,%rdi
    504b:	48 85 c0             	test   %rax,%rax
    504e:	75 27                	jne    5077 <__Pyx_PrintOne.constprop.0+0x69>
    5050:	eb 1f                	jmp    5071 <__Pyx_PrintOne.constprop.0+0x63>
    5052:	48 8b 35 7f ee 00 00 	mov    0xee7f(%rip),%rsi        # 13ed8 <__pyx_n_s_print>
    5059:	48 8b 3d 38 f0 00 00 	mov    0xf038(%rip),%rdi        # 14098 <__pyx_b>
    5060:	e8 cb f7 ff ff       	callq  4830 <PyObject_GetAttr@plt>
    5065:	48 89 05 ec ef 00 00 	mov    %rax,0xefec(%rip)        # 14058 <__pyx_print>
    506c:	48 85 c0             	test   %rax,%rax
    506f:	75 c6                	jne    5037 <__Pyx_PrintOne.constprop.0+0x29>
    5071:	41 83 cc ff          	or     $0xffffffff,%r12d
    5075:	eb 08                	jmp    507f <__Pyx_PrintOne.constprop.0+0x71>
    5077:	e8 f3 56 00 00       	callq  a76f <_Py_DECREF.isra.0>
    507c:	45 31 e4             	xor    %r12d,%r12d
    507f:	48 89 ef             	mov    %rbp,%rdi
    5082:	e8 e8 56 00 00       	callq  a76f <_Py_DECREF.isra.0>
    5087:	44 89 e0             	mov    %r12d,%eax
    508a:	5a                   	pop    %rdx
    508b:	5d                   	pop    %rbp
    508c:	41 5c                	pop    %r12
    508e:	c3                   	retq   

000000000000508f <__Pyx_CyFunction_New.constprop.0>:
    508f:	41 57                	push   %r15
    5091:	49 89 f7             	mov    %rsi,%r15
    5094:	41 56                	push   %r14
    5096:	49 89 fe             	mov    %rdi,%r14
    5099:	41 55                	push   %r13
    509b:	49 89 cd             	mov    %rcx,%r13
    509e:	55                   	push   %rbp
    509f:	48 89 d5             	mov    %rdx,%rbp
    50a2:	53                   	push   %rbx
    50a3:	4c 89 c3             	mov    %r8,%rbx
    50a6:	48 83 ec 10          	sub    $0x10,%rsp
    50aa:	48 8b 3d bf ef 00 00 	mov    0xefbf(%rip),%rdi        # 14070 <__pyx_CyFunctionType>
    50b1:	e8 2a f8 ff ff       	callq  48e0 <_PyObject_GC_New@plt>
    50b6:	48 85 c0             	test   %rax,%rax
    50b9:	0f 84 c5 00 00 00    	je     5184 <__Pyx_CyFunction_New.constprop.0+0xf5>
    50bf:	c7 80 90 00 00 00 00 	movl   $0x0,0x90(%rax)
    50c6:	00 00 00 
    50c9:	48 c7 40 28 00 00 00 	movq   $0x0,0x28(%rax)
    50d0:	00 
    50d1:	4c 89 70 10          	mov    %r14,0x10(%rax)
    50d5:	48 89 40 18          	mov    %rax,0x18(%rax)
    50d9:	48 c7 40 68 00 00 00 	movq   $0x0,0x68(%rax)
    50e0:	00 
    50e1:	48 85 ed             	test   %rbp,%rbp
    50e4:	74 04                	je     50ea <__Pyx_CyFunction_New.constprop.0+0x5b>
    50e6:	48 ff 45 00          	incq   0x0(%rbp)
    50ea:	48 89 68 20          	mov    %rbp,0x20(%rax)
    50ee:	48 c7 40 38 00 00 00 	movq   $0x0,0x38(%rax)
    50f5:	00 
    50f6:	48 c7 40 40 00 00 00 	movq   $0x0,0x40(%rax)
    50fd:	00 
    50fe:	49 ff 07             	incq   (%r15)
    5101:	4c 89 78 48          	mov    %r15,0x48(%rax)
    5105:	48 c7 40 50 00 00 00 	movq   $0x0,0x50(%rax)
    510c:	00 
    510d:	48 c7 40 70 00 00 00 	movq   $0x0,0x70(%rax)
    5114:	00 
    5115:	4c 89 68 58          	mov    %r13,0x58(%rax)
    5119:	49 ff 45 00          	incq   0x0(%r13)
    511d:	48 85 db             	test   %rbx,%rbx
    5120:	74 03                	je     5125 <__Pyx_CyFunction_New.constprop.0+0x96>
    5122:	48 ff 03             	incq   (%rbx)
    5125:	48 89 58 60          	mov    %rbx,0x60(%rax)
    5129:	48 89 c7             	mov    %rax,%rdi
    512c:	c7 80 80 00 00 00 00 	movl   $0x0,0x80(%rax)
    5133:	00 00 00 
    5136:	48 c7 80 88 00 00 00 	movq   $0x0,0x88(%rax)
    513d:	00 00 00 00 
    5141:	48 c7 40 78 00 00 00 	movq   $0x0,0x78(%rax)
    5148:	00 
    5149:	48 c7 80 98 00 00 00 	movq   $0x0,0x98(%rax)
    5150:	00 00 00 00 
    5154:	48 c7 80 a0 00 00 00 	movq   $0x0,0xa0(%rax)
    515b:	00 00 00 00 
    515f:	48 c7 80 a8 00 00 00 	movq   $0x0,0xa8(%rax)
    5166:	00 00 00 00 
    516a:	48 c7 80 b0 00 00 00 	movq   $0x0,0xb0(%rax)
    5171:	00 00 00 00 
    5175:	48 89 44 24 08       	mov    %rax,0x8(%rsp)
    517a:	e8 c1 fa ff ff       	callq  4c40 <PyObject_GC_Track@plt>
    517f:	48 8b 44 24 08       	mov    0x8(%rsp),%rax
    5184:	48 83 c4 10          	add    $0x10,%rsp
    5188:	5b                   	pop    %rbx
    5189:	5d                   	pop    %rbp
    518a:	41 5d                	pop    %r13
    518c:	41 5e                	pop    %r14
    518e:	41 5f                	pop    %r15
    5190:	c3                   	retq   

0000000000005191 <__pyx_pymod_exec_arrow_mouse>:
    5191:	f3 0f 1e fa          	endbr64 
    5195:	41 57                	push   %r15
    5197:	41 56                	push   %r14
    5199:	49 89 fe             	mov    %rdi,%r14
    519c:	41 55                	push   %r13
    519e:	41 54                	push   %r12
    51a0:	55                   	push   %rbp
    51a1:	53                   	push   %rbx
    51a2:	48 81 ec 08 01 00 00 	sub    $0x108,%rsp
    51a9:	48 8b 2d f8 ee 00 00 	mov    0xeef8(%rip),%rbp        # 140a8 <__pyx_m>
    51b0:	64 48 8b 04 25 28 00 	mov    %fs:0x28,%rax
    51b7:	00 00 
    51b9:	48 89 84 24 f8 00 00 	mov    %rax,0xf8(%rsp)
    51c0:	00 
    51c1:	31 c0                	xor    %eax,%eax
    51c3:	48 85 ed             	test   %rbp,%rbp
    51c6:	74 24                	je     51ec <__pyx_pymod_exec_arrow_mouse+0x5b>
    51c8:	48 39 fd             	cmp    %rdi,%rbp
    51cb:	0f 84 80 48 00 00    	je     9a51 <__pyx_pymod_exec_arrow_mouse+0x48c0>
    51d1:	48 8b 3d 68 de 00 00 	mov    0xde68(%rip),%rdi        # 13040 <PyExc_RuntimeError>
    51d8:	48 8d 35 ca 85 00 00 	lea    0x85ca(%rip),%rsi        # d7a9 <_IO_stdin_used+0x7a9>
    51df:	e8 ac f9 ff ff       	callq  4b90 <PyErr_SetString@plt>
    51e4:	83 c8 ff             	or     $0xffffffff,%eax
    51e7:	e9 65 48 00 00       	jmpq   9a51 <__pyx_pymod_exec_arrow_mouse+0x48c0>
    51ec:	4c 8d 6c 24 28       	lea    0x28(%rsp),%r13
    51f1:	41 b8 08 00 00 00    	mov    $0x8,%r8d
    51f7:	31 c0                	xor    %eax,%eax
    51f9:	b9 03 00 00 00       	mov    $0x3,%ecx
    51fe:	48 8d 15 f8 85 00 00 	lea    0x85f8(%rip),%rdx        # d7fd <_IO_stdin_used+0x7fd>
    5205:	be 04 00 00 00       	mov    $0x4,%esi
    520a:	4c 89 ef             	mov    %r13,%rdi
    520d:	e8 7e f5 ff ff       	callq  4790 <PyOS_snprintf@plt>
    5212:	e8 a9 f7 ff ff       	callq  49c0 <Py_GetVersion@plt>
    5217:	4c 8d 4c 24 2c       	lea    0x2c(%rsp),%r9
    521c:	be 04 00 00 00       	mov    $0x4,%esi
    5221:	48 8d 15 24 86 00 00 	lea    0x8624(%rip),%rdx        # d84c <_IO_stdin_used+0x84c>
    5228:	48 89 c1             	mov    %rax,%rcx
    522b:	4c 89 cf             	mov    %r9,%rdi
    522e:	31 c0                	xor    %eax,%eax
    5230:	4c 89 0c 24          	mov    %r9,(%rsp)
    5234:	e8 57 f5 ff ff       	callq  4790 <PyOS_snprintf@plt>
    5239:	8a 44 24 2c          	mov    0x2c(%rsp),%al
    523d:	38 44 24 28          	cmp    %al,0x28(%rsp)
    5241:	4c 8b 0c 24          	mov    (%rsp),%r9
    5245:	75 0a                	jne    5251 <__pyx_pymod_exec_arrow_mouse+0xc0>
    5247:	8a 44 24 2e          	mov    0x2e(%rsp),%al
    524b:	38 44 24 2a          	cmp    %al,0x2a(%rsp)
    524f:	74 3c                	je     528d <__pyx_pymod_exec_arrow_mouse+0xfc>
    5251:	4c 8d 64 24 30       	lea    0x30(%rsp),%r12
    5256:	be c8 00 00 00       	mov    $0xc8,%esi
    525b:	31 c0                	xor    %eax,%eax
    525d:	4c 89 e9             	mov    %r13,%rcx
    5260:	48 8d 15 9c 85 00 00 	lea    0x859c(%rip),%rdx        # d803 <_IO_stdin_used+0x803>
    5267:	4c 89 e7             	mov    %r12,%rdi
    526a:	4c 8d 05 94 87 00 00 	lea    0x8794(%rip),%r8        # da05 <_IO_stdin_used+0xa05>
    5271:	e8 1a f5 ff ff       	callq  4790 <PyOS_snprintf@plt>
    5276:	31 ff                	xor    %edi,%edi
    5278:	ba 01 00 00 00       	mov    $0x1,%edx
    527d:	4c 89 e6             	mov    %r12,%rsi
    5280:	e8 4b f7 ff ff       	callq  49d0 <PyErr_WarnEx@plt>
    5285:	85 c0                	test   %eax,%eax
    5287:	0f 88 a2 02 00 00    	js     552f <__pyx_pymod_exec_arrow_mouse+0x39e>
    528d:	48 8b 05 0c d0 00 00 	mov    0xd00c(%rip),%rax        # 122a0 <PyFrame_Type+0x20>
    5294:	31 ff                	xor    %edi,%edi
    5296:	48 83 e8 08          	sub    $0x8,%rax
    529a:	48 89 05 d7 ed 00 00 	mov    %rax,0xedd7(%rip)        # 14078 <__pyx_pyframe_localsplus_offset>
    52a1:	e8 9a f8 ff ff       	callq  4b40 <PyTuple_New@plt>
    52a6:	48 89 05 db ed 00 00 	mov    %rax,0xeddb(%rip)        # 14088 <__pyx_empty_tuple>
    52ad:	49 89 c4             	mov    %rax,%r12
    52b0:	48 85 c0             	test   %rax,%rax
    52b3:	0f 84 94 02 00 00    	je     554d <__pyx_pymod_exec_arrow_mouse+0x3bc>
    52b9:	31 f6                	xor    %esi,%esi
    52bb:	48 8d 3d 08 7e 00 00 	lea    0x7e08(%rip),%rdi        # d0ca <_IO_stdin_used+0xca>
    52c2:	e8 b9 f7 ff ff       	callq  4a80 <PyBytes_FromStringAndSize@plt>
    52c7:	48 89 05 b2 ed 00 00 	mov    %rax,0xedb2(%rip)        # 14080 <__pyx_empty_bytes>
    52ce:	49 89 c4             	mov    %rax,%r12
    52d1:	48 85 c0             	test   %rax,%rax
    52d4:	0f 84 90 02 00 00    	je     556a <__pyx_pymod_exec_arrow_mouse+0x3d9>
    52da:	31 f6                	xor    %esi,%esi
    52dc:	48 8d 3d e7 7d 00 00 	lea    0x7de7(%rip),%rdi        # d0ca <_IO_stdin_used+0xca>
    52e3:	e8 f8 f8 ff ff       	callq  4be0 <PyUnicode_FromStringAndSize@plt>
    52e8:	49 89 c4             	mov    %rax,%r12
    52eb:	48 85 c0             	test   %rax,%rax
    52ee:	0f 84 93 02 00 00    	je     5587 <__pyx_pymod_exec_arrow_mouse+0x3f6>
    52f4:	48 8d 3d 54 85 00 00 	lea    0x8554(%rip),%rdi        # d84f <_IO_stdin_used+0x84f>
    52fb:	e8 d0 f4 ff ff       	callq  47d0 <PyImport_AddModule@plt>
    5300:	49 89 c5             	mov    %rax,%r13
    5303:	48 85 c0             	test   %rax,%rax
    5306:	0f 84 d4 00 00 00    	je     53e0 <__pyx_pymod_exec_arrow_mouse+0x24f>
    530c:	48 ff 00             	incq   (%rax)
    530f:	48 8b 35 82 bd 00 00 	mov    0xbd82(%rip),%rsi        # 11098 <__pyx_CyFunctionType_type+0x18>
    5316:	48 89 c7             	mov    %rax,%rdi
    5319:	e8 02 f7 ff ff       	callq  4a20 <PyObject_GetAttrString@plt>
    531e:	49 89 c4             	mov    %rax,%r12
    5321:	48 85 c0             	test   %rax,%rax
    5324:	74 47                	je     536d <__pyx_pymod_exec_arrow_mouse+0x1dc>
    5326:	48 8b 40 08          	mov    0x8(%rax),%rax
    532a:	48 8b 15 67 bd 00 00 	mov    0xbd67(%rip),%rdx        # 11098 <__pyx_CyFunctionType_type+0x18>
    5331:	48 8d 35 27 85 00 00 	lea    0x8527(%rip),%rsi        # d85f <_IO_stdin_used+0x85f>
    5338:	f6 80 ab 00 00 00 80 	testb  $0x80,0xab(%rax)
    533f:	74 1c                	je     535d <__pyx_pymod_exec_arrow_mouse+0x1cc>
    5341:	48 8b 05 58 bd 00 00 	mov    0xbd58(%rip),%rax        # 110a0 <__pyx_CyFunctionType_type+0x20>
    5348:	49 39 44 24 20       	cmp    %rax,0x20(%r12)
    534d:	74 6b                	je     53ba <__pyx_pymod_exec_arrow_mouse+0x229>
    534f:	48 8b 15 42 bd 00 00 	mov    0xbd42(%rip),%rdx        # 11098 <__pyx_CyFunctionType_type+0x18>
    5356:	48 8d 35 31 85 00 00 	lea    0x8531(%rip),%rsi        # d88e <_IO_stdin_used+0x88e>
    535d:	48 8b 3d 7c d2 00 00 	mov    0xd27c(%rip),%rdi        # 125e0 <PyExc_TypeError>
    5364:	31 c0                	xor    %eax,%eax
    5366:	e8 75 f4 ff ff       	callq  47e0 <PyErr_Format@plt>
    536b:	eb 66                	jmp    53d3 <__pyx_pymod_exec_arrow_mouse+0x242>
    536d:	48 8b 3d f4 e1 00 00 	mov    0xe1f4(%rip),%rdi        # 13568 <PyExc_AttributeError>
    5374:	e8 c7 f4 ff ff       	callq  4840 <PyErr_ExceptionMatches@plt>
    5379:	85 c0                	test   %eax,%eax
    537b:	74 56                	je     53d3 <__pyx_pymod_exec_arrow_mouse+0x242>
    537d:	e8 ae f7 ff ff       	callq  4b30 <PyErr_Clear@plt>
    5382:	48 8d 3d f7 bc 00 00 	lea    0xbcf7(%rip),%rdi        # 11080 <__pyx_CyFunctionType_type>
    5389:	e8 42 f3 ff ff       	callq  46d0 <PyType_Ready@plt>
    538e:	85 c0                	test   %eax,%eax
    5390:	78 41                	js     53d3 <__pyx_pymod_exec_arrow_mouse+0x242>
    5392:	48 8b 35 ff bc 00 00 	mov    0xbcff(%rip),%rsi        # 11098 <__pyx_CyFunctionType_type+0x18>
    5399:	48 8d 15 e0 bc 00 00 	lea    0xbce0(%rip),%rdx        # 11080 <__pyx_CyFunctionType_type>
    53a0:	4c 89 ef             	mov    %r13,%rdi
    53a3:	e8 a8 f6 ff ff       	callq  4a50 <PyObject_SetAttrString@plt>
    53a8:	85 c0                	test   %eax,%eax
    53aa:	78 27                	js     53d3 <__pyx_pymod_exec_arrow_mouse+0x242>
    53ac:	48 ff 05 cd bc 00 00 	incq   0xbccd(%rip)        # 11080 <__pyx_CyFunctionType_type>
    53b3:	4c 8d 25 c6 bc 00 00 	lea    0xbcc6(%rip),%r12        # 11080 <__pyx_CyFunctionType_type>
    53ba:	4c 89 ef             	mov    %r13,%rdi
    53bd:	e8 ad 53 00 00       	callq  a76f <_Py_DECREF.isra.0>
    53c2:	4c 89 25 a7 ec 00 00 	mov    %r12,0xeca7(%rip)        # 14070 <__pyx_CyFunctionType>
    53c9:	4d 85 e4             	test   %r12,%r12
    53cc:	75 3a                	jne    5408 <__pyx_pymod_exec_arrow_mouse+0x277>
    53ce:	e9 d1 01 00 00       	jmpq   55a4 <__pyx_pymod_exec_arrow_mouse+0x413>
    53d3:	4c 89 e7             	mov    %r12,%rdi
    53d6:	45 31 e4             	xor    %r12d,%r12d
    53d9:	e8 81 54 00 00       	callq  a85f <_Py_XDECREF>
    53de:	eb da                	jmp    53ba <__pyx_pymod_exec_arrow_mouse+0x229>
    53e0:	31 db                	xor    %ebx,%ebx
    53e2:	45 31 f6             	xor    %r14d,%r14d
    53e5:	45 31 c9             	xor    %r9d,%r9d
    53e8:	45 31 e4             	xor    %r12d,%r12d
    53eb:	31 ed                	xor    %ebp,%ebp
    53ed:	41 bf 11 0b 00 00    	mov    $0xb11,%r15d
    53f3:	ba 01 00 00 00       	mov    $0x1,%edx
    53f8:	48 c7 05 6d ec 00 00 	movq   $0x0,0xec6d(%rip)        # 14070 <__pyx_CyFunctionType>
    53ff:	00 00 00 00 
    5403:	e9 3f 03 00 00       	jmpq   5747 <__pyx_pymod_exec_arrow_mouse+0x5b6>
    5408:	49 ff 06             	incq   (%r14)
    540b:	4c 89 f7             	mov    %r14,%rdi
    540e:	4c 89 35 93 ec 00 00 	mov    %r14,0xec93(%rip)        # 140a8 <__pyx_m>
    5415:	e8 16 f5 ff ff       	callq  4930 <PyModule_GetDict@plt>
    541a:	48 89 05 7f ec 00 00 	mov    %rax,0xec7f(%rip)        # 140a0 <__pyx_d>
    5421:	49 89 c4             	mov    %rax,%r12
    5424:	48 85 c0             	test   %rax,%rax
    5427:	0f 84 94 01 00 00    	je     55c1 <__pyx_pymod_exec_arrow_mouse+0x430>
    542d:	48 ff 00             	incq   (%rax)
    5430:	48 8d 3d 95 84 00 00 	lea    0x8495(%rip),%rdi        # d8cc <_IO_stdin_used+0x8cc>
    5437:	e8 94 f3 ff ff       	callq  47d0 <PyImport_AddModule@plt>
    543c:	48 89 05 55 ec 00 00 	mov    %rax,0xec55(%rip)        # 14098 <__pyx_b>
    5443:	49 89 c4             	mov    %rax,%r12
    5446:	48 85 c0             	test   %rax,%rax
    5449:	0f 84 8f 01 00 00    	je     55de <__pyx_pymod_exec_arrow_mouse+0x44d>
    544f:	48 ff 00             	incq   (%rax)
    5452:	48 8d 3d 7c 84 00 00 	lea    0x847c(%rip),%rdi        # d8d5 <_IO_stdin_used+0x8d5>
    5459:	e8 72 f3 ff ff       	callq  47d0 <PyImport_AddModule@plt>
    545e:	48 89 05 2b ec 00 00 	mov    %rax,0xec2b(%rip)        # 14090 <__pyx_cython_runtime>
    5465:	49 89 c4             	mov    %rax,%r12
    5468:	48 85 c0             	test   %rax,%rax
    546b:	0f 84 8a 01 00 00    	je     55fb <__pyx_pymod_exec_arrow_mouse+0x46a>
    5471:	48 ff 00             	incq   (%rax)
    5474:	48 8b 15 1d ec 00 00 	mov    0xec1d(%rip),%rdx        # 14098 <__pyx_b>
    547b:	48 8d 35 62 84 00 00 	lea    0x8462(%rip),%rsi        # d8e4 <_IO_stdin_used+0x8e4>
    5482:	48 8d 1d 37 c1 00 00 	lea    0xc137(%rip),%rbx        # 115c0 <__pyx_string_tab>
    5489:	48 8b 3d 18 ec 00 00 	mov    0xec18(%rip),%rdi        # 140a8 <__pyx_m>
    5490:	e8 bb f5 ff ff       	callq  4a50 <PyObject_SetAttrString@plt>
    5495:	85 c0                	test   %eax,%eax
    5497:	0f 88 7b 01 00 00    	js     5618 <__pyx_pymod_exec_arrow_mouse+0x487>
    549d:	4c 8b 33             	mov    (%rbx),%r14
    54a0:	4d 85 f6             	test   %r14,%r14
    54a3:	0f 84 8d 01 00 00    	je     5636 <__pyx_pymod_exec_arrow_mouse+0x4a5>
    54a9:	8a 43 20             	mov    0x20(%rbx),%al
    54ac:	0a 43 21             	or     0x21(%rbx),%al
    54af:	48 8b 7b 08          	mov    0x8(%rbx),%rdi
    54b3:	74 2e                	je     54e3 <__pyx_pymod_exec_arrow_mouse+0x352>
    54b5:	80 7b 22 00          	cmpb   $0x0,0x22(%rbx)
    54b9:	74 07                	je     54c2 <__pyx_pymod_exec_arrow_mouse+0x331>
    54bb:	e8 f0 f3 ff ff       	callq  48b0 <PyUnicode_InternFromString@plt>
    54c0:	eb 2e                	jmp    54f0 <__pyx_pymod_exec_arrow_mouse+0x35f>
    54c2:	48 8b 43 10          	mov    0x10(%rbx),%rax
    54c6:	48 8b 53 18          	mov    0x18(%rbx),%rdx
    54ca:	48 8d 70 ff          	lea    -0x1(%rax),%rsi
    54ce:	48 85 d2             	test   %rdx,%rdx
    54d1:	74 09                	je     54dc <__pyx_pymod_exec_arrow_mouse+0x34b>
    54d3:	31 c9                	xor    %ecx,%ecx
    54d5:	e8 d6 f4 ff ff       	callq  49b0 <PyUnicode_Decode@plt>
    54da:	eb 14                	jmp    54f0 <__pyx_pymod_exec_arrow_mouse+0x35f>
    54dc:	e8 ff f6 ff ff       	callq  4be0 <PyUnicode_FromStringAndSize@plt>
    54e1:	eb 0d                	jmp    54f0 <__pyx_pymod_exec_arrow_mouse+0x35f>
    54e3:	48 8b 43 10          	mov    0x10(%rbx),%rax
    54e7:	48 8d 70 ff          	lea    -0x1(%rax),%rsi
    54eb:	e8 90 f5 ff ff       	callq  4a80 <PyBytes_FromStringAndSize@plt>
    54f0:	49 89 06             	mov    %rax,(%r14)
    54f3:	48 8b 03             	mov    (%rbx),%rax
    54f6:	48 8b 38             	mov    (%rax),%rdi
    54f9:	48 85 ff             	test   %rdi,%rdi
    54fc:	75 1e                	jne    551c <__pyx_pymod_exec_arrow_mouse+0x38b>
    54fe:	31 db                	xor    %ebx,%ebx
    5500:	45 31 f6             	xor    %r14d,%r14d
    5503:	45 31 c9             	xor    %r9d,%r9d
    5506:	45 31 ed             	xor    %r13d,%r13d
    5509:	45 31 e4             	xor    %r12d,%r12d
    550c:	41 bf 3b 0b 00 00    	mov    $0xb3b,%r15d
    5512:	ba 01 00 00 00       	mov    $0x1,%edx
    5517:	e9 2b 02 00 00       	jmpq   5747 <__pyx_pymod_exec_arrow_mouse+0x5b6>
    551c:	e8 cf f4 ff ff       	callq  49f0 <PyObject_Hash@plt>
    5521:	48 ff c0             	inc    %rax
    5524:	74 d8                	je     54fe <__pyx_pymod_exec_arrow_mouse+0x36d>
    5526:	48 83 c3 28          	add    $0x28,%rbx
    552a:	e9 6e ff ff ff       	jmpq   549d <__pyx_pymod_exec_arrow_mouse+0x30c>
    552f:	31 db                	xor    %ebx,%ebx
    5531:	45 31 f6             	xor    %r14d,%r14d
    5534:	45 31 c9             	xor    %r9d,%r9d
    5537:	45 31 ed             	xor    %r13d,%r13d
    553a:	45 31 e4             	xor    %r12d,%r12d
    553d:	41 bf 09 0b 00 00    	mov    $0xb09,%r15d
    5543:	ba 01 00 00 00       	mov    $0x1,%edx
    5548:	e9 fa 01 00 00       	jmpq   5747 <__pyx_pymod_exec_arrow_mouse+0x5b6>
    554d:	31 db                	xor    %ebx,%ebx
    554f:	45 31 f6             	xor    %r14d,%r14d
    5552:	45 31 c9             	xor    %r9d,%r9d
    5555:	45 31 ed             	xor    %r13d,%r13d
    5558:	31 ed                	xor    %ebp,%ebp
    555a:	41 bf 0d 0b 00 00    	mov    $0xb0d,%r15d
    5560:	ba 01 00 00 00       	mov    $0x1,%edx
    5565:	e9 dd 01 00 00       	jmpq   5747 <__pyx_pymod_exec_arrow_mouse+0x5b6>
    556a:	31 db                	xor    %ebx,%ebx
    556c:	45 31 f6             	xor    %r14d,%r14d
    556f:	45 31 c9             	xor    %r9d,%r9d
    5572:	45 31 ed             	xor    %r13d,%r13d
    5575:	31 ed                	xor    %ebp,%ebp
    5577:	41 bf 0e 0b 00 00    	mov    $0xb0e,%r15d
    557d:	ba 01 00 00 00       	mov    $0x1,%edx
    5582:	e9 c0 01 00 00       	jmpq   5747 <__pyx_pymod_exec_arrow_mouse+0x5b6>
    5587:	31 db                	xor    %ebx,%ebx
    5589:	45 31 f6             	xor    %r14d,%r14d
    558c:	45 31 c9             	xor    %r9d,%r9d
    558f:	45 31 ed             	xor    %r13d,%r13d
    5592:	31 ed                	xor    %ebp,%ebp
    5594:	41 bf 0f 0b 00 00    	mov    $0xb0f,%r15d
    559a:	ba 01 00 00 00       	mov    $0x1,%edx
    559f:	e9 a3 01 00 00       	jmpq   5747 <__pyx_pymod_exec_arrow_mouse+0x5b6>
    55a4:	31 db                	xor    %ebx,%ebx
    55a6:	45 31 f6             	xor    %r14d,%r14d
    55a9:	45 31 c9             	xor    %r9d,%r9d
    55ac:	45 31 ed             	xor    %r13d,%r13d
    55af:	31 ed                	xor    %ebp,%ebp
    55b1:	41 bf 11 0b 00 00    	mov    $0xb11,%r15d
    55b7:	ba 01 00 00 00       	mov    $0x1,%edx
    55bc:	e9 86 01 00 00       	jmpq   5747 <__pyx_pymod_exec_arrow_mouse+0x5b6>
    55c1:	31 db                	xor    %ebx,%ebx
    55c3:	45 31 f6             	xor    %r14d,%r14d
    55c6:	45 31 c9             	xor    %r9d,%r9d
    55c9:	45 31 ed             	xor    %r13d,%r13d
    55cc:	31 ed                	xor    %ebp,%ebp
    55ce:	41 bf 33 0b 00 00    	mov    $0xb33,%r15d
    55d4:	ba 01 00 00 00       	mov    $0x1,%edx
    55d9:	e9 69 01 00 00       	jmpq   5747 <__pyx_pymod_exec_arrow_mouse+0x5b6>
    55de:	31 db                	xor    %ebx,%ebx
    55e0:	45 31 f6             	xor    %r14d,%r14d
    55e3:	45 31 c9             	xor    %r9d,%r9d
    55e6:	45 31 ed             	xor    %r13d,%r13d
    55e9:	31 ed                	xor    %ebp,%ebp
    55eb:	41 bf 35 0b 00 00    	mov    $0xb35,%r15d
    55f1:	ba 01 00 00 00       	mov    $0x1,%edx
    55f6:	e9 4c 01 00 00       	jmpq   5747 <__pyx_pymod_exec_arrow_mouse+0x5b6>
    55fb:	31 db                	xor    %ebx,%ebx
    55fd:	45 31 f6             	xor    %r14d,%r14d
    5600:	45 31 c9             	xor    %r9d,%r9d
    5603:	45 31 ed             	xor    %r13d,%r13d
    5606:	31 ed                	xor    %ebp,%ebp
    5608:	41 bf 37 0b 00 00    	mov    $0xb37,%r15d
    560e:	ba 01 00 00 00       	mov    $0x1,%edx
    5613:	e9 2f 01 00 00       	jmpq   5747 <__pyx_pymod_exec_arrow_mouse+0x5b6>
    5618:	31 db                	xor    %ebx,%ebx
    561a:	45 31 f6             	xor    %r14d,%r14d
    561d:	45 31 c9             	xor    %r9d,%r9d
    5620:	45 31 ed             	xor    %r13d,%r13d
    5623:	45 31 e4             	xor    %r12d,%r12d
    5626:	41 bf 39 0b 00 00    	mov    $0xb39,%r15d
    562c:	ba 01 00 00 00       	mov    $0x1,%edx
    5631:	e9 11 01 00 00       	jmpq   5747 <__pyx_pymod_exec_arrow_mouse+0x5b6>
    5636:	f2 0f 10 05 3a 8b 00 	movsd  0x8b3a(%rip),%xmm0        # e178 <__pyx_k_a+0x19>
    563d:	00 
    563e:	e8 ad f1 ff ff       	callq  47f0 <PyFloat_FromDouble@plt>
    5643:	48 89 05 d6 e7 00 00 	mov    %rax,0xe7d6(%rip)        # 13e20 <__pyx_float_0_2>
    564a:	49 89 c4             	mov    %rax,%r12
    564d:	48 85 c0             	test   %rax,%rax
    5650:	0f 84 de 43 00 00    	je     9a34 <__pyx_pymod_exec_arrow_mouse+0x48a3>
    5656:	31 ff                	xor    %edi,%edi
    5658:	e8 73 f4 ff ff       	callq  4ad0 <PyLong_FromLong@plt>
    565d:	48 89 05 b4 e7 00 00 	mov    %rax,0xe7b4(%rip)        # 13e18 <__pyx_int_0>
    5664:	48 85 c0             	test   %rax,%rax
    5667:	0f 84 91 fe ff ff    	je     54fe <__pyx_pymod_exec_arrow_mouse+0x36d>
    566d:	bf 01 00 00 00       	mov    $0x1,%edi
    5672:	e8 59 f4 ff ff       	callq  4ad0 <PyLong_FromLong@plt>
    5677:	48 89 05 92 e7 00 00 	mov    %rax,0xe792(%rip)        # 13e10 <__pyx_int_1>
    567e:	48 85 c0             	test   %rax,%rax
    5681:	0f 84 77 fe ff ff    	je     54fe <__pyx_pymod_exec_arrow_mouse+0x36d>
    5687:	bf 90 00 00 00       	mov    $0x90,%edi
    568c:	e8 3f f4 ff ff       	callq  4ad0 <PyLong_FromLong@plt>
    5691:	48 89 05 70 e7 00 00 	mov    %rax,0xe770(%rip)        # 13e08 <__pyx_int_144>
    5698:	48 85 c0             	test   %rax,%rax
    569b:	0f 84 5d fe ff ff    	je     54fe <__pyx_pymod_exec_arrow_mouse+0x36d>
    56a1:	bf e8 03 00 00       	mov    $0x3e8,%edi
    56a6:	e8 25 f4 ff ff       	callq  4ad0 <PyLong_FromLong@plt>
    56ab:	48 89 05 4e e7 00 00 	mov    %rax,0xe74e(%rip)        # 13e00 <__pyx_int_1000>
    56b2:	48 85 c0             	test   %rax,%rax
    56b5:	0f 84 43 fe ff ff    	je     54fe <__pyx_pymod_exec_arrow_mouse+0x36d>
    56bb:	83 3d de e3 00 00 00 	cmpl   $0x0,0xe3de(%rip)        # 13aa0 <__pyx_module_is_main_arrow_mouse>
    56c2:	0f 85 38 01 00 00    	jne    5800 <__pyx_pymod_exec_arrow_mouse+0x66f>
    56c8:	e8 93 f4 ff ff       	callq  4b60 <PyImport_GetModuleDict@plt>
    56cd:	49 89 c4             	mov    %rax,%r12
    56d0:	48 85 c0             	test   %rax,%rax
    56d3:	0f 84 84 31 00 00    	je     885d <__pyx_pymod_exec_arrow_mouse+0x36cc>
    56d9:	48 8d 35 25 83 00 00 	lea    0x8325(%rip),%rsi        # da05 <_IO_stdin_used+0xa05>
    56e0:	48 89 c7             	mov    %rax,%rdi
    56e3:	e8 a8 f3 ff ff       	callq  4a90 <PyDict_GetItemString@plt>
    56e8:	48 89 c5             	mov    %rax,%rbp
    56eb:	48 85 c0             	test   %rax,%rax
    56ee:	0f 84 4b 01 00 00    	je     583f <__pyx_pymod_exec_arrow_mouse+0x6ae>
    56f4:	48 8b 3d d5 e7 00 00 	mov    0xe7d5(%rip),%rdi        # 13ed0 <__pyx_n_s_property>
    56fb:	e8 c7 4f 00 00       	callq  a6c7 <__Pyx_GetBuiltinName>
    5700:	48 89 05 49 e9 00 00 	mov    %rax,0xe949(%rip)        # 14050 <__pyx_builtin_property>
    5707:	48 89 c5             	mov    %rax,%rbp
    570a:	48 85 c0             	test   %rax,%rax
    570d:	0f 84 67 31 00 00    	je     887a <__pyx_pymod_exec_arrow_mouse+0x36e9>
    5713:	48 8b 35 8e e7 00 00 	mov    0xe78e(%rip),%rsi        # 13ea8 <__pyx_n_s_self>
    571a:	31 c0                	xor    %eax,%eax
    571c:	bf 01 00 00 00       	mov    $0x1,%edi
    5721:	e8 ca f1 ff ff       	callq  48f0 <PyTuple_Pack@plt>
    5726:	48 85 c0             	test   %rax,%rax
    5729:	0f 85 4c 01 00 00    	jne    587b <__pyx_pymod_exec_arrow_mouse+0x6ea>
    572f:	31 db                	xor    %ebx,%ebx
    5731:	45 31 c9             	xor    %r9d,%r9d
    5734:	45 31 ed             	xor    %r13d,%r13d
    5737:	45 31 e4             	xor    %r12d,%r12d
    573a:	31 ed                	xor    %ebp,%ebp
    573c:	41 bf 4d 0b 00 00    	mov    $0xb4d,%r15d
    5742:	ba 01 00 00 00       	mov    $0x1,%edx
    5747:	48 89 ef             	mov    %rbp,%rdi
    574a:	89 54 24 08          	mov    %edx,0x8(%rsp)
    574e:	4c 89 0c 24          	mov    %r9,(%rsp)
    5752:	e8 08 51 00 00       	callq  a85f <_Py_XDECREF>
    5757:	4c 89 e7             	mov    %r12,%rdi
    575a:	e8 00 51 00 00       	callq  a85f <_Py_XDECREF>
    575f:	4c 89 ef             	mov    %r13,%rdi
    5762:	e8 f8 50 00 00       	callq  a85f <_Py_XDECREF>
    5767:	4c 8b 0c 24          	mov    (%rsp),%r9
    576b:	4c 89 cf             	mov    %r9,%rdi
    576e:	e8 ec 50 00 00       	callq  a85f <_Py_XDECREF>
    5773:	4c 89 f7             	mov    %r14,%rdi
    5776:	e8 e4 50 00 00       	callq  a85f <_Py_XDECREF>
    577b:	48 89 df             	mov    %rbx,%rdi
    577e:	e8 dc 50 00 00       	callq  a85f <_Py_XDECREF>
    5783:	48 83 3d 1d e9 00 00 	cmpq   $0x0,0xe91d(%rip)        # 140a8 <__pyx_m>
    578a:	00 
    578b:	74 42                	je     57cf <__pyx_pymod_exec_arrow_mouse+0x63e>
    578d:	48 83 3d 0b e9 00 00 	cmpq   $0x0,0xe90b(%rip)        # 140a0 <__pyx_d>
    5794:	00 
    5795:	74 1a                	je     57b1 <__pyx_pymod_exec_arrow_mouse+0x620>
    5797:	8b 54 24 08          	mov    0x8(%rsp),%edx
    579b:	48 8d 0d 91 7e 00 00 	lea    0x7e91(%rip),%rcx        # d633 <_IO_stdin_used+0x633>
    57a2:	44 89 fe             	mov    %r15d,%esi
    57a5:	48 8d 3d 54 82 00 00 	lea    0x8254(%rip),%rdi        # da00 <_IO_stdin_used+0xa00>
    57ac:	e8 ce 5e 00 00       	callq  b67f <__Pyx_AddTraceback>
    57b1:	48 8b 3d f0 e8 00 00 	mov    0xe8f0(%rip),%rdi        # 140a8 <__pyx_m>
    57b8:	48 85 ff             	test   %rdi,%rdi
    57bb:	74 2f                	je     57ec <__pyx_pymod_exec_arrow_mouse+0x65b>
    57bd:	48 c7 05 e0 e8 00 00 	movq   $0x0,0xe8e0(%rip)        # 140a8 <__pyx_m>
    57c4:	00 00 00 00 
    57c8:	e8 a2 4f 00 00       	callq  a76f <_Py_DECREF.isra.0>
    57cd:	eb 1d                	jmp    57ec <__pyx_pymod_exec_arrow_mouse+0x65b>
    57cf:	e8 7c f0 ff ff       	callq  4850 <PyErr_Occurred@plt>
    57d4:	48 85 c0             	test   %rax,%rax
    57d7:	75 13                	jne    57ec <__pyx_pymod_exec_arrow_mouse+0x65b>
    57d9:	48 8b 3d 80 ca 00 00 	mov    0xca80(%rip),%rdi        # 12260 <PyExc_ImportError>
    57e0:	48 8d 35 19 82 00 00 	lea    0x8219(%rip),%rsi        # da00 <_IO_stdin_used+0xa00>
    57e7:	e8 a4 f3 ff ff       	callq  4b90 <PyErr_SetString@plt>
    57ec:	31 c0                	xor    %eax,%eax
    57ee:	48 83 3d b2 e8 00 00 	cmpq   $0x0,0xe8b2(%rip)        # 140a8 <__pyx_m>
    57f5:	00 
    57f6:	0f 94 c0             	sete   %al
    57f9:	f7 d8                	neg    %eax
    57fb:	e9 51 42 00 00       	jmpq   9a51 <__pyx_pymod_exec_arrow_mouse+0x48c0>
    5800:	48 8b 15 31 e7 00 00 	mov    0xe731(%rip),%rdx        # 13f38 <__pyx_n_s_main>
    5807:	48 8b 35 ea e6 00 00 	mov    0xe6ea(%rip),%rsi        # 13ef8 <__pyx_n_s_name>
    580e:	48 8b 3d 93 e8 00 00 	mov    0xe893(%rip),%rdi        # 140a8 <__pyx_m>
    5815:	e8 56 f2 ff ff       	callq  4a70 <PyObject_SetAttr@plt>
    581a:	85 c0                	test   %eax,%eax
    581c:	0f 89 a6 fe ff ff    	jns    56c8 <__pyx_pymod_exec_arrow_mouse+0x537>
    5822:	31 db                	xor    %ebx,%ebx
    5824:	45 31 c9             	xor    %r9d,%r9d
    5827:	45 31 ed             	xor    %r13d,%r13d
    582a:	45 31 e4             	xor    %r12d,%r12d
    582d:	31 ed                	xor    %ebp,%ebp
    582f:	41 bf 40 0b 00 00    	mov    $0xb40,%r15d
    5835:	ba 01 00 00 00       	mov    $0x1,%edx
    583a:	e9 08 ff ff ff       	jmpq   5747 <__pyx_pymod_exec_arrow_mouse+0x5b6>
    583f:	48 8b 15 62 e8 00 00 	mov    0xe862(%rip),%rdx        # 140a8 <__pyx_m>
    5846:	48 8d 35 b8 81 00 00 	lea    0x81b8(%rip),%rsi        # da05 <_IO_stdin_used+0xa05>
    584d:	4c 89 e7             	mov    %r12,%rdi
    5850:	e8 1b ee ff ff       	callq  4670 <PyDict_SetItemString@plt>
    5855:	85 c0                	test   %eax,%eax
    5857:	0f 89 97 fe ff ff    	jns    56f4 <__pyx_pymod_exec_arrow_mouse+0x563>
    585d:	31 db                	xor    %ebx,%ebx
    585f:	45 31 f6             	xor    %r14d,%r14d
    5862:	45 31 c9             	xor    %r9d,%r9d
    5865:	45 31 ed             	xor    %r13d,%r13d
    5868:	45 31 e4             	xor    %r12d,%r12d
    586b:	41 bf 46 0b 00 00    	mov    $0xb46,%r15d
    5871:	ba 01 00 00 00       	mov    $0x1,%edx
    5876:	e9 cc fe ff ff       	jmpq   5747 <__pyx_pymod_exec_arrow_mouse+0x5b6>
    587b:	48 8b 15 06 e8 00 00 	mov    0xe806(%rip),%rdx        # 14088 <__pyx_empty_tuple>
    5882:	31 c9                	xor    %ecx,%ecx
    5884:	31 f6                	xor    %esi,%esi
    5886:	bf 01 00 00 00       	mov    $0x1,%edi
    588b:	4c 8b 0d ee e7 00 00 	mov    0xe7ee(%rip),%r9        # 14080 <__pyx_empty_bytes>
    5892:	53                   	push   %rbx
    5893:	41 b8 03 00 00 00    	mov    $0x3,%r8d
    5899:	41 51                	push   %r9
    589b:	6a 07                	pushq  $0x7
    589d:	ff 35 dd e6 00 00    	pushq  0xe6dd(%rip)        # 13f80 <__pyx_n_s_init>
    58a3:	ff 35 4f e7 00 00    	pushq  0xe74f(%rip)        # 13ff8 <__pyx_kp_s_arrow_mouse_pyx>
    58a9:	52                   	push   %rdx
    58aa:	52                   	push   %rdx
    58ab:	50                   	push   %rax
    58ac:	52                   	push   %rdx
    58ad:	52                   	push   %rdx
    58ae:	ba 01 00 00 00       	mov    $0x1,%edx
    58b3:	e8 58 ef ff ff       	callq  4810 <PyCode_New@plt>
    58b8:	48 83 c4 50          	add    $0x50,%rsp
    58bc:	48 89 05 35 e5 00 00 	mov    %rax,0xe535(%rip)        # 13df8 <__pyx_codeobj__2>
    58c3:	48 85 c0             	test   %rax,%rax
    58c6:	0f 84 63 fe ff ff    	je     572f <__pyx_pymod_exec_arrow_mouse+0x59e>
    58cc:	48 8b 35 d5 e5 00 00 	mov    0xe5d5(%rip),%rsi        # 13ea8 <__pyx_n_s_self>
    58d3:	31 c0                	xor    %eax,%eax
    58d5:	bf 01 00 00 00       	mov    $0x1,%edi
    58da:	e8 11 f0 ff ff       	callq  48f0 <PyTuple_Pack@plt>
    58df:	48 85 c0             	test   %rax,%rax
    58e2:	0f 84 47 fe ff ff    	je     572f <__pyx_pymod_exec_arrow_mouse+0x59e>
    58e8:	48 8b 15 99 e7 00 00 	mov    0xe799(%rip),%rdx        # 14088 <__pyx_empty_tuple>
    58ef:	31 c9                	xor    %ecx,%ecx
    58f1:	31 f6                	xor    %esi,%esi
    58f3:	bf 01 00 00 00       	mov    $0x1,%edi
    58f8:	4c 8b 0d 81 e7 00 00 	mov    0xe781(%rip),%r9        # 14080 <__pyx_empty_bytes>
    58ff:	41 53                	push   %r11
    5901:	41 b8 03 00 00 00    	mov    $0x3,%r8d
    5907:	41 51                	push   %r9
    5909:	6a 0a                	pushq  $0xa
    590b:	ff 35 17 e6 00 00    	pushq  0xe617(%rip)        # 13f28 <__pyx_n_s_measure>
    5911:	ff 35 e1 e6 00 00    	pushq  0xe6e1(%rip)        # 13ff8 <__pyx_kp_s_arrow_mouse_pyx>
    5917:	52                   	push   %rdx
    5918:	52                   	push   %rdx
    5919:	50                   	push   %rax
    591a:	52                   	push   %rdx
    591b:	52                   	push   %rdx
    591c:	ba 01 00 00 00       	mov    $0x1,%edx
    5921:	e8 ea ee ff ff       	callq  4810 <PyCode_New@plt>
    5926:	48 83 c4 50          	add    $0x50,%rsp
    592a:	48 89 05 bf e4 00 00 	mov    %rax,0xe4bf(%rip)        # 13df0 <__pyx_codeobj__4>
    5931:	48 85 c0             	test   %rax,%rax
    5934:	0f 84 f5 fd ff ff    	je     572f <__pyx_pymod_exec_arrow_mouse+0x59e>
    593a:	48 8b 0d 07 e6 00 00 	mov    0xe607(%rip),%rcx        # 13f48 <__pyx_n_s_last_ts_ms>
    5941:	48 8b 15 68 e5 00 00 	mov    0xe568(%rip),%rdx        # 13eb0 <__pyx_n_s_second_last_ts_ms>
    5948:	31 c0                	xor    %eax,%eax
    594a:	bf 03 00 00 00       	mov    $0x3,%edi
    594f:	48 8b 35 52 e5 00 00 	mov    0xe552(%rip),%rsi        # 13ea8 <__pyx_n_s_self>
    5956:	e8 95 ef ff ff       	callq  48f0 <PyTuple_Pack@plt>
    595b:	48 85 c0             	test   %rax,%rax
    595e:	0f 84 cb fd ff ff    	je     572f <__pyx_pymod_exec_arrow_mouse+0x59e>
    5964:	48 8b 15 1d e7 00 00 	mov    0xe71d(%rip),%rdx        # 14088 <__pyx_empty_tuple>
    596b:	31 c9                	xor    %ecx,%ecx
    596d:	31 f6                	xor    %esi,%esi
    596f:	bf 01 00 00 00       	mov    $0x1,%edi
    5974:	4c 8b 0d 05 e7 00 00 	mov    0xe705(%rip),%r9        # 14080 <__pyx_empty_bytes>
    597b:	41 52                	push   %r10
    597d:	41 b8 03 00 00 00    	mov    $0x3,%r8d
    5983:	41 51                	push   %r9
    5985:	6a 0e                	pushq  $0xe
    5987:	ff 35 3b e6 00 00    	pushq  0xe63b(%rip)        # 13fc8 <__pyx_n_s_delta_ts_ms>
    598d:	ff 35 65 e6 00 00    	pushq  0xe665(%rip)        # 13ff8 <__pyx_kp_s_arrow_mouse_pyx>
    5993:	52                   	push   %rdx
    5994:	52                   	push   %rdx
    5995:	50                   	push   %rax
    5996:	52                   	push   %rdx
    5997:	52                   	push   %rdx
    5998:	ba 03 00 00 00       	mov    $0x3,%edx
    599d:	e8 6e ee ff ff       	callq  4810 <PyCode_New@plt>
    59a2:	48 83 c4 50          	add    $0x50,%rsp
    59a6:	48 89 05 3b e4 00 00 	mov    %rax,0xe43b(%rip)        # 13de8 <__pyx_codeobj__6>
    59ad:	48 85 c0             	test   %rax,%rax
    59b0:	0f 84 79 fd ff ff    	je     572f <__pyx_pymod_exec_arrow_mouse+0x59e>
    59b6:	48 8b 35 eb e4 00 00 	mov    0xe4eb(%rip),%rsi        # 13ea8 <__pyx_n_s_self>
    59bd:	31 c0                	xor    %eax,%eax
    59bf:	bf 01 00 00 00       	mov    $0x1,%edi
    59c4:	e8 27 ef ff ff       	callq  48f0 <PyTuple_Pack@plt>
    59c9:	48 85 c0             	test   %rax,%rax
    59cc:	0f 84 5d fd ff ff    	je     572f <__pyx_pymod_exec_arrow_mouse+0x59e>
    59d2:	48 8b 15 af e6 00 00 	mov    0xe6af(%rip),%rdx        # 14088 <__pyx_empty_tuple>
    59d9:	31 c9                	xor    %ecx,%ecx
    59db:	31 f6                	xor    %esi,%esi
    59dd:	bf 01 00 00 00       	mov    $0x1,%edi
    59e2:	4c 8b 0d 97 e6 00 00 	mov    0xe697(%rip),%r9        # 14080 <__pyx_empty_bytes>
    59e9:	41 50                	push   %r8
    59eb:	41 b8 03 00 00 00    	mov    $0x3,%r8d
    59f1:	41 51                	push   %r9
    59f3:	6a 16                	pushq  $0x16
    59f5:	ff 35 ad e5 00 00    	pushq  0xe5ad(%rip)        # 13fa8 <__pyx_n_s_fps>
    59fb:	ff 35 f7 e5 00 00    	pushq  0xe5f7(%rip)        # 13ff8 <__pyx_kp_s_arrow_mouse_pyx>
    5a01:	52                   	push   %rdx
    5a02:	52                   	push   %rdx
    5a03:	50                   	push   %rax
    5a04:	52                   	push   %rdx
    5a05:	52                   	push   %rdx
    5a06:	ba 01 00 00 00       	mov    $0x1,%edx
    5a0b:	e8 00 ee ff ff       	callq  4810 <PyCode_New@plt>
    5a10:	48 83 c4 50          	add    $0x50,%rsp
    5a14:	48 89 05 c5 e3 00 00 	mov    %rax,0xe3c5(%rip)        # 13de0 <__pyx_codeobj__8>
    5a1b:	48 85 c0             	test   %rax,%rax
    5a1e:	0f 84 0b fd ff ff    	je     572f <__pyx_pymod_exec_arrow_mouse+0x59e>
    5a24:	48 8b 0d f5 e5 00 00 	mov    0xe5f5(%rip),%rcx        # 14020 <__pyx_n_s_a>
    5a2b:	48 8b 15 3e e4 00 00 	mov    0xe43e(%rip),%rdx        # 13e70 <__pyx_n_s_t>
    5a32:	31 c0                	xor    %eax,%eax
    5a34:	bf 03 00 00 00       	mov    $0x3,%edi
    5a39:	48 8b 35 50 e4 00 00 	mov    0xe450(%rip),%rsi        # 13e90 <__pyx_n_s_speed>
    5a40:	e8 ab ee ff ff       	callq  48f0 <PyTuple_Pack@plt>
    5a45:	48 85 c0             	test   %rax,%rax
    5a48:	0f 84 e1 fc ff ff    	je     572f <__pyx_pymod_exec_arrow_mouse+0x59e>
    5a4e:	48 8b 15 33 e6 00 00 	mov    0xe633(%rip),%rdx        # 14088 <__pyx_empty_tuple>
    5a55:	4c 8b 0d 24 e6 00 00 	mov    0xe624(%rip),%r9        # 14080 <__pyx_empty_bytes>
    5a5c:	57                   	push   %rdi
    5a5d:	41 b8 03 00 00 00    	mov    $0x3,%r8d
    5a63:	31 c9                	xor    %ecx,%ecx
    5a65:	31 f6                	xor    %esi,%esi
    5a67:	bf 02 00 00 00       	mov    $0x2,%edi
    5a6c:	41 51                	push   %r9
    5a6e:	6a 26                	pushq  $0x26
    5a70:	ff 35 02 e4 00 00    	pushq  0xe402(%rip)        # 13e78 <__pyx_n_s_speed_function_quadric>
    5a76:	ff 35 7c e5 00 00    	pushq  0xe57c(%rip)        # 13ff8 <__pyx_kp_s_arrow_mouse_pyx>
    5a7c:	52                   	push   %rdx
    5a7d:	52                   	push   %rdx
    5a7e:	50                   	push   %rax
    5a7f:	52                   	push   %rdx
    5a80:	52                   	push   %rdx
    5a81:	ba 03 00 00 00       	mov    $0x3,%edx
    5a86:	e8 85 ed ff ff       	callq  4810 <PyCode_New@plt>
    5a8b:	48 83 c4 50          	add    $0x50,%rsp
    5a8f:	48 85 c0             	test   %rax,%rax
    5a92:	0f 84 97 fc ff ff    	je     572f <__pyx_pymod_exec_arrow_mouse+0x59e>
    5a98:	48 8b 0d 91 e4 00 00 	mov    0xe491(%rip),%rcx        # 13f30 <__pyx_n_s_max_speed>
    5a9f:	48 8b 15 ca e3 00 00 	mov    0xe3ca(%rip),%rdx        # 13e70 <__pyx_n_s_t>
    5aa6:	31 c0                	xor    %eax,%eax
    5aa8:	bf 03 00 00 00       	mov    $0x3,%edi
    5aad:	48 8b 35 dc e3 00 00 	mov    0xe3dc(%rip),%rsi        # 13e90 <__pyx_n_s_speed>
    5ab4:	e8 37 ee ff ff       	callq  48f0 <PyTuple_Pack@plt>
    5ab9:	48 85 c0             	test   %rax,%rax
    5abc:	0f 84 6d fc ff ff    	je     572f <__pyx_pymod_exec_arrow_mouse+0x59e>
    5ac2:	48 8b 15 bf e5 00 00 	mov    0xe5bf(%rip),%rdx        # 14088 <__pyx_empty_tuple>
    5ac9:	4c 8b 0d b0 e5 00 00 	mov    0xe5b0(%rip),%r9        # 14080 <__pyx_empty_bytes>
    5ad0:	56                   	push   %rsi
    5ad1:	41 b8 03 00 00 00    	mov    $0x3,%r8d
    5ad7:	31 c9                	xor    %ecx,%ecx
    5ad9:	31 f6                	xor    %esi,%esi
    5adb:	bf 02 00 00 00       	mov    $0x2,%edi
    5ae0:	41 51                	push   %r9
    5ae2:	6a 2b                	pushq  $0x2b
    5ae4:	ff 35 96 e3 00 00    	pushq  0xe396(%rip)        # 13e80 <__pyx_n_s_speed_function_linear>
    5aea:	ff 35 08 e5 00 00    	pushq  0xe508(%rip)        # 13ff8 <__pyx_kp_s_arrow_mouse_pyx>
    5af0:	52                   	push   %rdx
    5af1:	52                   	push   %rdx
    5af2:	50                   	push   %rax
    5af3:	52                   	push   %rdx
    5af4:	52                   	push   %rdx
    5af5:	ba 03 00 00 00       	mov    $0x3,%edx
    5afa:	e8 11 ed ff ff       	callq  4810 <PyCode_New@plt>
    5aff:	48 83 c4 50          	add    $0x50,%rsp
    5b03:	48 85 c0             	test   %rax,%rax
    5b06:	0f 84 23 fc ff ff    	je     572f <__pyx_pymod_exec_arrow_mouse+0x59e>
    5b0c:	48 8b 15 5d e3 00 00 	mov    0xe35d(%rip),%rdx        # 13e70 <__pyx_n_s_t>
    5b13:	48 8b 35 76 e3 00 00 	mov    0xe376(%rip),%rsi        # 13e90 <__pyx_n_s_speed>
    5b1a:	31 c0                	xor    %eax,%eax
    5b1c:	bf 02 00 00 00       	mov    $0x2,%edi
    5b21:	e8 ca ed ff ff       	callq  48f0 <PyTuple_Pack@plt>
    5b26:	48 85 c0             	test   %rax,%rax
    5b29:	0f 84 00 fc ff ff    	je     572f <__pyx_pymod_exec_arrow_mouse+0x59e>
    5b2f:	48 8b 15 52 e5 00 00 	mov    0xe552(%rip),%rdx        # 14088 <__pyx_empty_tuple>
    5b36:	4c 8b 0d 43 e5 00 00 	mov    0xe543(%rip),%r9        # 14080 <__pyx_empty_bytes>
    5b3d:	51                   	push   %rcx
    5b3e:	41 b8 03 00 00 00    	mov    $0x3,%r8d
    5b44:	31 c9                	xor    %ecx,%ecx
    5b46:	31 f6                	xor    %esi,%esi
    5b48:	bf 02 00 00 00       	mov    $0x2,%edi
    5b4d:	41 51                	push   %r9
    5b4f:	6a 34                	pushq  $0x34
    5b51:	ff 35 31 e3 00 00    	pushq  0xe331(%rip)        # 13e88 <__pyx_n_s_speed_function>
    5b57:	ff 35 9b e4 00 00    	pushq  0xe49b(%rip)        # 13ff8 <__pyx_kp_s_arrow_mouse_pyx>
    5b5d:	52                   	push   %rdx
    5b5e:	52                   	push   %rdx
    5b5f:	50                   	push   %rax
    5b60:	52                   	push   %rdx
    5b61:	52                   	push   %rdx
    5b62:	ba 02 00 00 00       	mov    $0x2,%edx
    5b67:	e8 a4 ec ff ff       	callq  4810 <PyCode_New@plt>
    5b6c:	48 83 c4 50          	add    $0x50,%rsp
    5b70:	48 85 c0             	test   %rax,%rax
    5b73:	0f 84 b6 fb ff ff    	je     572f <__pyx_pymod_exec_arrow_mouse+0x59e>
    5b79:	48 8b 3d d0 e2 00 00 	mov    0xe2d0(%rip),%rdi        # 13e50 <__pyx_n_s_time>
    5b80:	e8 12 f4 ff ff       	callq  4f97 <__Pyx_Import.constprop.0>
    5b85:	48 89 c5             	mov    %rax,%rbp
    5b88:	48 85 c0             	test   %rax,%rax
    5b8b:	0f 84 07 2d 00 00    	je     8898 <__pyx_pymod_exec_arrow_mouse+0x3707>
    5b91:	48 8b 35 b8 e2 00 00 	mov    0xe2b8(%rip),%rsi        # 13e50 <__pyx_n_s_time>
    5b98:	48 8b 3d 01 e5 00 00 	mov    0xe501(%rip),%rdi        # 140a0 <__pyx_d>
    5b9f:	48 89 c2             	mov    %rax,%rdx
    5ba2:	e8 a9 f0 ff ff       	callq  4c50 <PyDict_SetItem@plt>
    5ba7:	85 c0                	test   %eax,%eax
    5ba9:	0f 88 07 2d 00 00    	js     88b6 <__pyx_pymod_exec_arrow_mouse+0x3725>
    5baf:	48 89 ef             	mov    %rbp,%rdi
    5bb2:	e8 b8 4b 00 00       	callq  a76f <_Py_DECREF.isra.0>
    5bb7:	48 8b 3d a2 e3 00 00 	mov    0xe3a2(%rip),%rdi        # 13f60 <__pyx_n_s_keyboard>
    5bbe:	e8 d4 f3 ff ff       	callq  4f97 <__Pyx_Import.constprop.0>
    5bc3:	48 89 c5             	mov    %rax,%rbp
    5bc6:	48 85 c0             	test   %rax,%rax
    5bc9:	0f 84 02 2d 00 00    	je     88d1 <__pyx_pymod_exec_arrow_mouse+0x3740>
    5bcf:	48 8b 35 8a e3 00 00 	mov    0xe38a(%rip),%rsi        # 13f60 <__pyx_n_s_keyboard>
    5bd6:	48 8b 3d c3 e4 00 00 	mov    0xe4c3(%rip),%rdi        # 140a0 <__pyx_d>
    5bdd:	48 89 c2             	mov    %rax,%rdx
    5be0:	e8 6b f0 ff ff       	callq  4c50 <PyDict_SetItem@plt>
    5be5:	85 c0                	test   %eax,%eax
    5be7:	0f 88 02 2d 00 00    	js     88ef <__pyx_pymod_exec_arrow_mouse+0x375e>
    5bed:	48 89 ef             	mov    %rbp,%rdi
    5bf0:	e8 7a 4b 00 00       	callq  a76f <_Py_DECREF.isra.0>
    5bf5:	48 8b 3d 14 e3 00 00 	mov    0xe314(%rip),%rdi        # 13f10 <__pyx_n_s_mouse>
    5bfc:	e8 96 f3 ff ff       	callq  4f97 <__Pyx_Import.constprop.0>
    5c01:	48 89 c5             	mov    %rax,%rbp
    5c04:	48 85 c0             	test   %rax,%rax
    5c07:	0f 84 fd 2c 00 00    	je     890a <__pyx_pymod_exec_arrow_mouse+0x3779>
    5c0d:	48 8b 35 fc e2 00 00 	mov    0xe2fc(%rip),%rsi        # 13f10 <__pyx_n_s_mouse>
    5c14:	48 8b 3d 85 e4 00 00 	mov    0xe485(%rip),%rdi        # 140a0 <__pyx_d>
    5c1b:	48 89 c2             	mov    %rax,%rdx
    5c1e:	e8 2d f0 ff ff       	callq  4c50 <PyDict_SetItem@plt>
    5c23:	85 c0                	test   %eax,%eax
    5c25:	0f 88 fd 2c 00 00    	js     8928 <__pyx_pymod_exec_arrow_mouse+0x3797>
    5c2b:	48 89 ef             	mov    %rbp,%rdi
    5c2e:	e8 3c 4b 00 00       	callq  a76f <_Py_DECREF.isra.0>
    5c33:	4c 8b 2d c6 e3 00 00 	mov    0xe3c6(%rip),%r13        # 14000 <__pyx_n_s_arrow_mouse>
    5c3a:	4c 8b 25 07 e4 00 00 	mov    0xe407(%rip),%r12        # 14048 <__pyx_n_s_Time_measuring>
    5c41:	e8 1a f0 ff ff       	callq  4c60 <PyDict_New@plt>
    5c46:	48 89 c5             	mov    %rax,%rbp
    5c49:	48 85 c0             	test   %rax,%rax
    5c4c:	0f 84 f1 2c 00 00    	je     8943 <__pyx_pymod_exec_arrow_mouse+0x37b2>
    5c52:	48 8b 35 bf e2 00 00 	mov    0xe2bf(%rip),%rsi        # 13f18 <__pyx_n_s_module>
    5c59:	4c 89 ea             	mov    %r13,%rdx
    5c5c:	48 89 c7             	mov    %rax,%rdi
    5c5f:	e8 ec ec ff ff       	callq  4950 <PyObject_SetItem@plt>
    5c64:	85 c0                	test   %eax,%eax
    5c66:	79 25                	jns    5c8d <__pyx_pymod_exec_arrow_mouse+0xafc>
    5c68:	48 89 ef             	mov    %rbp,%rdi
    5c6b:	31 db                	xor    %ebx,%ebx
    5c6d:	45 31 ed             	xor    %r13d,%r13d
    5c70:	45 31 e4             	xor    %r12d,%r12d
    5c73:	e8 f7 4a 00 00       	callq  a76f <_Py_DECREF.isra.0>
    5c78:	31 ed                	xor    %ebp,%ebp
    5c7a:	45 31 c9             	xor    %r9d,%r9d
    5c7d:	41 bf 83 0b 00 00    	mov    $0xb83,%r15d
    5c83:	ba 06 00 00 00       	mov    $0x6,%edx
    5c88:	e9 ba fa ff ff       	jmpq   5747 <__pyx_pymod_exec_arrow_mouse+0x5b6>
    5c8d:	48 8b 35 2c e2 00 00 	mov    0xe22c(%rip),%rsi        # 13ec0 <__pyx_n_s_qualname>
    5c94:	4c 89 e2             	mov    %r12,%rdx
    5c97:	48 89 ef             	mov    %rbp,%rdi
    5c9a:	e8 b1 ec ff ff       	callq  4950 <PyObject_SetItem@plt>
    5c9f:	85 c0                	test   %eax,%eax
    5ca1:	78 c5                	js     5c68 <__pyx_pymod_exec_arrow_mouse+0xad7>
    5ca3:	4c 8b 05 4e e1 00 00 	mov    0xe14e(%rip),%r8        # 13df8 <__pyx_codeobj__2>
    5caa:	48 8b 0d ef e3 00 00 	mov    0xe3ef(%rip),%rcx        # 140a0 <__pyx_d>
    5cb1:	48 8d 3d 88 c5 00 00 	lea    0xc588(%rip),%rdi        # 12240 <__pyx_mdef_11arrow_mouse_14Time_measuring_1__init__>
    5cb8:	48 8b 15 41 e3 00 00 	mov    0xe341(%rip),%rdx        # 14000 <__pyx_n_s_arrow_mouse>
    5cbf:	48 8b 35 7a e3 00 00 	mov    0xe37a(%rip),%rsi        # 14040 <__pyx_n_s_Time_measuring___init>
    5cc6:	e8 c4 f3 ff ff       	callq  508f <__Pyx_CyFunction_New.constprop.0>
    5ccb:	49 89 c4             	mov    %rax,%r12
    5cce:	48 85 c0             	test   %rax,%rax
    5cd1:	0f 84 8a 2c 00 00    	je     8961 <__pyx_pymod_exec_arrow_mouse+0x37d0>
    5cd7:	48 8b 35 a2 e2 00 00 	mov    0xe2a2(%rip),%rsi        # 13f80 <__pyx_n_s_init>
    5cde:	48 8d 1d 1b c9 00 00 	lea    0xc91b(%rip),%rbx        # 12600 <PyDict_Type>
    5ce5:	48 39 5d 08          	cmp    %rbx,0x8(%rbp)
    5ce9:	75 11                	jne    5cfc <__pyx_pymod_exec_arrow_mouse+0xb6b>
    5ceb:	48 8b 4e 18          	mov    0x18(%rsi),%rcx
    5cef:	48 89 c2             	mov    %rax,%rdx
    5cf2:	48 89 ef             	mov    %rbp,%rdi
    5cf5:	e8 06 eb ff ff       	callq  4800 <_PyDict_SetItem_KnownHash@plt>
    5cfa:	eb 0b                	jmp    5d07 <__pyx_pymod_exec_arrow_mouse+0xb76>
    5cfc:	48 89 c2             	mov    %rax,%rdx
    5cff:	48 89 ef             	mov    %rbp,%rdi
    5d02:	e8 49 ec ff ff       	callq  4950 <PyObject_SetItem@plt>
    5d07:	c1 e8 1f             	shr    $0x1f,%eax
    5d0a:	84 c0                	test   %al,%al
    5d0c:	0f 85 6a 2c 00 00    	jne    897c <__pyx_pymod_exec_arrow_mouse+0x37eb>
    5d12:	4c 89 e7             	mov    %r12,%rdi
    5d15:	e8 55 4a 00 00       	callq  a76f <_Py_DECREF.isra.0>
    5d1a:	4c 8b 05 cf e0 00 00 	mov    0xe0cf(%rip),%r8        # 13df0 <__pyx_codeobj__4>
    5d21:	48 8b 0d 78 e3 00 00 	mov    0xe378(%rip),%rcx        # 140a0 <__pyx_d>
    5d28:	48 8d 3d f1 c4 00 00 	lea    0xc4f1(%rip),%rdi        # 12220 <__pyx_mdef_11arrow_mouse_14Time_measuring_3measure>
    5d2f:	48 8b 15 ca e2 00 00 	mov    0xe2ca(%rip),%rdx        # 14000 <__pyx_n_s_arrow_mouse>
    5d36:	48 8b 35 eb e2 00 00 	mov    0xe2eb(%rip),%rsi        # 14028 <__pyx_n_s_Time_measuring_measure>
    5d3d:	e8 4d f3 ff ff       	callq  508f <__Pyx_CyFunction_New.constprop.0>
    5d42:	49 89 c4             	mov    %rax,%r12
    5d45:	48 85 c0             	test   %rax,%rax
    5d48:	0f 84 46 2c 00 00    	je     8994 <__pyx_pymod_exec_arrow_mouse+0x3803>
    5d4e:	48 8b 35 d3 e1 00 00 	mov    0xe1d3(%rip),%rsi        # 13f28 <__pyx_n_s_measure>
    5d55:	48 39 5d 08          	cmp    %rbx,0x8(%rbp)
    5d59:	75 11                	jne    5d6c <__pyx_pymod_exec_arrow_mouse+0xbdb>
    5d5b:	48 8b 4e 18          	mov    0x18(%rsi),%rcx
    5d5f:	48 89 c2             	mov    %rax,%rdx
    5d62:	48 89 ef             	mov    %rbp,%rdi
    5d65:	e8 96 ea ff ff       	callq  4800 <_PyDict_SetItem_KnownHash@plt>
    5d6a:	eb 0b                	jmp    5d77 <__pyx_pymod_exec_arrow_mouse+0xbe6>
    5d6c:	48 89 c2             	mov    %rax,%rdx
    5d6f:	48 89 ef             	mov    %rbp,%rdi
    5d72:	e8 d9 eb ff ff       	callq  4950 <PyObject_SetItem@plt>
    5d77:	c1 e8 1f             	shr    $0x1f,%eax
    5d7a:	84 c0                	test   %al,%al
    5d7c:	0f 85 2d 2c 00 00    	jne    89af <__pyx_pymod_exec_arrow_mouse+0x381e>
    5d82:	4c 89 e7             	mov    %r12,%rdi
    5d85:	e8 e5 49 00 00       	callq  a76f <_Py_DECREF.isra.0>
    5d8a:	4c 8b 05 57 e0 00 00 	mov    0xe057(%rip),%r8        # 13de8 <__pyx_codeobj__6>
    5d91:	48 8b 0d 08 e3 00 00 	mov    0xe308(%rip),%rcx        # 140a0 <__pyx_d>
    5d98:	48 8d 3d 61 c4 00 00 	lea    0xc461(%rip),%rdi        # 12200 <__pyx_mdef_11arrow_mouse_14Time_measuring_5delta_ts_ms>
    5d9f:	48 8b 15 5a e2 00 00 	mov    0xe25a(%rip),%rdx        # 14000 <__pyx_n_s_arrow_mouse>
    5da6:	48 8b 35 8b e2 00 00 	mov    0xe28b(%rip),%rsi        # 14038 <__pyx_n_s_Time_measuring_delta_ts_ms>
    5dad:	e8 dd f2 ff ff       	callq  508f <__Pyx_CyFunction_New.constprop.0>
    5db2:	49 89 c4             	mov    %rax,%r12
    5db5:	48 85 c0             	test   %rax,%rax
    5db8:	0f 84 09 2c 00 00    	je     89c7 <__pyx_pymod_exec_arrow_mouse+0x3836>
    5dbe:	48 8b 3d 8b e2 00 00 	mov    0xe28b(%rip),%rdi        # 14050 <__pyx_builtin_property>
    5dc5:	48 89 c6             	mov    %rax,%rsi
    5dc8:	e8 67 57 00 00       	callq  b534 <__Pyx_PyObject_CallOneArg>
    5dcd:	49 89 c5             	mov    %rax,%r13
    5dd0:	48 85 c0             	test   %rax,%rax
    5dd3:	0f 84 09 2c 00 00    	je     89e2 <__pyx_pymod_exec_arrow_mouse+0x3851>
    5dd9:	4c 89 e7             	mov    %r12,%rdi
    5ddc:	e8 8e 49 00 00       	callq  a76f <_Py_DECREF.isra.0>
    5de1:	48 39 5d 08          	cmp    %rbx,0x8(%rbp)
    5de5:	48 8b 35 dc e1 00 00 	mov    0xe1dc(%rip),%rsi        # 13fc8 <__pyx_n_s_delta_ts_ms>
    5dec:	75 11                	jne    5dff <__pyx_pymod_exec_arrow_mouse+0xc6e>
    5dee:	48 8b 4e 18          	mov    0x18(%rsi),%rcx
    5df2:	4c 89 ea             	mov    %r13,%rdx
    5df5:	48 89 ef             	mov    %rbp,%rdi
    5df8:	e8 03 ea ff ff       	callq  4800 <_PyDict_SetItem_KnownHash@plt>
    5dfd:	eb 0b                	jmp    5e0a <__pyx_pymod_exec_arrow_mouse+0xc79>
    5dff:	4c 89 ea             	mov    %r13,%rdx
    5e02:	48 89 ef             	mov    %rbp,%rdi
    5e05:	e8 46 eb ff ff       	callq  4950 <PyObject_SetItem@plt>
    5e0a:	c1 e8 1f             	shr    $0x1f,%eax
    5e0d:	84 c0                	test   %al,%al
    5e0f:	0f 85 e5 2b 00 00    	jne    89fa <__pyx_pymod_exec_arrow_mouse+0x3869>
    5e15:	4c 89 ef             	mov    %r13,%rdi
    5e18:	e8 52 49 00 00       	callq  a76f <_Py_DECREF.isra.0>
    5e1d:	4c 8b 05 bc df 00 00 	mov    0xdfbc(%rip),%r8        # 13de0 <__pyx_codeobj__8>
    5e24:	48 8b 0d 75 e2 00 00 	mov    0xe275(%rip),%rcx        # 140a0 <__pyx_d>
    5e2b:	48 8d 3d ae c3 00 00 	lea    0xc3ae(%rip),%rdi        # 121e0 <__pyx_mdef_11arrow_mouse_14Time_measuring_7fps>
    5e32:	48 8b 15 c7 e1 00 00 	mov    0xe1c7(%rip),%rdx        # 14000 <__pyx_n_s_arrow_mouse>
    5e39:	48 8b 35 f0 e1 00 00 	mov    0xe1f0(%rip),%rsi        # 14030 <__pyx_n_s_Time_measuring_fps>
    5e40:	e8 4a f2 ff ff       	callq  508f <__Pyx_CyFunction_New.constprop.0>
    5e45:	49 89 c5             	mov    %rax,%r13
    5e48:	48 85 c0             	test   %rax,%rax
    5e4b:	0f 84 c1 2b 00 00    	je     8a12 <__pyx_pymod_exec_arrow_mouse+0x3881>
    5e51:	48 8b 3d f8 e1 00 00 	mov    0xe1f8(%rip),%rdi        # 14050 <__pyx_builtin_property>
    5e58:	48 89 c6             	mov    %rax,%rsi
    5e5b:	e8 d4 56 00 00       	callq  b534 <__Pyx_PyObject_CallOneArg>
    5e60:	49 89 c4             	mov    %rax,%r12
    5e63:	48 85 c0             	test   %rax,%rax
    5e66:	0f 84 c1 2b 00 00    	je     8a2d <__pyx_pymod_exec_arrow_mouse+0x389c>
    5e6c:	4c 89 ef             	mov    %r13,%rdi
    5e6f:	e8 fb 48 00 00       	callq  a76f <_Py_DECREF.isra.0>
    5e74:	48 39 5d 08          	cmp    %rbx,0x8(%rbp)
    5e78:	48 8b 35 29 e1 00 00 	mov    0xe129(%rip),%rsi        # 13fa8 <__pyx_n_s_fps>
    5e7f:	75 11                	jne    5e92 <__pyx_pymod_exec_arrow_mouse+0xd01>
    5e81:	48 8b 4e 18          	mov    0x18(%rsi),%rcx
    5e85:	4c 89 e2             	mov    %r12,%rdx
    5e88:	48 89 ef             	mov    %rbp,%rdi
    5e8b:	e8 70 e9 ff ff       	callq  4800 <_PyDict_SetItem_KnownHash@plt>
    5e90:	eb 0b                	jmp    5e9d <__pyx_pymod_exec_arrow_mouse+0xd0c>
    5e92:	4c 89 e2             	mov    %r12,%rdx
    5e95:	48 89 ef             	mov    %rbp,%rdi
    5e98:	e8 b3 ea ff ff       	callq  4950 <PyObject_SetItem@plt>
    5e9d:	c1 e8 1f             	shr    $0x1f,%eax
    5ea0:	84 c0                	test   %al,%al
    5ea2:	0f 85 9d 2b 00 00    	jne    8a45 <__pyx_pymod_exec_arrow_mouse+0x38b4>
    5ea8:	4c 89 e7             	mov    %r12,%rdi
    5eab:	e8 bf 48 00 00       	callq  a76f <_Py_DECREF.isra.0>
    5eb0:	48 8b 35 69 e0 00 00 	mov    0xe069(%rip),%rsi        # 13f20 <__pyx_n_s_metaclass>
    5eb7:	48 89 ef             	mov    %rbp,%rdi
    5eba:	48 8b 1d c7 e1 00 00 	mov    0xe1c7(%rip),%rbx        # 14088 <__pyx_empty_tuple>
    5ec1:	4c 8b 25 80 e1 00 00 	mov    0xe180(%rip),%r12        # 14048 <__pyx_n_s_Time_measuring>
    5ec8:	e8 d3 e8 ff ff       	callq  47a0 <PyObject_GetItem@plt>
    5ecd:	49 89 c5             	mov    %rax,%r13
    5ed0:	48 85 c0             	test   %rax,%rax
    5ed3:	75 22                	jne    5ef7 <__pyx_pymod_exec_arrow_mouse+0xd66>
    5ed5:	48 8b 3d c4 c8 00 00 	mov    0xc8c4(%rip),%rdi        # 127a0 <PyExc_KeyError>
    5edc:	e8 5f e9 ff ff       	callq  4840 <PyErr_ExceptionMatches@plt>
    5ee1:	85 c0                	test   %eax,%eax
    5ee3:	0f 84 74 2b 00 00    	je     8a5d <__pyx_pymod_exec_arrow_mouse+0x38cc>
    5ee9:	e8 42 ec ff ff       	callq  4b30 <PyErr_Clear@plt>
    5eee:	4c 8d 3d 6b d1 00 00 	lea    0xd16b(%rip),%r15        # 13060 <PyType_Type>
    5ef5:	eb 03                	jmp    5efa <__pyx_pymod_exec_arrow_mouse+0xd69>
    5ef7:	49 89 c7             	mov    %rax,%r15
    5efa:	4c 89 e6             	mov    %r12,%rsi
    5efd:	48 89 e9             	mov    %rbp,%rcx
    5f00:	48 89 da             	mov    %rbx,%rdx
    5f03:	bf 03 00 00 00       	mov    $0x3,%edi
    5f08:	31 c0                	xor    %eax,%eax
    5f0a:	e8 e1 e9 ff ff       	callq  48f0 <PyTuple_Pack@plt>
    5f0f:	49 89 c4             	mov    %rax,%r12
    5f12:	48 85 c0             	test   %rax,%rax
    5f15:	74 1b                	je     5f32 <__pyx_pymod_exec_arrow_mouse+0xda1>
    5f17:	31 d2                	xor    %edx,%edx
    5f19:	48 89 c6             	mov    %rax,%rsi
    5f1c:	4c 89 ff             	mov    %r15,%rdi
    5f1f:	e8 7c eb ff ff       	callq  4aa0 <PyObject_Call@plt>
    5f24:	4c 89 e7             	mov    %r12,%rdi
    5f27:	48 89 c3             	mov    %rax,%rbx
    5f2a:	e8 40 48 00 00       	callq  a76f <_Py_DECREF.isra.0>
    5f2f:	49 89 dc             	mov    %rbx,%r12
    5f32:	4c 89 ef             	mov    %r13,%rdi
    5f35:	e8 25 49 00 00       	callq  a85f <_Py_XDECREF>
    5f3a:	4d 85 e4             	test   %r12,%r12
    5f3d:	0f 84 35 2b 00 00    	je     8a78 <__pyx_pymod_exec_arrow_mouse+0x38e7>
    5f43:	48 8b 35 fe e0 00 00 	mov    0xe0fe(%rip),%rsi        # 14048 <__pyx_n_s_Time_measuring>
    5f4a:	48 8b 3d 4f e1 00 00 	mov    0xe14f(%rip),%rdi        # 140a0 <__pyx_d>
    5f51:	4c 89 e2             	mov    %r12,%rdx
    5f54:	e8 f7 ec ff ff       	callq  4c50 <PyDict_SetItem@plt>
    5f59:	85 c0                	test   %eax,%eax
    5f5b:	0f 88 32 2b 00 00    	js     8a93 <__pyx_pymod_exec_arrow_mouse+0x3902>
    5f61:	4c 89 e7             	mov    %r12,%rdi
    5f64:	e8 06 48 00 00       	callq  a76f <_Py_DECREF.isra.0>
    5f69:	48 89 ef             	mov    %rbp,%rdi
    5f6c:	e8 fe 47 00 00       	callq  a76f <_Py_DECREF.isra.0>
    5f71:	48 8b 05 28 e1 00 00 	mov    0xe128(%rip),%rax        # 140a0 <__pyx_d>
    5f78:	48 8b 0d 21 de 00 00 	mov    0xde21(%rip),%rcx        # 13da0 <__pyx_dict_version.16043>
    5f7f:	48 39 48 18          	cmp    %rcx,0x18(%rax)
    5f83:	75 20                	jne    5fa5 <__pyx_pymod_exec_arrow_mouse+0xe14>
    5f85:	48 8b 2d 0c de 00 00 	mov    0xde0c(%rip),%rbp        # 13d98 <__pyx_dict_cached_value.16044>
    5f8c:	48 85 ed             	test   %rbp,%rbp
    5f8f:	74 06                	je     5f97 <__pyx_pymod_exec_arrow_mouse+0xe06>
    5f91:	48 ff 45 00          	incq   0x0(%rbp)
    5f95:	eb 34                	jmp    5fcb <__pyx_pymod_exec_arrow_mouse+0xe3a>
    5f97:	48 8b 3d 5a df 00 00 	mov    0xdf5a(%rip),%rdi        # 13ef8 <__pyx_n_s_name>
    5f9e:	e8 24 47 00 00       	callq  a6c7 <__Pyx_GetBuiltinName>
    5fa3:	eb 1a                	jmp    5fbf <__pyx_pymod_exec_arrow_mouse+0xe2e>
    5fa5:	48 8b 3d 4c df 00 00 	mov    0xdf4c(%rip),%rdi        # 13ef8 <__pyx_n_s_name>
    5fac:	48 8d 15 e5 dd 00 00 	lea    0xdde5(%rip),%rdx        # 13d98 <__pyx_dict_cached_value.16044>
    5fb3:	48 8d 35 e6 dd 00 00 	lea    0xdde6(%rip),%rsi        # 13da0 <__pyx_dict_version.16043>
    5fba:	e8 48 47 00 00       	callq  a707 <__Pyx__GetModuleGlobalName>
    5fbf:	48 89 c5             	mov    %rax,%rbp
    5fc2:	48 85 c0             	test   %rax,%rax
    5fc5:	0f 84 e0 2a 00 00    	je     8aab <__pyx_pymod_exec_arrow_mouse+0x391a>
    5fcb:	4c 8b 25 66 df 00 00 	mov    0xdf66(%rip),%r12        # 13f38 <__pyx_n_s_main>
    5fd2:	49 39 ec             	cmp    %rbp,%r12
    5fd5:	75 0a                	jne    5fe1 <__pyx_pymod_exec_arrow_mouse+0xe50>
    5fd7:	bb 01 00 00 00       	mov    $0x1,%ebx
    5fdc:	e9 89 02 00 00       	jmpq   626a <__pyx_pymod_exec_arrow_mouse+0x10d9>
    5fe1:	48 8d 05 d8 cc 00 00 	lea    0xccd8(%rip),%rax        # 12cc0 <PyUnicode_Type>
    5fe8:	48 39 45 08          	cmp    %rax,0x8(%rbp)
    5fec:	0f 94 c2             	sete   %dl
    5fef:	49 39 44 24 08       	cmp    %rax,0x8(%r12)
    5ff4:	0f 94 c1             	sete   %cl
    5ff7:	84 d2                	test   %dl,%dl
    5ff9:	0f 84 14 02 00 00    	je     6213 <__pyx_pymod_exec_arrow_mouse+0x1082>
    5fff:	84 c9                	test   %cl,%cl
    6001:	0f 84 0c 02 00 00    	je     6213 <__pyx_pymod_exec_arrow_mouse+0x1082>
    6007:	80 7d 20 00          	cmpb   $0x0,0x20(%rbp)
    600b:	79 0a                	jns    6017 <__pyx_pymod_exec_arrow_mouse+0xe86>
    600d:	41 80 7c 24 20 00    	cmpb   $0x0,0x20(%r12)
    6013:	79 52                	jns    6067 <__pyx_pymod_exec_arrow_mouse+0xed6>
    6015:	eb 27                	jmp    603e <__pyx_pymod_exec_arrow_mouse+0xead>
    6017:	48 89 ef             	mov    %rbp,%rdi
    601a:	e8 f1 eb ff ff       	callq  4c10 <_PyUnicode_Ready@plt>
    601f:	85 c0                	test   %eax,%eax
    6021:	79 ea                	jns    600d <__pyx_pymod_exec_arrow_mouse+0xe7c>
    6023:	31 db                	xor    %ebx,%ebx
    6025:	45 31 c9             	xor    %r9d,%r9d
    6028:	45 31 ed             	xor    %r13d,%r13d
    602b:	45 31 e4             	xor    %r12d,%r12d
    602e:	41 bf e2 0b 00 00    	mov    $0xbe2,%r15d
    6034:	ba 19 00 00 00       	mov    $0x19,%edx
    6039:	e9 09 f7 ff ff       	jmpq   5747 <__pyx_pymod_exec_arrow_mouse+0x5b6>
    603e:	48 8b 45 08          	mov    0x8(%rbp),%rax
    6042:	f6 80 ab 00 00 00 10 	testb  $0x10,0xab(%rax)
    6049:	75 43                	jne    608e <__pyx_pymod_exec_arrow_mouse+0xefd>
    604b:	48 8d 0d ae 7b 00 00 	lea    0x7bae(%rip),%rcx        # dc00 <__PRETTY_FUNCTION__.16781>
    6052:	ba 69 17 00 00       	mov    $0x1769,%edx
    6057:	48 8d 35 a6 6f 00 00 	lea    0x6fa6(%rip),%rsi        # d004 <_IO_stdin_used+0x4>
    605e:	48 8d 3d 8c 78 00 00 	lea    0x788c(%rip),%rdi        # d8f1 <_IO_stdin_used+0x8f1>
    6065:	eb 4a                	jmp    60b1 <__pyx_pymod_exec_arrow_mouse+0xf20>
    6067:	4c 89 e7             	mov    %r12,%rdi
    606a:	e8 a1 eb ff ff       	callq  4c10 <_PyUnicode_Ready@plt>
    606f:	85 c0                	test   %eax,%eax
    6071:	79 cb                	jns    603e <__pyx_pymod_exec_arrow_mouse+0xead>
    6073:	31 db                	xor    %ebx,%ebx
    6075:	45 31 c9             	xor    %r9d,%r9d
    6078:	45 31 ed             	xor    %r13d,%r13d
    607b:	45 31 e4             	xor    %r12d,%r12d
    607e:	41 bf e2 0b 00 00    	mov    $0xbe2,%r15d
    6084:	ba 19 00 00 00       	mov    $0x19,%edx
    6089:	e9 b9 f6 ff ff       	jmpq   5747 <__pyx_pymod_exec_arrow_mouse+0x5b6>
    608e:	40 8a 75 20          	mov    0x20(%rbp),%sil
    6092:	40 84 f6             	test   %sil,%sil
    6095:	78 1f                	js     60b6 <__pyx_pymod_exec_arrow_mouse+0xf25>
    6097:	48 8d 0d 62 7b 00 00 	lea    0x7b62(%rip),%rcx        # dc00 <__PRETTY_FUNCTION__.16781>
    609e:	ba 69 17 00 00       	mov    $0x1769,%edx
    60a3:	48 8d 35 5a 6f 00 00 	lea    0x6f5a(%rip),%rsi        # d004 <_IO_stdin_used+0x4>
    60aa:	48 8d 3d 54 78 00 00 	lea    0x7854(%rip),%rdi        # d905 <_IO_stdin_used+0x905>
    60b1:	e8 3a e6 ff ff       	callq  46f0 <__assert_fail@plt>
    60b6:	49 8b 44 24 08       	mov    0x8(%r12),%rax
    60bb:	4c 8b 45 10          	mov    0x10(%rbp),%r8
    60bf:	f6 80 ab 00 00 00 10 	testb  $0x10,0xab(%rax)
    60c6:	75 1c                	jne    60e4 <__pyx_pymod_exec_arrow_mouse+0xf53>
    60c8:	48 8d 0d 31 7b 00 00 	lea    0x7b31(%rip),%rcx        # dc00 <__PRETTY_FUNCTION__.16781>
    60cf:	ba 6a 17 00 00       	mov    $0x176a,%edx
    60d4:	48 8d 35 29 6f 00 00 	lea    0x6f29(%rip),%rsi        # d004 <_IO_stdin_used+0x4>
    60db:	48 8d 3d 3a 78 00 00 	lea    0x783a(%rip),%rdi        # d91c <_IO_stdin_used+0x91c>
    60e2:	eb cd                	jmp    60b1 <__pyx_pymod_exec_arrow_mouse+0xf20>
    60e4:	41 8a 4c 24 20       	mov    0x20(%r12),%cl
    60e9:	84 c9                	test   %cl,%cl
    60eb:	78 1c                	js     6109 <__pyx_pymod_exec_arrow_mouse+0xf78>
    60ed:	48 8d 0d 0c 7b 00 00 	lea    0x7b0c(%rip),%rcx        # dc00 <__PRETTY_FUNCTION__.16781>
    60f4:	ba 6a 17 00 00       	mov    $0x176a,%edx
    60f9:	48 8d 35 04 6f 00 00 	lea    0x6f04(%rip),%rsi        # d004 <_IO_stdin_used+0x4>
    6100:	48 8d 3d 29 78 00 00 	lea    0x7829(%rip),%rdi        # d930 <_IO_stdin_used+0x930>
    6107:	eb a8                	jmp    60b1 <__pyx_pymod_exec_arrow_mouse+0xf20>
    6109:	4d 3b 44 24 10       	cmp    0x10(%r12),%r8
    610e:	74 07                	je     6117 <__pyx_pymod_exec_arrow_mouse+0xf86>
    6110:	31 db                	xor    %ebx,%ebx
    6112:	e9 53 01 00 00       	jmpq   626a <__pyx_pymod_exec_arrow_mouse+0x10d9>
    6117:	48 8b 55 18          	mov    0x18(%rbp),%rdx
    611b:	49 8b 44 24 18       	mov    0x18(%r12),%rax
    6120:	48 39 c2             	cmp    %rax,%rdx
    6123:	40 0f 95 c7          	setne  %dil
    6127:	48 ff c2             	inc    %rdx
    612a:	0f 95 c2             	setne  %dl
    612d:	40 84 d7             	test   %dl,%dil
    6130:	74 05                	je     6137 <__pyx_pymod_exec_arrow_mouse+0xfa6>
    6132:	48 ff c0             	inc    %rax
    6135:	75 d9                	jne    6110 <__pyx_pymod_exec_arrow_mouse+0xf7f>
    6137:	89 f0                	mov    %esi,%eax
    6139:	89 ca                	mov    %ecx,%edx
    613b:	c0 e8 02             	shr    $0x2,%al
    613e:	c0 ea 02             	shr    $0x2,%dl
    6141:	83 e0 07             	and    $0x7,%eax
    6144:	83 e2 07             	and    $0x7,%edx
    6147:	44 0f b6 c8          	movzbl %al,%r9d
    614b:	38 d0                	cmp    %dl,%al
    614d:	75 c1                	jne    6110 <__pyx_pymod_exec_arrow_mouse+0xf7f>
    614f:	40 f6 c6 20          	test   $0x20,%sil
    6153:	74 10                	je     6165 <__pyx_pymod_exec_arrow_mouse+0xfd4>
    6155:	40 80 e6 40          	and    $0x40,%sil
    6159:	48 8d 7d 48          	lea    0x48(%rbp),%rdi
    615d:	74 2e                	je     618d <__pyx_pymod_exec_arrow_mouse+0xffc>
    615f:	48 8d 7d 30          	lea    0x30(%rbp),%rdi
    6163:	eb 28                	jmp    618d <__pyx_pymod_exec_arrow_mouse+0xffc>
    6165:	48 8b 7d 48          	mov    0x48(%rbp),%rdi
    6169:	48 85 ff             	test   %rdi,%rdi
    616c:	75 1f                	jne    618d <__pyx_pymod_exec_arrow_mouse+0xffc>
    616e:	48 8d 0d 8b 7a 00 00 	lea    0x7a8b(%rip),%rcx        # dc00 <__PRETTY_FUNCTION__.16781>
    6175:	ba 80 17 00 00       	mov    $0x1780,%edx
    617a:	48 8d 35 83 6e 00 00 	lea    0x6e83(%rip),%rsi        # d004 <_IO_stdin_used+0x4>
    6181:	48 8d 3d bf 77 00 00 	lea    0x77bf(%rip),%rdi        # d947 <_IO_stdin_used+0x947>
    6188:	e9 24 ff ff ff       	jmpq   60b1 <__pyx_pymod_exec_arrow_mouse+0xf20>
    618d:	f6 c1 20             	test   $0x20,%cl
    6190:	74 11                	je     61a3 <__pyx_pymod_exec_arrow_mouse+0x1012>
    6192:	80 e1 40             	and    $0x40,%cl
    6195:	49 8d 74 24 48       	lea    0x48(%r12),%rsi
    619a:	74 30                	je     61cc <__pyx_pymod_exec_arrow_mouse+0x103b>
    619c:	49 8d 74 24 30       	lea    0x30(%r12),%rsi
    61a1:	eb 29                	jmp    61cc <__pyx_pymod_exec_arrow_mouse+0x103b>
    61a3:	49 8b 74 24 48       	mov    0x48(%r12),%rsi
    61a8:	48 85 f6             	test   %rsi,%rsi
    61ab:	75 1f                	jne    61cc <__pyx_pymod_exec_arrow_mouse+0x103b>
    61ad:	48 8d 0d 4c 7a 00 00 	lea    0x7a4c(%rip),%rcx        # dc00 <__PRETTY_FUNCTION__.16781>
    61b4:	ba 81 17 00 00       	mov    $0x1781,%edx
    61b9:	48 8d 35 44 6e 00 00 	lea    0x6e44(%rip),%rsi        # d004 <_IO_stdin_used+0x4>
    61c0:	48 8d 3d a3 77 00 00 	lea    0x77a3(%rip),%rdi        # d96a <_IO_stdin_used+0x96a>
    61c7:	e9 e5 fe ff ff       	jmpq   60b1 <__pyx_pymod_exec_arrow_mouse+0xf20>
    61cc:	41 83 f9 01          	cmp    $0x1,%r9d
    61d0:	75 08                	jne    61da <__pyx_pymod_exec_arrow_mouse+0x1049>
    61d2:	0f b6 0f             	movzbl (%rdi),%ecx
    61d5:	0f b6 16             	movzbl (%rsi),%edx
    61d8:	eb 12                	jmp    61ec <__pyx_pymod_exec_arrow_mouse+0x105b>
    61da:	41 83 f9 02          	cmp    $0x2,%r9d
    61de:	75 08                	jne    61e8 <__pyx_pymod_exec_arrow_mouse+0x1057>
    61e0:	0f b7 0f             	movzwl (%rdi),%ecx
    61e3:	0f b7 16             	movzwl (%rsi),%edx
    61e6:	eb 04                	jmp    61ec <__pyx_pymod_exec_arrow_mouse+0x105b>
    61e8:	8b 0f                	mov    (%rdi),%ecx
    61ea:	8b 16                	mov    (%rsi),%edx
    61ec:	39 d1                	cmp    %edx,%ecx
    61ee:	0f 85 1c ff ff ff    	jne    6110 <__pyx_pymod_exec_arrow_mouse+0xf7f>
    61f4:	49 83 f8 01          	cmp    $0x1,%r8
    61f8:	0f 84 d9 fd ff ff    	je     5fd7 <__pyx_pymod_exec_arrow_mouse+0xe46>
    61fe:	0f b6 d0             	movzbl %al,%edx
    6201:	31 db                	xor    %ebx,%ebx
    6203:	49 0f af d0          	imul   %r8,%rdx
    6207:	e8 f4 e8 ff ff       	callq  4b00 <memcmp@plt>
    620c:	85 c0                	test   %eax,%eax
    620e:	0f 94 c3             	sete   %bl
    6211:	eb 57                	jmp    626a <__pyx_pymod_exec_arrow_mouse+0x10d9>
    6213:	48 8d 05 26 d3 00 00 	lea    0xd326(%rip),%rax        # 13540 <_Py_NoneStruct>
    621a:	48 39 c5             	cmp    %rax,%rbp
    621d:	75 08                	jne    6227 <__pyx_pymod_exec_arrow_mouse+0x1096>
    621f:	84 c9                	test   %cl,%cl
    6221:	0f 85 e9 fe ff ff    	jne    6110 <__pyx_pymod_exec_arrow_mouse+0xf7f>
    6227:	49 39 c4             	cmp    %rax,%r12
    622a:	75 08                	jne    6234 <__pyx_pymod_exec_arrow_mouse+0x10a3>
    622c:	84 d2                	test   %dl,%dl
    622e:	0f 85 dc fe ff ff    	jne    6110 <__pyx_pymod_exec_arrow_mouse+0xf7f>
    6234:	4c 89 e6             	mov    %r12,%rsi
    6237:	ba 02 00 00 00       	mov    $0x2,%edx
    623c:	48 89 ef             	mov    %rbp,%rdi
    623f:	e8 1c e7 ff ff       	callq  4960 <PyObject_RichCompare@plt>
    6244:	49 89 c4             	mov    %rax,%r12
    6247:	48 85 c0             	test   %rax,%rax
    624a:	0f 84 79 28 00 00    	je     8ac9 <__pyx_pymod_exec_arrow_mouse+0x3938>
    6250:	48 89 c7             	mov    %rax,%rdi
    6253:	e8 4e 41 00 00       	callq  a3a6 <__Pyx_PyObject_IsTrue>
    6258:	4c 89 e7             	mov    %r12,%rdi
    625b:	89 c3                	mov    %eax,%ebx
    625d:	e8 0d 45 00 00       	callq  a76f <_Py_DECREF.isra.0>
    6262:	85 db                	test   %ebx,%ebx
    6264:	0f 88 7a 28 00 00    	js     8ae4 <__pyx_pymod_exec_arrow_mouse+0x3953>
    626a:	48 89 ef             	mov    %rbp,%rdi
    626d:	e8 fd 44 00 00       	callq  a76f <_Py_DECREF.isra.0>
    6272:	85 db                	test   %ebx,%ebx
    6274:	0f 84 96 25 00 00    	je     8810 <__pyx_pymod_exec_arrow_mouse+0x367f>
    627a:	48 8b 3d e7 db 00 00 	mov    0xdbe7(%rip),%rdi        # 13e68 <__pyx_n_s_test>
    6281:	e8 88 ed ff ff       	callq  500e <__Pyx_PrintOne.constprop.0>
    6286:	85 c0                	test   %eax,%eax
    6288:	0f 88 71 28 00 00    	js     8aff <__pyx_pymod_exec_arrow_mouse+0x396e>
    628e:	48 8b 15 83 db 00 00 	mov    0xdb83(%rip),%rdx        # 13e18 <__pyx_int_0>
    6295:	48 8b 35 d4 db 00 00 	mov    0xdbd4(%rip),%rsi        # 13e70 <__pyx_n_s_t>
    629c:	48 8b 3d fd dd 00 00 	mov    0xddfd(%rip),%rdi        # 140a0 <__pyx_d>
    62a3:	e8 a8 e9 ff ff       	callq  4c50 <PyDict_SetItem@plt>
    62a8:	85 c0                	test   %eax,%eax
    62aa:	0f 88 6c 28 00 00    	js     8b1c <__pyx_pymod_exec_arrow_mouse+0x398b>
    62b0:	48 8b 15 61 db 00 00 	mov    0xdb61(%rip),%rdx        # 13e18 <__pyx_int_0>
    62b7:	48 8b 35 82 db 00 00 	mov    0xdb82(%rip),%rsi        # 13e40 <__pyx_n_s_tt>
    62be:	48 8b 3d db dd 00 00 	mov    0xdddb(%rip),%rdi        # 140a0 <__pyx_d>
    62c5:	e8 86 e9 ff ff       	callq  4c50 <PyDict_SetItem@plt>
    62ca:	85 c0                	test   %eax,%eax
    62cc:	0f 88 67 28 00 00    	js     8b39 <__pyx_pymod_exec_arrow_mouse+0x39a8>
    62d2:	48 8b 05 c7 dd 00 00 	mov    0xddc7(%rip),%rax        # 140a0 <__pyx_d>
    62d9:	48 8b 0d b0 da 00 00 	mov    0xdab0(%rip),%rcx        # 13d90 <__pyx_dict_version.16045>
    62e0:	48 39 48 18          	cmp    %rcx,0x18(%rax)
    62e4:	75 20                	jne    6306 <__pyx_pymod_exec_arrow_mouse+0x1175>
    62e6:	48 8b 2d 9b da 00 00 	mov    0xda9b(%rip),%rbp        # 13d88 <__pyx_dict_cached_value.16046>
    62ed:	48 85 ed             	test   %rbp,%rbp
    62f0:	74 06                	je     62f8 <__pyx_pymod_exec_arrow_mouse+0x1167>
    62f2:	48 ff 45 00          	incq   0x0(%rbp)
    62f6:	eb 34                	jmp    632c <__pyx_pymod_exec_arrow_mouse+0x119b>
    62f8:	48 8b 3d 49 dd 00 00 	mov    0xdd49(%rip),%rdi        # 14048 <__pyx_n_s_Time_measuring>
    62ff:	e8 c3 43 00 00       	callq  a6c7 <__Pyx_GetBuiltinName>
    6304:	eb 1a                	jmp    6320 <__pyx_pymod_exec_arrow_mouse+0x118f>
    6306:	48 8b 3d 3b dd 00 00 	mov    0xdd3b(%rip),%rdi        # 14048 <__pyx_n_s_Time_measuring>
    630d:	48 8d 15 74 da 00 00 	lea    0xda74(%rip),%rdx        # 13d88 <__pyx_dict_cached_value.16046>
    6314:	48 8d 35 75 da 00 00 	lea    0xda75(%rip),%rsi        # 13d90 <__pyx_dict_version.16045>
    631b:	e8 e7 43 00 00       	callq  a707 <__Pyx__GetModuleGlobalName>
    6320:	48 89 c5             	mov    %rax,%rbp
    6323:	48 85 c0             	test   %rax,%rax
    6326:	0f 84 2a 28 00 00    	je     8b56 <__pyx_pymod_exec_arrow_mouse+0x39c5>
    632c:	48 89 ef             	mov    %rbp,%rdi
    632f:	e8 e7 52 00 00       	callq  b61b <__Pyx_PyObject_CallNoArg>
    6334:	49 89 c4             	mov    %rax,%r12
    6337:	48 85 c0             	test   %rax,%rax
    633a:	0f 84 34 28 00 00    	je     8b74 <__pyx_pymod_exec_arrow_mouse+0x39e3>
    6340:	48 89 ef             	mov    %rbp,%rdi
    6343:	e8 27 44 00 00       	callq  a76f <_Py_DECREF.isra.0>
    6348:	48 8b 35 e9 da 00 00 	mov    0xdae9(%rip),%rsi        # 13e38 <__pyx_n_s_while_loop_t>
    634f:	48 8b 3d 4a dd 00 00 	mov    0xdd4a(%rip),%rdi        # 140a0 <__pyx_d>
    6356:	4c 89 e2             	mov    %r12,%rdx
    6359:	e8 f2 e8 ff ff       	callq  4c50 <PyDict_SetItem@plt>
    635e:	85 c0                	test   %eax,%eax
    6360:	0f 88 29 28 00 00    	js     8b8f <__pyx_pymod_exec_arrow_mouse+0x39fe>
    6366:	4c 89 e7             	mov    %r12,%rdi
    6369:	e8 01 44 00 00       	callq  a76f <_Py_DECREF.isra.0>
    636e:	48 8b 05 2b dd 00 00 	mov    0xdd2b(%rip),%rax        # 140a0 <__pyx_d>
    6375:	48 8b 0d 04 da 00 00 	mov    0xda04(%rip),%rcx        # 13d80 <__pyx_dict_version.16047>
    637c:	48 39 48 18          	cmp    %rcx,0x18(%rax)
    6380:	75 20                	jne    63a2 <__pyx_pymod_exec_arrow_mouse+0x1211>
    6382:	4c 8b 25 ef d9 00 00 	mov    0xd9ef(%rip),%r12        # 13d78 <__pyx_dict_cached_value.16048>
    6389:	4d 85 e4             	test   %r12,%r12
    638c:	74 06                	je     6394 <__pyx_pymod_exec_arrow_mouse+0x1203>
    638e:	49 ff 04 24          	incq   (%r12)
    6392:	eb 34                	jmp    63c8 <__pyx_pymod_exec_arrow_mouse+0x1237>
    6394:	48 8b 3d ad dc 00 00 	mov    0xdcad(%rip),%rdi        # 14048 <__pyx_n_s_Time_measuring>
    639b:	e8 27 43 00 00       	callq  a6c7 <__Pyx_GetBuiltinName>
    63a0:	eb 1a                	jmp    63bc <__pyx_pymod_exec_arrow_mouse+0x122b>
    63a2:	48 8b 3d 9f dc 00 00 	mov    0xdc9f(%rip),%rdi        # 14048 <__pyx_n_s_Time_measuring>
    63a9:	48 8d 15 c8 d9 00 00 	lea    0xd9c8(%rip),%rdx        # 13d78 <__pyx_dict_cached_value.16048>
    63b0:	48 8d 35 c9 d9 00 00 	lea    0xd9c9(%rip),%rsi        # 13d80 <__pyx_dict_version.16047>
    63b7:	e8 4b 43 00 00       	callq  a707 <__Pyx__GetModuleGlobalName>
    63bc:	49 89 c4             	mov    %rax,%r12
    63bf:	48 85 c0             	test   %rax,%rax
    63c2:	0f 84 e1 27 00 00    	je     8ba9 <__pyx_pymod_exec_arrow_mouse+0x3a18>
    63c8:	4c 89 e7             	mov    %r12,%rdi
    63cb:	e8 4b 52 00 00       	callq  b61b <__Pyx_PyObject_CallNoArg>
    63d0:	48 89 c5             	mov    %rax,%rbp
    63d3:	48 85 c0             	test   %rax,%rax
    63d6:	0f 84 ea 27 00 00    	je     8bc6 <__pyx_pymod_exec_arrow_mouse+0x3a35>
    63dc:	4c 89 e7             	mov    %r12,%rdi
    63df:	e8 8b 43 00 00       	callq  a76f <_Py_DECREF.isra.0>
    63e4:	48 8b 35 25 dc 00 00 	mov    0xdc25(%rip),%rsi        # 14010 <__pyx_n_s_alt_pressed_measuring>
    63eb:	48 8b 3d ae dc 00 00 	mov    0xdcae(%rip),%rdi        # 140a0 <__pyx_d>
    63f2:	48 89 ea             	mov    %rbp,%rdx
    63f5:	e8 56 e8 ff ff       	callq  4c50 <PyDict_SetItem@plt>
    63fa:	85 c0                	test   %eax,%eax
    63fc:	0f 88 df 27 00 00    	js     8be1 <__pyx_pymod_exec_arrow_mouse+0x3a50>
    6402:	48 89 ef             	mov    %rbp,%rdi
    6405:	e8 65 43 00 00       	callq  a76f <_Py_DECREF.isra.0>
    640a:	48 8b 15 f7 d9 00 00 	mov    0xd9f7(%rip),%rdx        # 13e08 <__pyx_int_144>
    6411:	48 8b 35 88 db 00 00 	mov    0xdb88(%rip),%rsi        # 13fa0 <__pyx_n_s_fps_screen_nowadays>
    6418:	48 8b 3d 81 dc 00 00 	mov    0xdc81(%rip),%rdi        # 140a0 <__pyx_d>
    641f:	e8 2c e8 ff ff       	callq  4c50 <PyDict_SetItem@plt>
    6424:	85 c0                	test   %eax,%eax
    6426:	0f 88 d0 27 00 00    	js     8bfc <__pyx_pymod_exec_arrow_mouse+0x3a6b>
    642c:	48 8b 35 1d db 00 00 	mov    0xdb1d(%rip),%rsi        # 13f50 <__pyx_n_s_last_move_mouse>
    6433:	48 8b 3d 66 dc 00 00 	mov    0xdc66(%rip),%rdi        # 140a0 <__pyx_d>
    643a:	48 8d 15 5f c8 00 00 	lea    0xc85f(%rip),%rdx        # 12ca0 <_Py_FalseStruct>
    6441:	e8 0a e8 ff ff       	callq  4c50 <PyDict_SetItem@plt>
    6446:	85 c0                	test   %eax,%eax
    6448:	0f 88 cb 27 00 00    	js     8c19 <__pyx_pymod_exec_arrow_mouse+0x3a88>
    644e:	48 8b 15 23 da 00 00 	mov    0xda23(%rip),%rdx        # 13e78 <__pyx_n_s_speed_function_quadric>
    6455:	48 8b 35 74 db 00 00 	mov    0xdb74(%rip),%rsi        # 13fd0 <__pyx_n_s_current_speed_function>
    645c:	48 8b 3d 3d dc 00 00 	mov    0xdc3d(%rip),%rdi        # 140a0 <__pyx_d>
    6463:	e8 e8 e7 ff ff       	callq  4c50 <PyDict_SetItem@plt>
    6468:	85 c0                	test   %eax,%eax
    646a:	0f 88 c6 27 00 00    	js     8c36 <__pyx_pymod_exec_arrow_mouse+0x3aa5>
    6470:	48 8b 15 89 db 00 00 	mov    0xdb89(%rip),%rdx        # 14000 <__pyx_n_s_arrow_mouse>
    6477:	31 f6                	xor    %esi,%esi
    6479:	48 8d 3d 40 bd 00 00 	lea    0xbd40(%rip),%rdi        # 121c0 <__pyx_mdef_11arrow_mouse_1speed_function_quadric>
    6480:	e8 eb e4 ff ff       	callq  4970 <PyCFunction_NewEx@plt>
    6485:	48 89 c5             	mov    %rax,%rbp
    6488:	48 85 c0             	test   %rax,%rax
    648b:	0f 84 c2 27 00 00    	je     8c53 <__pyx_pymod_exec_arrow_mouse+0x3ac2>
    6491:	48 8b 35 e0 d9 00 00 	mov    0xd9e0(%rip),%rsi        # 13e78 <__pyx_n_s_speed_function_quadric>
    6498:	48 8b 3d 01 dc 00 00 	mov    0xdc01(%rip),%rdi        # 140a0 <__pyx_d>
    649f:	48 89 c2             	mov    %rax,%rdx
    64a2:	e8 a9 e7 ff ff       	callq  4c50 <PyDict_SetItem@plt>
    64a7:	85 c0                	test   %eax,%eax
    64a9:	0f 88 c2 27 00 00    	js     8c71 <__pyx_pymod_exec_arrow_mouse+0x3ae0>
    64af:	48 89 ef             	mov    %rbp,%rdi
    64b2:	e8 b8 42 00 00       	callq  a76f <_Py_DECREF.isra.0>
    64b7:	48 8b 15 42 db 00 00 	mov    0xdb42(%rip),%rdx        # 14000 <__pyx_n_s_arrow_mouse>
    64be:	31 f6                	xor    %esi,%esi
    64c0:	48 8d 3d d9 bc 00 00 	lea    0xbcd9(%rip),%rdi        # 121a0 <__pyx_mdef_11arrow_mouse_3speed_function_linear>
    64c7:	e8 a4 e4 ff ff       	callq  4970 <PyCFunction_NewEx@plt>
    64cc:	48 89 c5             	mov    %rax,%rbp
    64cf:	48 85 c0             	test   %rax,%rax
    64d2:	0f 84 b4 27 00 00    	je     8c8c <__pyx_pymod_exec_arrow_mouse+0x3afb>
    64d8:	48 8b 35 a1 d9 00 00 	mov    0xd9a1(%rip),%rsi        # 13e80 <__pyx_n_s_speed_function_linear>
    64df:	48 8b 3d ba db 00 00 	mov    0xdbba(%rip),%rdi        # 140a0 <__pyx_d>
    64e6:	48 89 c2             	mov    %rax,%rdx
    64e9:	e8 62 e7 ff ff       	callq  4c50 <PyDict_SetItem@plt>
    64ee:	85 c0                	test   %eax,%eax
    64f0:	0f 88 b4 27 00 00    	js     8caa <__pyx_pymod_exec_arrow_mouse+0x3b19>
    64f6:	48 89 ef             	mov    %rbp,%rdi
    64f9:	e8 71 42 00 00       	callq  a76f <_Py_DECREF.isra.0>
    64fe:	48 8b 15 fb da 00 00 	mov    0xdafb(%rip),%rdx        # 14000 <__pyx_n_s_arrow_mouse>
    6505:	31 f6                	xor    %esi,%esi
    6507:	48 8d 3d 72 bc 00 00 	lea    0xbc72(%rip),%rdi        # 12180 <__pyx_mdef_11arrow_mouse_5speed_function>
    650e:	e8 5d e4 ff ff       	callq  4970 <PyCFunction_NewEx@plt>
    6513:	48 89 c5             	mov    %rax,%rbp
    6516:	48 85 c0             	test   %rax,%rax
    6519:	0f 84 a6 27 00 00    	je     8cc5 <__pyx_pymod_exec_arrow_mouse+0x3b34>
    651f:	48 8b 35 62 d9 00 00 	mov    0xd962(%rip),%rsi        # 13e88 <__pyx_n_s_speed_function>
    6526:	48 8b 3d 73 db 00 00 	mov    0xdb73(%rip),%rdi        # 140a0 <__pyx_d>
    652d:	48 89 c2             	mov    %rax,%rdx
    6530:	e8 1b e7 ff ff       	callq  4c50 <PyDict_SetItem@plt>
    6535:	85 c0                	test   %eax,%eax
    6537:	0f 88 a6 27 00 00    	js     8ce3 <__pyx_pymod_exec_arrow_mouse+0x3b52>
    653d:	48 89 ef             	mov    %rbp,%rdi
    6540:	e8 2a 42 00 00       	callq  a76f <_Py_DECREF.isra.0>
    6545:	48 8b 05 54 db 00 00 	mov    0xdb54(%rip),%rax        # 140a0 <__pyx_d>
    654c:	48 8b 0d 1d d8 00 00 	mov    0xd81d(%rip),%rcx        # 13d70 <__pyx_dict_version.16049>
    6553:	48 39 48 18          	cmp    %rcx,0x18(%rax)
    6557:	75 20                	jne    6579 <__pyx_pymod_exec_arrow_mouse+0x13e8>
    6559:	4c 8b 25 08 d8 00 00 	mov    0xd808(%rip),%r12        # 13d68 <__pyx_dict_cached_value.16050>
    6560:	4d 85 e4             	test   %r12,%r12
    6563:	74 06                	je     656b <__pyx_pymod_exec_arrow_mouse+0x13da>
    6565:	49 ff 04 24          	incq   (%r12)
    6569:	eb 34                	jmp    659f <__pyx_pymod_exec_arrow_mouse+0x140e>
    656b:	48 8b 3d c6 d8 00 00 	mov    0xd8c6(%rip),%rdi        # 13e38 <__pyx_n_s_while_loop_t>
    6572:	e8 50 41 00 00       	callq  a6c7 <__Pyx_GetBuiltinName>
    6577:	eb 1a                	jmp    6593 <__pyx_pymod_exec_arrow_mouse+0x1402>
    6579:	48 8b 3d b8 d8 00 00 	mov    0xd8b8(%rip),%rdi        # 13e38 <__pyx_n_s_while_loop_t>
    6580:	48 8d 15 e1 d7 00 00 	lea    0xd7e1(%rip),%rdx        # 13d68 <__pyx_dict_cached_value.16050>
    6587:	48 8d 35 e2 d7 00 00 	lea    0xd7e2(%rip),%rsi        # 13d70 <__pyx_dict_version.16049>
    658e:	e8 74 41 00 00       	callq  a707 <__Pyx__GetModuleGlobalName>
    6593:	49 89 c4             	mov    %rax,%r12
    6596:	48 85 c0             	test   %rax,%rax
    6599:	0f 84 5f 27 00 00    	je     8cfe <__pyx_pymod_exec_arrow_mouse+0x3b6d>
    659f:	48 8b 35 82 d9 00 00 	mov    0xd982(%rip),%rsi        # 13f28 <__pyx_n_s_measure>
    65a6:	4c 89 e7             	mov    %r12,%rdi
    65a9:	e8 67 3c 00 00       	callq  a215 <__Pyx_PyObject_GetAttrStr>
    65ae:	48 89 c5             	mov    %rax,%rbp
    65b1:	48 85 c0             	test   %rax,%rax
    65b4:	0f 84 61 27 00 00    	je     8d1b <__pyx_pymod_exec_arrow_mouse+0x3b8a>
    65ba:	4c 89 e7             	mov    %r12,%rdi
    65bd:	e8 ad 41 00 00       	callq  a76f <_Py_DECREF.isra.0>
    65c2:	48 8d 05 37 cc 00 00 	lea    0xcc37(%rip),%rax        # 13200 <PyMethod_Type>
    65c9:	48 39 45 08          	cmp    %rax,0x8(%rbp)
    65cd:	75 2a                	jne    65f9 <__pyx_pymod_exec_arrow_mouse+0x1468>
    65cf:	4c 8b 65 18          	mov    0x18(%rbp),%r12
    65d3:	4d 85 e4             	test   %r12,%r12
    65d6:	74 21                	je     65f9 <__pyx_pymod_exec_arrow_mouse+0x1468>
    65d8:	4c 8b 6d 10          	mov    0x10(%rbp),%r13
    65dc:	49 ff 04 24          	incq   (%r12)
    65e0:	48 89 ef             	mov    %rbp,%rdi
    65e3:	49 ff 45 00          	incq   0x0(%r13)
    65e7:	e8 83 41 00 00       	callq  a76f <_Py_DECREF.isra.0>
    65ec:	4c 89 e6             	mov    %r12,%rsi
    65ef:	4c 89 ef             	mov    %r13,%rdi
    65f2:	e8 3d 4f 00 00       	callq  b534 <__Pyx_PyObject_CallOneArg>
    65f7:	eb 0e                	jmp    6607 <__pyx_pymod_exec_arrow_mouse+0x1476>
    65f9:	48 89 ef             	mov    %rbp,%rdi
    65fc:	49 89 ed             	mov    %rbp,%r13
    65ff:	45 31 e4             	xor    %r12d,%r12d
    6602:	e8 14 50 00 00       	callq  b61b <__Pyx_PyObject_CallNoArg>
    6607:	48 89 c5             	mov    %rax,%rbp
    660a:	4c 89 e7             	mov    %r12,%rdi
    660d:	e8 4d 42 00 00       	callq  a85f <_Py_XDECREF>
    6612:	48 85 ed             	test   %rbp,%rbp
    6615:	0f 84 1b 27 00 00    	je     8d36 <__pyx_pymod_exec_arrow_mouse+0x3ba5>
    661b:	4c 89 ef             	mov    %r13,%rdi
    661e:	e8 4c 41 00 00       	callq  a76f <_Py_DECREF.isra.0>
    6623:	48 89 ef             	mov    %rbp,%rdi
    6626:	e8 44 41 00 00       	callq  a76f <_Py_DECREF.isra.0>
    662b:	48 8b 05 6e da 00 00 	mov    0xda6e(%rip),%rax        # 140a0 <__pyx_d>
    6632:	48 8b 0d 27 d7 00 00 	mov    0xd727(%rip),%rcx        # 13d60 <__pyx_dict_version.16053>
    6639:	48 39 48 18          	cmp    %rcx,0x18(%rax)
    663d:	75 20                	jne    665f <__pyx_pymod_exec_arrow_mouse+0x14ce>
    663f:	48 8b 2d 12 d7 00 00 	mov    0xd712(%rip),%rbp        # 13d58 <__pyx_dict_cached_value.16054>
    6646:	48 85 ed             	test   %rbp,%rbp
    6649:	74 06                	je     6651 <__pyx_pymod_exec_arrow_mouse+0x14c0>
    664b:	48 ff 45 00          	incq   0x0(%rbp)
    664f:	eb 34                	jmp    6685 <__pyx_pymod_exec_arrow_mouse+0x14f4>
    6651:	48 8b 3d e8 d7 00 00 	mov    0xd7e8(%rip),%rdi        # 13e40 <__pyx_n_s_tt>
    6658:	e8 6a 40 00 00       	callq  a6c7 <__Pyx_GetBuiltinName>
    665d:	eb 1a                	jmp    6679 <__pyx_pymod_exec_arrow_mouse+0x14e8>
    665f:	48 8b 3d da d7 00 00 	mov    0xd7da(%rip),%rdi        # 13e40 <__pyx_n_s_tt>
    6666:	48 8d 15 eb d6 00 00 	lea    0xd6eb(%rip),%rdx        # 13d58 <__pyx_dict_cached_value.16054>
    666d:	48 8d 35 ec d6 00 00 	lea    0xd6ec(%rip),%rsi        # 13d60 <__pyx_dict_version.16053>
    6674:	e8 8e 40 00 00       	callq  a707 <__Pyx__GetModuleGlobalName>
    6679:	48 89 c5             	mov    %rax,%rbp
    667c:	48 85 c0             	test   %rax,%rax
    667f:	0f 84 cc 26 00 00    	je     8d51 <__pyx_pymod_exec_arrow_mouse+0x3bc0>
    6685:	48 8b 35 84 d7 00 00 	mov    0xd784(%rip),%rsi        # 13e10 <__pyx_int_1>
    668c:	ba 01 00 00 00       	mov    $0x1,%edx
    6691:	48 89 ef             	mov    %rbp,%rdi
    6694:	e8 ef 49 00 00       	callq  b088 <__Pyx_PyInt_AddObjC.isra.0.constprop.0>
    6699:	49 89 c5             	mov    %rax,%r13
    669c:	48 85 c0             	test   %rax,%rax
    669f:	0f 84 ca 26 00 00    	je     8d6f <__pyx_pymod_exec_arrow_mouse+0x3bde>
    66a5:	48 89 ef             	mov    %rbp,%rdi
    66a8:	e8 c2 40 00 00       	callq  a76f <_Py_DECREF.isra.0>
    66ad:	48 8b 35 8c d7 00 00 	mov    0xd78c(%rip),%rsi        # 13e40 <__pyx_n_s_tt>
    66b4:	48 8b 3d e5 d9 00 00 	mov    0xd9e5(%rip),%rdi        # 140a0 <__pyx_d>
    66bb:	4c 89 ea             	mov    %r13,%rdx
    66be:	e8 8d e5 ff ff       	callq  4c50 <PyDict_SetItem@plt>
    66c3:	85 c0                	test   %eax,%eax
    66c5:	0f 88 bf 26 00 00    	js     8d8a <__pyx_pymod_exec_arrow_mouse+0x3bf9>
    66cb:	4c 89 ef             	mov    %r13,%rdi
    66ce:	e8 9c 40 00 00       	callq  a76f <_Py_DECREF.isra.0>
    66d3:	48 8b 05 c6 d9 00 00 	mov    0xd9c6(%rip),%rax        # 140a0 <__pyx_d>
    66da:	48 8b 0d 6f d6 00 00 	mov    0xd66f(%rip),%rcx        # 13d50 <__pyx_dict_version.16055>
    66e1:	48 8b 3d 68 d7 00 00 	mov    0xd768(%rip),%rdi        # 13e50 <__pyx_n_s_time>
    66e8:	48 39 48 18          	cmp    %rcx,0x18(%rax)
    66ec:	75 19                	jne    6707 <__pyx_pymod_exec_arrow_mouse+0x1576>
    66ee:	48 8b 2d 53 d6 00 00 	mov    0xd653(%rip),%rbp        # 13d48 <__pyx_dict_cached_value.16056>
    66f5:	48 85 ed             	test   %rbp,%rbp
    66f8:	74 06                	je     6700 <__pyx_pymod_exec_arrow_mouse+0x156f>
    66fa:	48 ff 45 00          	incq   0x0(%rbp)
    66fe:	eb 26                	jmp    6726 <__pyx_pymod_exec_arrow_mouse+0x1595>
    6700:	e8 c2 3f 00 00       	callq  a6c7 <__Pyx_GetBuiltinName>
    6705:	eb 13                	jmp    671a <__pyx_pymod_exec_arrow_mouse+0x1589>
    6707:	48 8d 15 3a d6 00 00 	lea    0xd63a(%rip),%rdx        # 13d48 <__pyx_dict_cached_value.16056>
    670e:	48 8d 35 3b d6 00 00 	lea    0xd63b(%rip),%rsi        # 13d50 <__pyx_dict_version.16055>
    6715:	e8 ed 3f 00 00       	callq  a707 <__Pyx__GetModuleGlobalName>
    671a:	48 89 c5             	mov    %rax,%rbp
    671d:	48 85 c0             	test   %rax,%rax
    6720:	0f 84 7e 26 00 00    	je     8da4 <__pyx_pymod_exec_arrow_mouse+0x3c13>
    6726:	48 8b 35 23 d7 00 00 	mov    0xd723(%rip),%rsi        # 13e50 <__pyx_n_s_time>
    672d:	48 89 ef             	mov    %rbp,%rdi
    6730:	e8 e0 3a 00 00       	callq  a215 <__Pyx_PyObject_GetAttrStr>
    6735:	49 89 c4             	mov    %rax,%r12
    6738:	48 85 c0             	test   %rax,%rax
    673b:	0f 84 81 26 00 00    	je     8dc2 <__pyx_pymod_exec_arrow_mouse+0x3c31>
    6741:	48 89 ef             	mov    %rbp,%rdi
    6744:	e8 26 40 00 00       	callq  a76f <_Py_DECREF.isra.0>
    6749:	48 8d 05 b0 ca 00 00 	lea    0xcab0(%rip),%rax        # 13200 <PyMethod_Type>
    6750:	49 39 44 24 08       	cmp    %rax,0x8(%r12)
    6755:	75 31                	jne    6788 <__pyx_pymod_exec_arrow_mouse+0x15f7>
    6757:	49 8b 6c 24 18       	mov    0x18(%r12),%rbp
    675c:	48 85 ed             	test   %rbp,%rbp
    675f:	74 27                	je     6788 <__pyx_pymod_exec_arrow_mouse+0x15f7>
    6761:	4d 8b 7c 24 10       	mov    0x10(%r12),%r15
    6766:	48 ff 45 00          	incq   0x0(%rbp)
    676a:	4c 89 e7             	mov    %r12,%rdi
    676d:	49 ff 07             	incq   (%r15)
    6770:	4d 89 fc             	mov    %r15,%r12
    6773:	e8 f7 3f 00 00       	callq  a76f <_Py_DECREF.isra.0>
    6778:	48 89 ee             	mov    %rbp,%rsi
    677b:	4c 89 ff             	mov    %r15,%rdi
    677e:	e8 b1 4d 00 00       	callq  b534 <__Pyx_PyObject_CallOneArg>
    6783:	49 89 c5             	mov    %rax,%r13
    6786:	eb 0d                	jmp    6795 <__pyx_pymod_exec_arrow_mouse+0x1604>
    6788:	4c 89 e7             	mov    %r12,%rdi
    678b:	31 ed                	xor    %ebp,%ebp
    678d:	e8 89 4e 00 00       	callq  b61b <__Pyx_PyObject_CallNoArg>
    6792:	49 89 c5             	mov    %rax,%r13
    6795:	48 89 ef             	mov    %rbp,%rdi
    6798:	e8 c2 40 00 00       	callq  a85f <_Py_XDECREF>
    679d:	4d 85 ed             	test   %r13,%r13
    67a0:	0f 84 37 26 00 00    	je     8ddd <__pyx_pymod_exec_arrow_mouse+0x3c4c>
    67a6:	4c 89 e7             	mov    %r12,%rdi
    67a9:	e8 c1 3f 00 00       	callq  a76f <_Py_DECREF.isra.0>
    67ae:	48 8b 35 a3 d6 00 00 	mov    0xd6a3(%rip),%rsi        # 13e58 <__pyx_n_s_this_ts_ms>
    67b5:	48 8b 3d e4 d8 00 00 	mov    0xd8e4(%rip),%rdi        # 140a0 <__pyx_d>
    67bc:	4c 89 ea             	mov    %r13,%rdx
    67bf:	e8 8c e4 ff ff       	callq  4c50 <PyDict_SetItem@plt>
    67c4:	85 c0                	test   %eax,%eax
    67c6:	0f 88 2b 26 00 00    	js     8df7 <__pyx_pymod_exec_arrow_mouse+0x3c66>
    67cc:	4c 89 ef             	mov    %r13,%rdi
    67cf:	e8 9b 3f 00 00       	callq  a76f <_Py_DECREF.isra.0>
    67d4:	48 8b 05 c5 d8 00 00 	mov    0xd8c5(%rip),%rax        # 140a0 <__pyx_d>
    67db:	48 8b 0d 5e d5 00 00 	mov    0xd55e(%rip),%rcx        # 13d40 <__pyx_dict_version.16059>
    67e2:	48 39 48 18          	cmp    %rcx,0x18(%rax)
    67e6:	75 20                	jne    6808 <__pyx_pymod_exec_arrow_mouse+0x1677>
    67e8:	4c 8b 25 49 d5 00 00 	mov    0xd549(%rip),%r12        # 13d38 <__pyx_dict_cached_value.16060>
    67ef:	4d 85 e4             	test   %r12,%r12
    67f2:	74 06                	je     67fa <__pyx_pymod_exec_arrow_mouse+0x1669>
    67f4:	49 ff 04 24          	incq   (%r12)
    67f8:	eb 34                	jmp    682e <__pyx_pymod_exec_arrow_mouse+0x169d>
    67fa:	48 8b 3d 5f d7 00 00 	mov    0xd75f(%rip),%rdi        # 13f60 <__pyx_n_s_keyboard>
    6801:	e8 c1 3e 00 00       	callq  a6c7 <__Pyx_GetBuiltinName>
    6806:	eb 1a                	jmp    6822 <__pyx_pymod_exec_arrow_mouse+0x1691>
    6808:	48 8b 3d 51 d7 00 00 	mov    0xd751(%rip),%rdi        # 13f60 <__pyx_n_s_keyboard>
    680f:	48 8d 15 22 d5 00 00 	lea    0xd522(%rip),%rdx        # 13d38 <__pyx_dict_cached_value.16060>
    6816:	48 8d 35 23 d5 00 00 	lea    0xd523(%rip),%rsi        # 13d40 <__pyx_dict_version.16059>
    681d:	e8 e5 3e 00 00       	callq  a707 <__Pyx__GetModuleGlobalName>
    6822:	49 89 c4             	mov    %rax,%r12
    6825:	48 85 c0             	test   %rax,%rax
    6828:	0f 84 e3 25 00 00    	je     8e11 <__pyx_pymod_exec_arrow_mouse+0x3c80>
    682e:	48 8b 35 43 d7 00 00 	mov    0xd743(%rip),%rsi        # 13f78 <__pyx_n_s_is_pressed>
    6835:	4c 89 e7             	mov    %r12,%rdi
    6838:	e8 d8 39 00 00       	callq  a215 <__Pyx_PyObject_GetAttrStr>
    683d:	48 89 c5             	mov    %rax,%rbp
    6840:	48 85 c0             	test   %rax,%rax
    6843:	0f 84 e5 25 00 00    	je     8e2e <__pyx_pymod_exec_arrow_mouse+0x3c9d>
    6849:	4c 89 e7             	mov    %r12,%rdi
    684c:	e8 1e 3f 00 00       	callq  a76f <_Py_DECREF.isra.0>
    6851:	48 8d 05 a8 c9 00 00 	lea    0xc9a8(%rip),%rax        # 13200 <PyMethod_Type>
    6858:	48 39 45 08          	cmp    %rax,0x8(%rbp)
    685c:	75 36                	jne    6894 <__pyx_pymod_exec_arrow_mouse+0x1703>
    685e:	4c 8b 65 18          	mov    0x18(%rbp),%r12
    6862:	4d 85 e4             	test   %r12,%r12
    6865:	74 2d                	je     6894 <__pyx_pymod_exec_arrow_mouse+0x1703>
    6867:	4c 8b 7d 10          	mov    0x10(%rbp),%r15
    686b:	49 ff 04 24          	incq   (%r12)
    686f:	48 89 ef             	mov    %rbp,%rdi
    6872:	49 ff 07             	incq   (%r15)
    6875:	4c 89 fd             	mov    %r15,%rbp
    6878:	e8 f2 3e 00 00       	callq  a76f <_Py_DECREF.isra.0>
    687d:	48 8b 15 44 d6 00 00 	mov    0xd644(%rip),%rdx        # 13ec8 <__pyx_n_s_q>
    6884:	4c 89 e6             	mov    %r12,%rsi
    6887:	4c 89 ff             	mov    %r15,%rdi
    688a:	e8 6b 4b 00 00       	callq  b3fa <__Pyx_PyObject_Call2Args>
    688f:	49 89 c5             	mov    %rax,%r13
    6892:	eb 15                	jmp    68a9 <__pyx_pymod_exec_arrow_mouse+0x1718>
    6894:	48 8b 35 2d d6 00 00 	mov    0xd62d(%rip),%rsi        # 13ec8 <__pyx_n_s_q>
    689b:	48 89 ef             	mov    %rbp,%rdi
    689e:	45 31 e4             	xor    %r12d,%r12d
    68a1:	e8 8e 4c 00 00       	callq  b534 <__Pyx_PyObject_CallOneArg>
    68a6:	49 89 c5             	mov    %rax,%r13
    68a9:	4c 89 e7             	mov    %r12,%rdi
    68ac:	e8 ae 3f 00 00       	callq  a85f <_Py_XDECREF>
    68b1:	4d 85 ed             	test   %r13,%r13
    68b4:	0f 84 8f 25 00 00    	je     8e49 <__pyx_pymod_exec_arrow_mouse+0x3cb8>
    68ba:	48 89 ef             	mov    %rbp,%rdi
    68bd:	e8 ad 3e 00 00       	callq  a76f <_Py_DECREF.isra.0>
    68c2:	4c 89 ef             	mov    %r13,%rdi
    68c5:	e8 dc 3a 00 00       	callq  a3a6 <__Pyx_PyObject_IsTrue>
    68ca:	89 04 24             	mov    %eax,(%rsp)
    68cd:	85 c0                	test   %eax,%eax
    68cf:	0f 88 8f 25 00 00    	js     8e64 <__pyx_pymod_exec_arrow_mouse+0x3cd3>
    68d5:	4c 89 ef             	mov    %r13,%rdi
    68d8:	e8 92 3e 00 00       	callq  a76f <_Py_DECREF.isra.0>
    68dd:	83 3c 24 00          	cmpl   $0x0,(%rsp)
    68e1:	74 19                	je     68fc <__pyx_pymod_exec_arrow_mouse+0x176b>
    68e3:	48 8b 3d 7e d5 00 00 	mov    0xd57e(%rip),%rdi        # 13e68 <__pyx_n_s_test>
    68ea:	e8 1f e7 ff ff       	callq  500e <__Pyx_PrintOne.constprop.0>
    68ef:	85 c0                	test   %eax,%eax
    68f1:	0f 88 87 25 00 00    	js     8e7e <__pyx_pymod_exec_arrow_mouse+0x3ced>
    68f7:	e9 14 1f 00 00       	jmpq   8810 <__pyx_pymod_exec_arrow_mouse+0x367f>
    68fc:	48 8b 05 9d d7 00 00 	mov    0xd79d(%rip),%rax        # 140a0 <__pyx_d>
    6903:	48 8b 0d 26 d4 00 00 	mov    0xd426(%rip),%rcx        # 13d30 <__pyx_dict_version.16064>
    690a:	48 39 48 18          	cmp    %rcx,0x18(%rax)
    690e:	75 20                	jne    6930 <__pyx_pymod_exec_arrow_mouse+0x179f>
    6910:	48 8b 2d 11 d4 00 00 	mov    0xd411(%rip),%rbp        # 13d28 <__pyx_dict_cached_value.16065>
    6917:	48 85 ed             	test   %rbp,%rbp
    691a:	74 06                	je     6922 <__pyx_pymod_exec_arrow_mouse+0x1791>
    691c:	48 ff 45 00          	incq   0x0(%rbp)
    6920:	eb 34                	jmp    6956 <__pyx_pymod_exec_arrow_mouse+0x17c5>
    6922:	48 8b 3d 37 d6 00 00 	mov    0xd637(%rip),%rdi        # 13f60 <__pyx_n_s_keyboard>
    6929:	e8 99 3d 00 00       	callq  a6c7 <__Pyx_GetBuiltinName>
    692e:	eb 1a                	jmp    694a <__pyx_pymod_exec_arrow_mouse+0x17b9>
    6930:	48 8b 3d 29 d6 00 00 	mov    0xd629(%rip),%rdi        # 13f60 <__pyx_n_s_keyboard>
    6937:	48 8d 15 ea d3 00 00 	lea    0xd3ea(%rip),%rdx        # 13d28 <__pyx_dict_cached_value.16065>
    693e:	48 8d 35 eb d3 00 00 	lea    0xd3eb(%rip),%rsi        # 13d30 <__pyx_dict_version.16064>
    6945:	e8 bd 3d 00 00       	callq  a707 <__Pyx__GetModuleGlobalName>
    694a:	48 89 c5             	mov    %rax,%rbp
    694d:	48 85 c0             	test   %rax,%rax
    6950:	0f 84 45 25 00 00    	je     8e9b <__pyx_pymod_exec_arrow_mouse+0x3d0a>
    6956:	48 8b 35 1b d6 00 00 	mov    0xd61b(%rip),%rsi        # 13f78 <__pyx_n_s_is_pressed>
    695d:	48 89 ef             	mov    %rbp,%rdi
    6960:	e8 b0 38 00 00       	callq  a215 <__Pyx_PyObject_GetAttrStr>
    6965:	49 89 c4             	mov    %rax,%r12
    6968:	48 85 c0             	test   %rax,%rax
    696b:	0f 84 48 25 00 00    	je     8eb9 <__pyx_pymod_exec_arrow_mouse+0x3d28>
    6971:	48 89 ef             	mov    %rbp,%rdi
    6974:	e8 f6 3d 00 00       	callq  a76f <_Py_DECREF.isra.0>
    6979:	48 8d 05 80 c8 00 00 	lea    0xc880(%rip),%rax        # 13200 <PyMethod_Type>
    6980:	49 39 44 24 08       	cmp    %rax,0x8(%r12)
    6985:	75 38                	jne    69bf <__pyx_pymod_exec_arrow_mouse+0x182e>
    6987:	49 8b 6c 24 18       	mov    0x18(%r12),%rbp
    698c:	48 85 ed             	test   %rbp,%rbp
    698f:	74 2e                	je     69bf <__pyx_pymod_exec_arrow_mouse+0x182e>
    6991:	49 8b 5c 24 10       	mov    0x10(%r12),%rbx
    6996:	48 ff 45 00          	incq   0x0(%rbp)
    699a:	4c 89 e7             	mov    %r12,%rdi
    699d:	48 ff 03             	incq   (%rbx)
    69a0:	49 89 dc             	mov    %rbx,%r12
    69a3:	e8 c7 3d 00 00       	callq  a76f <_Py_DECREF.isra.0>
    69a8:	48 8b 15 69 d6 00 00 	mov    0xd669(%rip),%rdx        # 14018 <__pyx_n_s_alt>
    69af:	48 89 ee             	mov    %rbp,%rsi
    69b2:	48 89 df             	mov    %rbx,%rdi
    69b5:	e8 40 4a 00 00       	callq  b3fa <__Pyx_PyObject_Call2Args>
    69ba:	49 89 c5             	mov    %rax,%r13
    69bd:	eb 14                	jmp    69d3 <__pyx_pymod_exec_arrow_mouse+0x1842>
    69bf:	48 8b 35 52 d6 00 00 	mov    0xd652(%rip),%rsi        # 14018 <__pyx_n_s_alt>
    69c6:	4c 89 e7             	mov    %r12,%rdi
    69c9:	31 ed                	xor    %ebp,%ebp
    69cb:	e8 64 4b 00 00       	callq  b534 <__Pyx_PyObject_CallOneArg>
    69d0:	49 89 c5             	mov    %rax,%r13
    69d3:	48 89 ef             	mov    %rbp,%rdi
    69d6:	e8 84 3e 00 00       	callq  a85f <_Py_XDECREF>
    69db:	4d 85 ed             	test   %r13,%r13
    69de:	0f 84 f0 24 00 00    	je     8ed4 <__pyx_pymod_exec_arrow_mouse+0x3d43>
    69e4:	4c 89 e7             	mov    %r12,%rdi
    69e7:	e8 83 3d 00 00       	callq  a76f <_Py_DECREF.isra.0>
    69ec:	4c 89 ef             	mov    %r13,%rdi
    69ef:	e8 b2 39 00 00       	callq  a3a6 <__Pyx_PyObject_IsTrue>
    69f4:	89 c5                	mov    %eax,%ebp
    69f6:	85 c0                	test   %eax,%eax
    69f8:	0f 88 f0 24 00 00    	js     8eee <__pyx_pymod_exec_arrow_mouse+0x3d5d>
    69fe:	4c 89 ef             	mov    %r13,%rdi
    6a01:	e8 69 3d 00 00       	callq  a76f <_Py_DECREF.isra.0>
    6a06:	85 ed                	test   %ebp,%ebp
    6a08:	0f 84 6a 1c 00 00    	je     8678 <__pyx_pymod_exec_arrow_mouse+0x34e7>
    6a0e:	48 8b 05 8b d6 00 00 	mov    0xd68b(%rip),%rax        # 140a0 <__pyx_d>
    6a15:	48 8b 0d 04 d3 00 00 	mov    0xd304(%rip),%rcx        # 13d20 <__pyx_dict_version.16068>
    6a1c:	48 39 48 18          	cmp    %rcx,0x18(%rax)
    6a20:	75 20                	jne    6a42 <__pyx_pymod_exec_arrow_mouse+0x18b1>
    6a22:	48 8b 2d ef d2 00 00 	mov    0xd2ef(%rip),%rbp        # 13d18 <__pyx_dict_cached_value.16069>
    6a29:	48 85 ed             	test   %rbp,%rbp
    6a2c:	74 06                	je     6a34 <__pyx_pymod_exec_arrow_mouse+0x18a3>
    6a2e:	48 ff 45 00          	incq   0x0(%rbp)
    6a32:	eb 34                	jmp    6a68 <__pyx_pymod_exec_arrow_mouse+0x18d7>
    6a34:	48 8b 3d d5 d5 00 00 	mov    0xd5d5(%rip),%rdi        # 14010 <__pyx_n_s_alt_pressed_measuring>
    6a3b:	e8 87 3c 00 00       	callq  a6c7 <__Pyx_GetBuiltinName>
    6a40:	eb 1a                	jmp    6a5c <__pyx_pymod_exec_arrow_mouse+0x18cb>
    6a42:	48 8b 3d c7 d5 00 00 	mov    0xd5c7(%rip),%rdi        # 14010 <__pyx_n_s_alt_pressed_measuring>
    6a49:	48 8d 15 c8 d2 00 00 	lea    0xd2c8(%rip),%rdx        # 13d18 <__pyx_dict_cached_value.16069>
    6a50:	48 8d 35 c9 d2 00 00 	lea    0xd2c9(%rip),%rsi        # 13d20 <__pyx_dict_version.16068>
    6a57:	e8 ab 3c 00 00       	callq  a707 <__Pyx__GetModuleGlobalName>
    6a5c:	48 89 c5             	mov    %rax,%rbp
    6a5f:	48 85 c0             	test   %rax,%rax
    6a62:	0f 84 a0 24 00 00    	je     8f08 <__pyx_pymod_exec_arrow_mouse+0x3d77>
    6a68:	48 8b 35 b9 d4 00 00 	mov    0xd4b9(%rip),%rsi        # 13f28 <__pyx_n_s_measure>
    6a6f:	48 89 ef             	mov    %rbp,%rdi
    6a72:	e8 9e 37 00 00       	callq  a215 <__Pyx_PyObject_GetAttrStr>
    6a77:	49 89 c5             	mov    %rax,%r13
    6a7a:	48 85 c0             	test   %rax,%rax
    6a7d:	0f 84 a3 24 00 00    	je     8f26 <__pyx_pymod_exec_arrow_mouse+0x3d95>
    6a83:	48 89 ef             	mov    %rbp,%rdi
    6a86:	e8 e4 3c 00 00       	callq  a76f <_Py_DECREF.isra.0>
    6a8b:	48 8d 05 6e c7 00 00 	lea    0xc76e(%rip),%rax        # 13200 <PyMethod_Type>
    6a92:	49 39 45 08          	cmp    %rax,0x8(%r13)
    6a96:	75 2c                	jne    6ac4 <__pyx_pymod_exec_arrow_mouse+0x1933>
    6a98:	4d 8b 7d 18          	mov    0x18(%r13),%r15
    6a9c:	4d 85 ff             	test   %r15,%r15
    6a9f:	74 23                	je     6ac4 <__pyx_pymod_exec_arrow_mouse+0x1933>
    6aa1:	49 8b 6d 10          	mov    0x10(%r13),%rbp
    6aa5:	49 ff 07             	incq   (%r15)
    6aa8:	4c 89 ef             	mov    %r13,%rdi
    6aab:	48 ff 45 00          	incq   0x0(%rbp)
    6aaf:	e8 bb 3c 00 00       	callq  a76f <_Py_DECREF.isra.0>
    6ab4:	4c 89 fe             	mov    %r15,%rsi
    6ab7:	48 89 ef             	mov    %rbp,%rdi
    6aba:	e8 75 4a 00 00       	callq  b534 <__Pyx_PyObject_CallOneArg>
    6abf:	49 89 c4             	mov    %rax,%r12
    6ac2:	eb 11                	jmp    6ad5 <__pyx_pymod_exec_arrow_mouse+0x1944>
    6ac4:	4c 89 ef             	mov    %r13,%rdi
    6ac7:	45 31 ff             	xor    %r15d,%r15d
    6aca:	4c 89 ed             	mov    %r13,%rbp
    6acd:	e8 49 4b 00 00       	callq  b61b <__Pyx_PyObject_CallNoArg>
    6ad2:	49 89 c4             	mov    %rax,%r12
    6ad5:	4c 89 ff             	mov    %r15,%rdi
    6ad8:	e8 82 3d 00 00       	callq  a85f <_Py_XDECREF>
    6add:	4d 85 e4             	test   %r12,%r12
    6ae0:	0f 84 5d 24 00 00    	je     8f43 <__pyx_pymod_exec_arrow_mouse+0x3db2>
    6ae6:	48 89 ef             	mov    %rbp,%rdi
    6ae9:	e8 81 3c 00 00       	callq  a76f <_Py_DECREF.isra.0>
    6aee:	4c 89 e7             	mov    %r12,%rdi
    6af1:	e8 79 3c 00 00       	callq  a76f <_Py_DECREF.isra.0>
    6af6:	48 8b 05 a3 d5 00 00 	mov    0xd5a3(%rip),%rax        # 140a0 <__pyx_d>
    6afd:	48 8b 0d 0c d2 00 00 	mov    0xd20c(%rip),%rcx        # 13d10 <__pyx_dict_version.16072>
    6b04:	48 39 48 18          	cmp    %rcx,0x18(%rax)
    6b08:	75 20                	jne    6b2a <__pyx_pymod_exec_arrow_mouse+0x1999>
    6b0a:	48 8b 2d f7 d1 00 00 	mov    0xd1f7(%rip),%rbp        # 13d08 <__pyx_dict_cached_value.16073>
    6b11:	48 85 ed             	test   %rbp,%rbp
    6b14:	74 06                	je     6b1c <__pyx_pymod_exec_arrow_mouse+0x198b>
    6b16:	48 ff 45 00          	incq   0x0(%rbp)
    6b1a:	eb 34                	jmp    6b50 <__pyx_pymod_exec_arrow_mouse+0x19bf>
    6b1c:	48 8b 3d ed d3 00 00 	mov    0xd3ed(%rip),%rdi        # 13f10 <__pyx_n_s_mouse>
    6b23:	e8 9f 3b 00 00       	callq  a6c7 <__Pyx_GetBuiltinName>
    6b28:	eb 1a                	jmp    6b44 <__pyx_pymod_exec_arrow_mouse+0x19b3>
    6b2a:	48 8b 3d df d3 00 00 	mov    0xd3df(%rip),%rdi        # 13f10 <__pyx_n_s_mouse>
    6b31:	48 8d 15 d0 d1 00 00 	lea    0xd1d0(%rip),%rdx        # 13d08 <__pyx_dict_cached_value.16073>
    6b38:	48 8d 35 d1 d1 00 00 	lea    0xd1d1(%rip),%rsi        # 13d10 <__pyx_dict_version.16072>
    6b3f:	e8 c3 3b 00 00       	callq  a707 <__Pyx__GetModuleGlobalName>
    6b44:	48 89 c5             	mov    %rax,%rbp
    6b47:	48 85 c0             	test   %rax,%rax
    6b4a:	0f 84 0e 24 00 00    	je     8f5e <__pyx_pymod_exec_arrow_mouse+0x3dcd>
    6b50:	48 8b 35 41 d4 00 00 	mov    0xd441(%rip),%rsi        # 13f98 <__pyx_n_s_get_position>
    6b57:	48 89 ef             	mov    %rbp,%rdi
    6b5a:	e8 b6 36 00 00       	callq  a215 <__Pyx_PyObject_GetAttrStr>
    6b5f:	49 89 c4             	mov    %rax,%r12
    6b62:	48 85 c0             	test   %rax,%rax
    6b65:	0f 84 11 24 00 00    	je     8f7c <__pyx_pymod_exec_arrow_mouse+0x3deb>
    6b6b:	48 89 ef             	mov    %rbp,%rdi
    6b6e:	e8 fc 3b 00 00       	callq  a76f <_Py_DECREF.isra.0>
    6b73:	48 8d 05 86 c6 00 00 	lea    0xc686(%rip),%rax        # 13200 <PyMethod_Type>
    6b7a:	49 39 44 24 08       	cmp    %rax,0x8(%r12)
    6b7f:	75 31                	jne    6bb2 <__pyx_pymod_exec_arrow_mouse+0x1a21>
    6b81:	49 8b 6c 24 18       	mov    0x18(%r12),%rbp
    6b86:	48 85 ed             	test   %rbp,%rbp
    6b89:	74 27                	je     6bb2 <__pyx_pymod_exec_arrow_mouse+0x1a21>
    6b8b:	49 8b 5c 24 10       	mov    0x10(%r12),%rbx
    6b90:	48 ff 45 00          	incq   0x0(%rbp)
    6b94:	4c 89 e7             	mov    %r12,%rdi
    6b97:	48 ff 03             	incq   (%rbx)
    6b9a:	49 89 dc             	mov    %rbx,%r12
    6b9d:	e8 cd 3b 00 00       	callq  a76f <_Py_DECREF.isra.0>
    6ba2:	48 89 ee             	mov    %rbp,%rsi
    6ba5:	48 89 df             	mov    %rbx,%rdi
    6ba8:	e8 87 49 00 00       	callq  b534 <__Pyx_PyObject_CallOneArg>
    6bad:	49 89 c5             	mov    %rax,%r13
    6bb0:	eb 0d                	jmp    6bbf <__pyx_pymod_exec_arrow_mouse+0x1a2e>
    6bb2:	4c 89 e7             	mov    %r12,%rdi
    6bb5:	31 ed                	xor    %ebp,%ebp
    6bb7:	e8 5f 4a 00 00       	callq  b61b <__Pyx_PyObject_CallNoArg>
    6bbc:	49 89 c5             	mov    %rax,%r13
    6bbf:	48 89 ef             	mov    %rbp,%rdi
    6bc2:	e8 98 3c 00 00       	callq  a85f <_Py_XDECREF>
    6bc7:	4d 85 ed             	test   %r13,%r13
    6bca:	0f 84 c7 23 00 00    	je     8f97 <__pyx_pymod_exec_arrow_mouse+0x3e06>
    6bd0:	4c 89 e7             	mov    %r12,%rdi
    6bd3:	e8 97 3b 00 00       	callq  a76f <_Py_DECREF.isra.0>
    6bd8:	49 8b 45 08          	mov    0x8(%r13),%rax
    6bdc:	48 8d 15 bd c2 00 00 	lea    0xc2bd(%rip),%rdx        # 12ea0 <PyTuple_Type>
    6be3:	48 39 d0             	cmp    %rdx,%rax
    6be6:	74 10                	je     6bf8 <__pyx_pymod_exec_arrow_mouse+0x1a67>
    6be8:	48 8d 0d 51 b8 00 00 	lea    0xb851(%rip),%rcx        # 12440 <PyList_Type>
    6bef:	48 39 c8             	cmp    %rcx,%rax
    6bf2:	0f 85 ba 00 00 00    	jne    6cb2 <__pyx_pymod_exec_arrow_mouse+0x1b21>
    6bf8:	49 8b 7d 10          	mov    0x10(%r13),%rdi
    6bfc:	48 83 ff 02          	cmp    $0x2,%rdi
    6c00:	74 5e                	je     6c60 <__pyx_pymod_exec_arrow_mouse+0x1acf>
    6c02:	7e 34                	jle    6c38 <__pyx_pymod_exec_arrow_mouse+0x1aa7>
    6c04:	48 8b 3d 15 b8 00 00 	mov    0xb815(%rip),%rdi        # 12420 <PyExc_ValueError>
    6c0b:	ba 02 00 00 00       	mov    $0x2,%edx
    6c10:	31 c0                	xor    %eax,%eax
    6c12:	31 db                	xor    %ebx,%ebx
    6c14:	48 8d 35 72 6d 00 00 	lea    0x6d72(%rip),%rsi        # d98d <_IO_stdin_used+0x98d>
    6c1b:	45 31 e4             	xor    %r12d,%r12d
    6c1e:	31 ed                	xor    %ebp,%ebp
    6c20:	41 bf 3f 0d 00 00    	mov    $0xd3f,%r15d
    6c26:	e8 b5 db ff ff       	callq  47e0 <PyErr_Format@plt>
    6c2b:	45 31 c9             	xor    %r9d,%r9d
    6c2e:	ba 47 00 00 00       	mov    $0x47,%edx
    6c33:	e9 0f eb ff ff       	jmpq   5747 <__pyx_pymod_exec_arrow_mouse+0x5b6>
    6c38:	48 85 ff             	test   %rdi,%rdi
    6c3b:	0f 88 70 23 00 00    	js     8fb1 <__pyx_pymod_exec_arrow_mouse+0x3e20>
    6c41:	e8 2a e0 ff ff       	callq  4c70 <__Pyx_RaiseNeedMoreValuesError>
    6c46:	31 db                	xor    %ebx,%ebx
    6c48:	45 31 c9             	xor    %r9d,%r9d
    6c4b:	45 31 e4             	xor    %r12d,%r12d
    6c4e:	31 ed                	xor    %ebp,%ebp
    6c50:	41 bf 3f 0d 00 00    	mov    $0xd3f,%r15d
    6c56:	ba 47 00 00 00       	mov    $0x47,%edx
    6c5b:	e9 e7 ea ff ff       	jmpq   5747 <__pyx_pymod_exec_arrow_mouse+0x5b6>
    6c60:	48 39 d0             	cmp    %rdx,%rax
    6c63:	75 32                	jne    6c97 <__pyx_pymod_exec_arrow_mouse+0x1b06>
    6c65:	f6 80 ab 00 00 00 04 	testb  $0x4,0xab(%rax)
    6c6c:	75 1f                	jne    6c8d <__pyx_pymod_exec_arrow_mouse+0x1afc>
    6c6e:	48 8d 0d 5b 71 00 00 	lea    0x715b(%rip),%rcx        # ddd0 <__PRETTY_FUNCTION__.16078>
    6c75:	ba 43 0d 00 00       	mov    $0xd43,%edx
    6c7a:	48 8d 35 83 63 00 00 	lea    0x6383(%rip),%rsi        # d004 <_IO_stdin_used+0x4>
    6c81:	48 8d 3d 2e 6d 00 00 	lea    0x6d2e(%rip),%rdi        # d9b6 <_IO_stdin_used+0x9b6>
    6c88:	e9 24 f4 ff ff       	jmpq   60b1 <__pyx_pymod_exec_arrow_mouse+0xf20>
    6c8d:	4d 8b 65 18          	mov    0x18(%r13),%r12
    6c91:	49 8b 6d 20          	mov    0x20(%r13),%rbp
    6c95:	eb 0b                	jmp    6ca2 <__pyx_pymod_exec_arrow_mouse+0x1b11>
    6c97:	49 8b 45 18          	mov    0x18(%r13),%rax
    6c9b:	4c 8b 20             	mov    (%rax),%r12
    6c9e:	48 8b 68 08          	mov    0x8(%rax),%rbp
    6ca2:	49 ff 04 24          	incq   (%r12)
    6ca6:	4c 89 ef             	mov    %r13,%rdi
    6ca9:	48 ff 45 00          	incq   0x0(%rbp)
    6cad:	e9 cb 00 00 00       	jmpq   6d7d <__pyx_pymod_exec_arrow_mouse+0x1bec>
    6cb2:	4c 89 ef             	mov    %r13,%rdi
    6cb5:	e8 c6 dc ff ff       	callq  4980 <PyObject_GetIter@plt>
    6cba:	49 89 c1             	mov    %rax,%r9
    6cbd:	48 85 c0             	test   %rax,%rax
    6cc0:	0f 84 05 23 00 00    	je     8fcb <__pyx_pymod_exec_arrow_mouse+0x3e3a>
    6cc6:	4c 89 ef             	mov    %r13,%rdi
    6cc9:	48 89 44 24 08       	mov    %rax,0x8(%rsp)
    6cce:	e8 9c 3a 00 00       	callq  a76f <_Py_DECREF.isra.0>
    6cd3:	4c 8b 4c 24 08       	mov    0x8(%rsp),%r9
    6cd8:	49 8b 41 08          	mov    0x8(%r9),%rax
    6cdc:	4c 89 cf             	mov    %r9,%rdi
    6cdf:	4c 8b a8 e0 00 00 00 	mov    0xe0(%rax),%r13
    6ce6:	41 ff d5             	callq  *%r13
    6ce9:	4c 8b 4c 24 08       	mov    0x8(%rsp),%r9
    6cee:	48 85 c0             	test   %rax,%rax
    6cf1:	49 89 c4             	mov    %rax,%r12
    6cf4:	0f 84 ab 00 00 00    	je     6da5 <__pyx_pymod_exec_arrow_mouse+0x1c14>
    6cfa:	4c 89 cf             	mov    %r9,%rdi
    6cfd:	41 ff d5             	callq  *%r13
    6d00:	4c 8b 4c 24 08       	mov    0x8(%rsp),%r9
    6d05:	48 85 c0             	test   %rax,%rax
    6d08:	48 89 c5             	mov    %rax,%rbp
    6d0b:	0f 84 98 00 00 00    	je     6da9 <__pyx_pymod_exec_arrow_mouse+0x1c18>
    6d11:	4c 89 cf             	mov    %r9,%rdi
    6d14:	41 ff d5             	callq  *%r13
    6d17:	4c 8b 4c 24 08       	mov    0x8(%rsp),%r9
    6d1c:	48 85 c0             	test   %rax,%rax
    6d1f:	49 89 c5             	mov    %rax,%r13
    6d22:	74 3f                	je     6d63 <__pyx_pymod_exec_arrow_mouse+0x1bd2>
    6d24:	48 89 c7             	mov    %rax,%rdi
    6d27:	4c 89 0c 24          	mov    %r9,(%rsp)
    6d2b:	31 db                	xor    %ebx,%ebx
    6d2d:	45 31 ed             	xor    %r13d,%r13d
    6d30:	e8 3a 3a 00 00       	callq  a76f <_Py_DECREF.isra.0>
    6d35:	48 8b 3d e4 b6 00 00 	mov    0xb6e4(%rip),%rdi        # 12420 <PyExc_ValueError>
    6d3c:	ba 02 00 00 00       	mov    $0x2,%edx
    6d41:	31 c0                	xor    %eax,%eax
    6d43:	48 8d 35 43 6c 00 00 	lea    0x6c43(%rip),%rsi        # d98d <_IO_stdin_used+0x98d>
    6d4a:	41 bf 5c 0d 00 00    	mov    $0xd5c,%r15d
    6d50:	e8 8b da ff ff       	callq  47e0 <PyErr_Format@plt>
    6d55:	4c 8b 0c 24          	mov    (%rsp),%r9
    6d59:	ba 47 00 00 00       	mov    $0x47,%edx
    6d5e:	e9 e4 e9 ff ff       	jmpq   5747 <__pyx_pymod_exec_arrow_mouse+0x5b6>
    6d63:	4c 89 4c 24 08       	mov    %r9,0x8(%rsp)
    6d68:	e8 31 df ff ff       	callq  4c9e <__Pyx_IterFinish>
    6d6d:	4c 8b 4c 24 08       	mov    0x8(%rsp),%r9
    6d72:	85 c0                	test   %eax,%eax
    6d74:	0f 88 6b 22 00 00    	js     8fe5 <__pyx_pymod_exec_arrow_mouse+0x3e54>
    6d7a:	4c 89 cf             	mov    %r9,%rdi
    6d7d:	f3 0f 1e fa          	endbr64 
    6d81:	e8 e9 39 00 00       	callq  a76f <_Py_DECREF.isra.0>
    6d86:	48 8b 35 63 d1 00 00 	mov    0xd163(%rip),%rsi        # 13ef0 <__pyx_n_s_o_x>
    6d8d:	48 8b 3d 0c d3 00 00 	mov    0xd30c(%rip),%rdi        # 140a0 <__pyx_d>
    6d94:	4c 89 e2             	mov    %r12,%rdx
    6d97:	e8 b4 de ff ff       	callq  4c50 <PyDict_SetItem@plt>
    6d9c:	85 c0                	test   %eax,%eax
    6d9e:	79 45                	jns    6de5 <__pyx_pymod_exec_arrow_mouse+0x1c54>
    6da0:	e9 6f 22 00 00       	jmpq   9014 <__pyx_pymod_exec_arrow_mouse+0x3e83>
    6da5:	31 ed                	xor    %ebp,%ebp
    6da7:	eb 05                	jmp    6dae <__pyx_pymod_exec_arrow_mouse+0x1c1d>
    6da9:	bd 01 00 00 00       	mov    $0x1,%ebp
    6dae:	4c 89 cf             	mov    %r9,%rdi
    6db1:	e8 b9 39 00 00       	callq  a76f <_Py_DECREF.isra.0>
    6db6:	e8 e3 de ff ff       	callq  4c9e <__Pyx_IterFinish>
    6dbb:	85 c0                	test   %eax,%eax
    6dbd:	0f 85 37 22 00 00    	jne    8ffa <__pyx_pymod_exec_arrow_mouse+0x3e69>
    6dc3:	48 89 ef             	mov    %rbp,%rdi
    6dc6:	31 db                	xor    %ebx,%ebx
    6dc8:	45 31 ed             	xor    %r13d,%r13d
    6dcb:	31 ed                	xor    %ebp,%ebp
    6dcd:	e8 9e de ff ff       	callq  4c70 <__Pyx_RaiseNeedMoreValuesError>
    6dd2:	41 bf 64 0d 00 00    	mov    $0xd64,%r15d
    6dd8:	45 31 c9             	xor    %r9d,%r9d
    6ddb:	ba 47 00 00 00       	mov    $0x47,%edx
    6de0:	e9 62 e9 ff ff       	jmpq   5747 <__pyx_pymod_exec_arrow_mouse+0x5b6>
    6de5:	4c 89 e7             	mov    %r12,%rdi
    6de8:	e8 82 39 00 00       	callq  a76f <_Py_DECREF.isra.0>
    6ded:	48 8b 35 f4 d0 00 00 	mov    0xd0f4(%rip),%rsi        # 13ee8 <__pyx_n_s_o_y>
    6df4:	48 8b 3d a5 d2 00 00 	mov    0xd2a5(%rip),%rdi        # 140a0 <__pyx_d>
    6dfb:	48 89 ea             	mov    %rbp,%rdx
    6dfe:	e8 4d de ff ff       	callq  4c50 <PyDict_SetItem@plt>
    6e03:	85 c0                	test   %eax,%eax
    6e05:	0f 88 21 22 00 00    	js     902c <__pyx_pymod_exec_arrow_mouse+0x3e9b>
    6e0b:	48 89 ef             	mov    %rbp,%rdi
    6e0e:	e8 5c 39 00 00       	callq  a76f <_Py_DECREF.isra.0>
    6e13:	48 8b 05 86 d2 00 00 	mov    0xd286(%rip),%rax        # 140a0 <__pyx_d>
    6e1a:	48 8b 0d df ce 00 00 	mov    0xcedf(%rip),%rcx        # 13d00 <__pyx_dict_version.16082>
    6e21:	48 39 48 18          	cmp    %rcx,0x18(%rax)
    6e25:	75 20                	jne    6e47 <__pyx_pymod_exec_arrow_mouse+0x1cb6>
    6e27:	4c 8b 25 ca ce 00 00 	mov    0xceca(%rip),%r12        # 13cf8 <__pyx_dict_cached_value.16083>
    6e2e:	4d 85 e4             	test   %r12,%r12
    6e31:	74 06                	je     6e39 <__pyx_pymod_exec_arrow_mouse+0x1ca8>
    6e33:	49 ff 04 24          	incq   (%r12)
    6e37:	eb 34                	jmp    6e6d <__pyx_pymod_exec_arrow_mouse+0x1cdc>
    6e39:	48 8b 3d 30 d0 00 00 	mov    0xd030(%rip),%rdi        # 13e70 <__pyx_n_s_t>
    6e40:	e8 82 38 00 00       	callq  a6c7 <__Pyx_GetBuiltinName>
    6e45:	eb 1a                	jmp    6e61 <__pyx_pymod_exec_arrow_mouse+0x1cd0>
    6e47:	48 8b 3d 22 d0 00 00 	mov    0xd022(%rip),%rdi        # 13e70 <__pyx_n_s_t>
    6e4e:	48 8d 15 a3 ce 00 00 	lea    0xcea3(%rip),%rdx        # 13cf8 <__pyx_dict_cached_value.16083>
    6e55:	48 8d 35 a4 ce 00 00 	lea    0xcea4(%rip),%rsi        # 13d00 <__pyx_dict_version.16082>
    6e5c:	e8 a6 38 00 00       	callq  a707 <__Pyx__GetModuleGlobalName>
    6e61:	49 89 c4             	mov    %rax,%r12
    6e64:	48 85 c0             	test   %rax,%rax
    6e67:	0f 84 da 21 00 00    	je     9047 <__pyx_pymod_exec_arrow_mouse+0x3eb6>
    6e6d:	48 8b 35 9c cf 00 00 	mov    0xcf9c(%rip),%rsi        # 13e10 <__pyx_int_1>
    6e74:	ba 01 00 00 00       	mov    $0x1,%edx
    6e79:	4c 89 e7             	mov    %r12,%rdi
    6e7c:	e8 07 42 00 00       	callq  b088 <__Pyx_PyInt_AddObjC.isra.0.constprop.0>
    6e81:	48 89 c5             	mov    %rax,%rbp
    6e84:	48 85 c0             	test   %rax,%rax
    6e87:	0f 84 d7 21 00 00    	je     9064 <__pyx_pymod_exec_arrow_mouse+0x3ed3>
    6e8d:	4c 89 e7             	mov    %r12,%rdi
    6e90:	e8 da 38 00 00       	callq  a76f <_Py_DECREF.isra.0>
    6e95:	48 8b 35 d4 cf 00 00 	mov    0xcfd4(%rip),%rsi        # 13e70 <__pyx_n_s_t>
    6e9c:	48 8b 3d fd d1 00 00 	mov    0xd1fd(%rip),%rdi        # 140a0 <__pyx_d>
    6ea3:	48 89 ea             	mov    %rbp,%rdx
    6ea6:	e8 a5 dd ff ff       	callq  4c50 <PyDict_SetItem@plt>
    6eab:	85 c0                	test   %eax,%eax
    6ead:	0f 88 cf 21 00 00    	js     9082 <__pyx_pymod_exec_arrow_mouse+0x3ef1>
    6eb3:	48 89 ef             	mov    %rbp,%rdi
    6eb6:	e8 b4 38 00 00       	callq  a76f <_Py_DECREF.isra.0>
    6ebb:	48 8b 05 de d1 00 00 	mov    0xd1de(%rip),%rax        # 140a0 <__pyx_d>
    6ec2:	48 8b 0d 27 ce 00 00 	mov    0xce27(%rip),%rcx        # 13cf0 <__pyx_dict_version.16084>
    6ec9:	48 39 48 18          	cmp    %rcx,0x18(%rax)
    6ecd:	75 20                	jne    6eef <__pyx_pymod_exec_arrow_mouse+0x1d5e>
    6ecf:	48 8b 2d 12 ce 00 00 	mov    0xce12(%rip),%rbp        # 13ce8 <__pyx_dict_cached_value.16085>
    6ed6:	48 85 ed             	test   %rbp,%rbp
    6ed9:	74 06                	je     6ee1 <__pyx_pymod_exec_arrow_mouse+0x1d50>
    6edb:	48 ff 45 00          	incq   0x0(%rbp)
    6edf:	eb 34                	jmp    6f15 <__pyx_pymod_exec_arrow_mouse+0x1d84>
    6ee1:	48 8b 3d 68 d0 00 00 	mov    0xd068(%rip),%rdi        # 13f50 <__pyx_n_s_last_move_mouse>
    6ee8:	e8 da 37 00 00       	callq  a6c7 <__Pyx_GetBuiltinName>
    6eed:	eb 1a                	jmp    6f09 <__pyx_pymod_exec_arrow_mouse+0x1d78>
    6eef:	48 8b 3d 5a d0 00 00 	mov    0xd05a(%rip),%rdi        # 13f50 <__pyx_n_s_last_move_mouse>
    6ef6:	48 8d 15 eb cd 00 00 	lea    0xcdeb(%rip),%rdx        # 13ce8 <__pyx_dict_cached_value.16085>
    6efd:	48 8d 35 ec cd 00 00 	lea    0xcdec(%rip),%rsi        # 13cf0 <__pyx_dict_version.16084>
    6f04:	e8 fe 37 00 00       	callq  a707 <__Pyx__GetModuleGlobalName>
    6f09:	48 89 c5             	mov    %rax,%rbp
    6f0c:	48 85 c0             	test   %rax,%rax
    6f0f:	0f 84 88 21 00 00    	je     909d <__pyx_pymod_exec_arrow_mouse+0x3f0c>
    6f15:	48 89 ef             	mov    %rbp,%rdi
    6f18:	e8 89 34 00 00       	callq  a3a6 <__Pyx_PyObject_IsTrue>
    6f1d:	41 89 c4             	mov    %eax,%r12d
    6f20:	85 c0                	test   %eax,%eax
    6f22:	0f 88 93 21 00 00    	js     90bb <__pyx_pymod_exec_arrow_mouse+0x3f2a>
    6f28:	48 89 ef             	mov    %rbp,%rdi
    6f2b:	e8 3f 38 00 00       	callq  a76f <_Py_DECREF.isra.0>
    6f30:	45 85 e4             	test   %r12d,%r12d
    6f33:	48 8b 3d 66 d1 00 00 	mov    0xd166(%rip),%rdi        # 140a0 <__pyx_d>
    6f3a:	0f 84 0b 03 00 00    	je     724b <__pyx_pymod_exec_arrow_mouse+0x20ba>
    6f40:	48 8b 05 99 cd 00 00 	mov    0xcd99(%rip),%rax        # 13ce0 <__pyx_dict_version.16086>
    6f47:	48 39 47 18          	cmp    %rax,0x18(%rdi)
    6f4b:	75 20                	jne    6f6d <__pyx_pymod_exec_arrow_mouse+0x1ddc>
    6f4d:	4c 8b 2d 84 cd 00 00 	mov    0xcd84(%rip),%r13        # 13cd8 <__pyx_dict_cached_value.16087>
    6f54:	4d 85 ed             	test   %r13,%r13
    6f57:	74 06                	je     6f5f <__pyx_pymod_exec_arrow_mouse+0x1dce>
    6f59:	49 ff 45 00          	incq   0x0(%r13)
    6f5d:	eb 37                	jmp    6f96 <__pyx_pymod_exec_arrow_mouse+0x1e05>
    6f5f:	48 8b 3d 22 cf 00 00 	mov    0xcf22(%rip),%rdi        # 13e88 <__pyx_n_s_speed_function>
    6f66:	e8 5c 37 00 00       	callq  a6c7 <__Pyx_GetBuiltinName>
    6f6b:	eb 1a                	jmp    6f87 <__pyx_pymod_exec_arrow_mouse+0x1df6>
    6f6d:	48 8b 3d 14 cf 00 00 	mov    0xcf14(%rip),%rdi        # 13e88 <__pyx_n_s_speed_function>
    6f74:	48 8d 15 5d cd 00 00 	lea    0xcd5d(%rip),%rdx        # 13cd8 <__pyx_dict_cached_value.16087>
    6f7b:	48 8d 35 5e cd 00 00 	lea    0xcd5e(%rip),%rsi        # 13ce0 <__pyx_dict_version.16086>
    6f82:	e8 80 37 00 00       	callq  a707 <__Pyx__GetModuleGlobalName>
    6f87:	48 89 c5             	mov    %rax,%rbp
    6f8a:	48 85 c0             	test   %rax,%rax
    6f8d:	0f 84 43 21 00 00    	je     90d6 <__pyx_pymod_exec_arrow_mouse+0x3f45>
    6f93:	49 89 c5             	mov    %rax,%r13
    6f96:	48 8b 05 03 d1 00 00 	mov    0xd103(%rip),%rax        # 140a0 <__pyx_d>
    6f9d:	48 8b 0d 2c cd 00 00 	mov    0xcd2c(%rip),%rcx        # 13cd0 <__pyx_dict_version.16088>
    6fa4:	48 39 48 18          	cmp    %rcx,0x18(%rax)
    6fa8:	75 20                	jne    6fca <__pyx_pymod_exec_arrow_mouse+0x1e39>
    6faa:	4c 8b 25 17 cd 00 00 	mov    0xcd17(%rip),%r12        # 13cc8 <__pyx_dict_cached_value.16089>
    6fb1:	4d 85 e4             	test   %r12,%r12
    6fb4:	74 06                	je     6fbc <__pyx_pymod_exec_arrow_mouse+0x1e2b>
    6fb6:	49 ff 04 24          	incq   (%r12)
    6fba:	eb 37                	jmp    6ff3 <__pyx_pymod_exec_arrow_mouse+0x1e62>
    6fbc:	48 8b 3d cd ce 00 00 	mov    0xcecd(%rip),%rdi        # 13e90 <__pyx_n_s_speed>
    6fc3:	e8 ff 36 00 00       	callq  a6c7 <__Pyx_GetBuiltinName>
    6fc8:	eb 1a                	jmp    6fe4 <__pyx_pymod_exec_arrow_mouse+0x1e53>
    6fca:	48 8b 3d bf ce 00 00 	mov    0xcebf(%rip),%rdi        # 13e90 <__pyx_n_s_speed>
    6fd1:	48 8d 15 f0 cc 00 00 	lea    0xccf0(%rip),%rdx        # 13cc8 <__pyx_dict_cached_value.16089>
    6fd8:	48 8d 35 f1 cc 00 00 	lea    0xccf1(%rip),%rsi        # 13cd0 <__pyx_dict_version.16088>
    6fdf:	e8 23 37 00 00       	callq  a707 <__Pyx__GetModuleGlobalName>
    6fe4:	48 89 c5             	mov    %rax,%rbp
    6fe7:	48 85 c0             	test   %rax,%rax
    6fea:	0f 84 04 21 00 00    	je     90f4 <__pyx_pymod_exec_arrow_mouse+0x3f63>
    6ff0:	49 89 c4             	mov    %rax,%r12
    6ff3:	48 8b 05 a6 d0 00 00 	mov    0xd0a6(%rip),%rax        # 140a0 <__pyx_d>
    6ffa:	48 8b 0d bf cc 00 00 	mov    0xccbf(%rip),%rcx        # 13cc0 <__pyx_dict_version.16090>
    7001:	48 39 48 18          	cmp    %rcx,0x18(%rax)
    7005:	75 1f                	jne    7026 <__pyx_pymod_exec_arrow_mouse+0x1e95>
    7007:	4c 8b 0d aa cc 00 00 	mov    0xccaa(%rip),%r9        # 13cb8 <__pyx_dict_cached_value.16091>
    700e:	4d 85 c9             	test   %r9,%r9
    7011:	74 05                	je     7018 <__pyx_pymod_exec_arrow_mouse+0x1e87>
    7013:	49 ff 01             	incq   (%r9)
    7016:	eb 37                	jmp    704f <__pyx_pymod_exec_arrow_mouse+0x1ebe>
    7018:	48 8b 3d 51 ce 00 00 	mov    0xce51(%rip),%rdi        # 13e70 <__pyx_n_s_t>
    701f:	e8 a3 36 00 00       	callq  a6c7 <__Pyx_GetBuiltinName>
    7024:	eb 1a                	jmp    7040 <__pyx_pymod_exec_arrow_mouse+0x1eaf>
    7026:	48 8b 3d 43 ce 00 00 	mov    0xce43(%rip),%rdi        # 13e70 <__pyx_n_s_t>
    702d:	48 8d 15 84 cc 00 00 	lea    0xcc84(%rip),%rdx        # 13cb8 <__pyx_dict_cached_value.16091>
    7034:	48 8d 35 85 cc 00 00 	lea    0xcc85(%rip),%rsi        # 13cc0 <__pyx_dict_version.16090>
    703b:	e8 c7 36 00 00       	callq  a707 <__Pyx__GetModuleGlobalName>
    7040:	48 89 c5             	mov    %rax,%rbp
    7043:	48 85 c0             	test   %rax,%rax
    7046:	0f 84 c3 20 00 00    	je     910f <__pyx_pymod_exec_arrow_mouse+0x3f7e>
    704c:	49 89 c1             	mov    %rax,%r9
    704f:	48 8d 05 aa c1 00 00 	lea    0xc1aa(%rip),%rax        # 13200 <PyMethod_Type>
    7056:	49 39 45 08          	cmp    %rax,0x8(%r13)
    705a:	75 32                	jne    708e <__pyx_pymod_exec_arrow_mouse+0x1efd>
    705c:	4d 8b 7d 18          	mov    0x18(%r13),%r15
    7060:	31 ed                	xor    %ebp,%ebp
    7062:	4d 85 ff             	test   %r15,%r15
    7065:	74 2c                	je     7093 <__pyx_pymod_exec_arrow_mouse+0x1f02>
    7067:	49 8b 6d 10          	mov    0x10(%r13),%rbp
    706b:	49 ff 07             	incq   (%r15)
    706e:	4c 89 ef             	mov    %r13,%rdi
    7071:	4c 89 4c 24 08       	mov    %r9,0x8(%rsp)
    7076:	48 ff 45 00          	incq   0x0(%rbp)
    707a:	49 89 ed             	mov    %rbp,%r13
    707d:	bd 01 00 00 00       	mov    $0x1,%ebp
    7082:	e8 e8 36 00 00       	callq  a76f <_Py_DECREF.isra.0>
    7087:	4c 8b 4c 24 08       	mov    0x8(%rsp),%r9
    708c:	eb 05                	jmp    7093 <__pyx_pymod_exec_arrow_mouse+0x1f02>
    708e:	31 ed                	xor    %ebp,%ebp
    7090:	45 31 ff             	xor    %r15d,%r15d
    7093:	49 8b 45 08          	mov    0x8(%r13),%rax
    7097:	8d 55 02             	lea    0x2(%rbp),%edx
    709a:	48 8d 0d 3f c8 00 00 	lea    0xc83f(%rip),%rcx        # 138e0 <PyFunction_Type>
    70a1:	48 63 d2             	movslq %edx,%rdx
    70a4:	48 39 c8             	cmp    %rcx,%rax
    70a7:	75 4b                	jne    70f4 <__pyx_pymod_exec_arrow_mouse+0x1f63>
    70a9:	b8 01 00 00 00       	mov    $0x1,%eax
    70ae:	4c 89 ef             	mov    %r13,%rdi
    70b1:	4c 89 4c 24 20       	mov    %r9,0x20(%rsp)
    70b6:	48 29 e8             	sub    %rbp,%rax
    70b9:	4c 89 4c 24 08       	mov    %r9,0x8(%rsp)
    70be:	48 8d 74 c4 10       	lea    0x10(%rsp,%rax,8),%rsi
    70c3:	4c 89 7c 24 10       	mov    %r15,0x10(%rsp)
    70c8:	4c 89 64 24 18       	mov    %r12,0x18(%rsp)
    70cd:	e8 bc 41 00 00       	callq  b28e <__Pyx_PyFunction_FastCallDict.constprop.0>
    70d2:	4c 8b 4c 24 08       	mov    0x8(%rsp),%r9
    70d7:	48 85 c0             	test   %rax,%rax
    70da:	48 89 c5             	mov    %rax,%rbp
    70dd:	75 7d                	jne    715c <__pyx_pymod_exec_arrow_mouse+0x1fcb>
    70df:	4d 89 fe             	mov    %r15,%r14
    70e2:	31 db                	xor    %ebx,%ebx
    70e4:	41 bf a4 0d 00 00    	mov    $0xda4,%r15d
    70ea:	ba 4a 00 00 00       	mov    $0x4a,%edx
    70ef:	e9 53 e6 ff ff       	jmpq   5747 <__pyx_pymod_exec_arrow_mouse+0x5b6>
    70f4:	48 8d 0d 85 c4 00 00 	lea    0xc485(%rip),%rcx        # 13580 <PyCFunction_Type>
    70fb:	48 39 c8             	cmp    %rcx,%rax
    70fe:	75 7e                	jne    717e <__pyx_pymod_exec_arrow_mouse+0x1fed>
    7100:	49 8b 45 10          	mov    0x10(%r13),%rax
    7104:	8b 40 10             	mov    0x10(%rax),%eax
    7107:	83 e0 8d             	and    $0xffffff8d,%eax
    710a:	3d 80 00 00 00       	cmp    $0x80,%eax
    710f:	75 6d                	jne    717e <__pyx_pymod_exec_arrow_mouse+0x1fed>
    7111:	b8 01 00 00 00       	mov    $0x1,%eax
    7116:	4c 89 ef             	mov    %r13,%rdi
    7119:	4c 89 4c 24 20       	mov    %r9,0x20(%rsp)
    711e:	48 29 e8             	sub    %rbp,%rax
    7121:	4c 89 4c 24 08       	mov    %r9,0x8(%rsp)
    7126:	48 8d 74 c4 10       	lea    0x10(%rsp,%rax,8),%rsi
    712b:	4c 89 7c 24 10       	mov    %r15,0x10(%rsp)
    7130:	4c 89 64 24 18       	mov    %r12,0x18(%rsp)
    7135:	e8 54 34 00 00       	callq  a58e <__Pyx_PyCFunction_FastCall>
    713a:	4c 8b 4c 24 08       	mov    0x8(%rsp),%r9
    713f:	48 85 c0             	test   %rax,%rax
    7142:	48 89 c5             	mov    %rax,%rbp
    7145:	75 15                	jne    715c <__pyx_pymod_exec_arrow_mouse+0x1fcb>
    7147:	4d 89 fe             	mov    %r15,%r14
    714a:	31 db                	xor    %ebx,%ebx
    714c:	41 bf ae 0d 00 00    	mov    $0xdae,%r15d
    7152:	ba 4a 00 00 00       	mov    $0x4a,%edx
    7157:	e9 eb e5 ff ff       	jmpq   5747 <__pyx_pymod_exec_arrow_mouse+0x5b6>
    715c:	4c 89 ff             	mov    %r15,%rdi
    715f:	4c 89 4c 24 08       	mov    %r9,0x8(%rsp)
    7164:	e8 f6 36 00 00       	callq  a85f <_Py_XDECREF>
    7169:	4c 89 e7             	mov    %r12,%rdi
    716c:	e8 fe 35 00 00       	callq  a76f <_Py_DECREF.isra.0>
    7171:	4c 8b 4c 24 08       	mov    0x8(%rsp),%r9
    7176:	4c 89 cf             	mov    %r9,%rdi
    7179:	e9 98 00 00 00       	jmpq   7216 <__pyx_pymod_exec_arrow_mouse+0x2085>
    717e:	48 89 d7             	mov    %rdx,%rdi
    7181:	4c 89 4c 24 08       	mov    %r9,0x8(%rsp)
    7186:	e8 b5 d9 ff ff       	callq  4b40 <PyTuple_New@plt>
    718b:	4c 8b 4c 24 08       	mov    0x8(%rsp),%r9
    7190:	48 85 c0             	test   %rax,%rax
    7193:	48 89 c3             	mov    %rax,%rbx
    7196:	0f 84 8b 1f 00 00    	je     9127 <__pyx_pymod_exec_arrow_mouse+0x3f96>
    719c:	48 8b 40 08          	mov    0x8(%rax),%rax
    71a0:	48 8b 80 a8 00 00 00 	mov    0xa8(%rax),%rax
    71a7:	25 00 00 00 04       	and    $0x4000000,%eax
    71ac:	4d 85 ff             	test   %r15,%r15
    71af:	74 19                	je     71ca <__pyx_pymod_exec_arrow_mouse+0x2039>
    71b1:	48 85 c0             	test   %rax,%rax
    71b4:	75 0e                	jne    71c4 <__pyx_pymod_exec_arrow_mouse+0x2033>
    71b6:	48 8d 0d 13 6c 00 00 	lea    0x6c13(%rip),%rcx        # ddd0 <__PRETTY_FUNCTION__.16078>
    71bd:	ba b9 0d 00 00       	mov    $0xdb9,%edx
    71c2:	eb 17                	jmp    71db <__pyx_pymod_exec_arrow_mouse+0x204a>
    71c4:	4c 89 7b 18          	mov    %r15,0x18(%rbx)
    71c8:	eb 24                	jmp    71ee <__pyx_pymod_exec_arrow_mouse+0x205d>
    71ca:	48 85 c0             	test   %rax,%rax
    71cd:	75 1f                	jne    71ee <__pyx_pymod_exec_arrow_mouse+0x205d>
    71cf:	48 8d 0d fa 6b 00 00 	lea    0x6bfa(%rip),%rcx        # ddd0 <__PRETTY_FUNCTION__.16078>
    71d6:	ba bc 0d 00 00       	mov    $0xdbc,%edx
    71db:	48 8d 35 22 5e 00 00 	lea    0x5e22(%rip),%rsi        # d004 <_IO_stdin_used+0x4>
    71e2:	48 8d 3d e5 67 00 00 	lea    0x67e5(%rip),%rdi        # d9ce <_IO_stdin_used+0x9ce>
    71e9:	e9 c3 ee ff ff       	jmpq   60b1 <__pyx_pymod_exec_arrow_mouse+0xf20>
    71ee:	48 8d 04 eb          	lea    (%rbx,%rbp,8),%rax
    71f2:	31 d2                	xor    %edx,%edx
    71f4:	48 89 de             	mov    %rbx,%rsi
    71f7:	4c 89 ef             	mov    %r13,%rdi
    71fa:	4c 89 60 18          	mov    %r12,0x18(%rax)
    71fe:	4c 89 48 20          	mov    %r9,0x20(%rax)
    7202:	e8 d6 30 00 00       	callq  a2dd <__Pyx_PyObject_Call>
    7207:	48 89 c5             	mov    %rax,%rbp
    720a:	48 85 c0             	test   %rax,%rax
    720d:	0f 84 29 1f 00 00    	je     913c <__pyx_pymod_exec_arrow_mouse+0x3fab>
    7213:	48 89 df             	mov    %rbx,%rdi
    7216:	e8 54 35 00 00       	callq  a76f <_Py_DECREF.isra.0>
    721b:	4c 89 ef             	mov    %r13,%rdi
    721e:	e8 4c 35 00 00       	callq  a76f <_Py_DECREF.isra.0>
    7223:	48 8b 35 66 cc 00 00 	mov    0xcc66(%rip),%rsi        # 13e90 <__pyx_n_s_speed>
    722a:	48 8b 3d 6f ce 00 00 	mov    0xce6f(%rip),%rdi        # 140a0 <__pyx_d>
    7231:	48 89 ea             	mov    %rbp,%rdx
    7234:	e8 17 da ff ff       	callq  4c50 <PyDict_SetItem@plt>
    7239:	85 c0                	test   %eax,%eax
    723b:	0f 88 14 1f 00 00    	js     9155 <__pyx_pymod_exec_arrow_mouse+0x3fc4>
    7241:	48 89 ef             	mov    %rbp,%rdi
    7244:	e8 26 35 00 00       	callq  a76f <_Py_DECREF.isra.0>
    7249:	eb 3d                	jmp    7288 <__pyx_pymod_exec_arrow_mouse+0x20f7>
    724b:	48 8b 15 be cb 00 00 	mov    0xcbbe(%rip),%rdx        # 13e10 <__pyx_int_1>
    7252:	48 8b 35 37 cc 00 00 	mov    0xcc37(%rip),%rsi        # 13e90 <__pyx_n_s_speed>
    7259:	e8 f2 d9 ff ff       	callq  4c50 <PyDict_SetItem@plt>
    725e:	85 c0                	test   %eax,%eax
    7260:	0f 88 0a 1f 00 00    	js     9170 <__pyx_pymod_exec_arrow_mouse+0x3fdf>
    7266:	48 8b 15 a3 cb 00 00 	mov    0xcba3(%rip),%rdx        # 13e10 <__pyx_int_1>
    726d:	48 8b 35 fc cb 00 00 	mov    0xcbfc(%rip),%rsi        # 13e70 <__pyx_n_s_t>
    7274:	48 8b 3d 25 ce 00 00 	mov    0xce25(%rip),%rdi        # 140a0 <__pyx_d>
    727b:	e8 d0 d9 ff ff       	callq  4c50 <PyDict_SetItem@plt>
    7280:	85 c0                	test   %eax,%eax
    7282:	0f 88 05 1f 00 00    	js     918d <__pyx_pymod_exec_arrow_mouse+0x3ffc>
    7288:	48 8b 05 11 ce 00 00 	mov    0xce11(%rip),%rax        # 140a0 <__pyx_d>
    728f:	48 8b 0d 1a ca 00 00 	mov    0xca1a(%rip),%rcx        # 13cb0 <__pyx_dict_version.16097>
    7296:	48 39 48 18          	cmp    %rcx,0x18(%rax)
    729a:	75 20                	jne    72bc <__pyx_pymod_exec_arrow_mouse+0x212b>
    729c:	48 8b 2d 05 ca 00 00 	mov    0xca05(%rip),%rbp        # 13ca8 <__pyx_dict_cached_value.16098>
    72a3:	48 85 ed             	test   %rbp,%rbp
    72a6:	74 06                	je     72ae <__pyx_pymod_exec_arrow_mouse+0x211d>
    72a8:	48 ff 45 00          	incq   0x0(%rbp)
    72ac:	eb 34                	jmp    72e2 <__pyx_pymod_exec_arrow_mouse+0x2151>
    72ae:	48 8b 3d 3b cc 00 00 	mov    0xcc3b(%rip),%rdi        # 13ef0 <__pyx_n_s_o_x>
    72b5:	e8 0d 34 00 00       	callq  a6c7 <__Pyx_GetBuiltinName>
    72ba:	eb 1a                	jmp    72d6 <__pyx_pymod_exec_arrow_mouse+0x2145>
    72bc:	48 8b 3d 2d cc 00 00 	mov    0xcc2d(%rip),%rdi        # 13ef0 <__pyx_n_s_o_x>
    72c3:	48 8d 15 de c9 00 00 	lea    0xc9de(%rip),%rdx        # 13ca8 <__pyx_dict_cached_value.16098>
    72ca:	48 8d 35 df c9 00 00 	lea    0xc9df(%rip),%rsi        # 13cb0 <__pyx_dict_version.16097>
    72d1:	e8 31 34 00 00       	callq  a707 <__Pyx__GetModuleGlobalName>
    72d6:	48 89 c5             	mov    %rax,%rbp
    72d9:	48 85 c0             	test   %rax,%rax
    72dc:	0f 84 c8 1e 00 00    	je     91aa <__pyx_pymod_exec_arrow_mouse+0x4019>
    72e2:	48 8b 35 47 cb 00 00 	mov    0xcb47(%rip),%rsi        # 13e30 <__pyx_n_s_x>
    72e9:	48 8b 3d b0 cd 00 00 	mov    0xcdb0(%rip),%rdi        # 140a0 <__pyx_d>
    72f0:	48 89 ea             	mov    %rbp,%rdx
    72f3:	e8 58 d9 ff ff       	callq  4c50 <PyDict_SetItem@plt>
    72f8:	85 c0                	test   %eax,%eax
    72fa:	0f 88 c8 1e 00 00    	js     91c8 <__pyx_pymod_exec_arrow_mouse+0x4037>
    7300:	48 89 ef             	mov    %rbp,%rdi
    7303:	e8 67 34 00 00       	callq  a76f <_Py_DECREF.isra.0>
    7308:	48 8b 05 91 cd 00 00 	mov    0xcd91(%rip),%rax        # 140a0 <__pyx_d>
    730f:	48 8b 0d 8a c9 00 00 	mov    0xc98a(%rip),%rcx        # 13ca0 <__pyx_dict_version.16099>
    7316:	48 39 48 18          	cmp    %rcx,0x18(%rax)
    731a:	75 20                	jne    733c <__pyx_pymod_exec_arrow_mouse+0x21ab>
    731c:	48 8b 2d 75 c9 00 00 	mov    0xc975(%rip),%rbp        # 13c98 <__pyx_dict_cached_value.16100>
    7323:	48 85 ed             	test   %rbp,%rbp
    7326:	74 06                	je     732e <__pyx_pymod_exec_arrow_mouse+0x219d>
    7328:	48 ff 45 00          	incq   0x0(%rbp)
    732c:	eb 34                	jmp    7362 <__pyx_pymod_exec_arrow_mouse+0x21d1>
    732e:	48 8b 3d b3 cb 00 00 	mov    0xcbb3(%rip),%rdi        # 13ee8 <__pyx_n_s_o_y>
    7335:	e8 8d 33 00 00       	callq  a6c7 <__Pyx_GetBuiltinName>
    733a:	eb 1a                	jmp    7356 <__pyx_pymod_exec_arrow_mouse+0x21c5>
    733c:	48 8b 3d a5 cb 00 00 	mov    0xcba5(%rip),%rdi        # 13ee8 <__pyx_n_s_o_y>
    7343:	48 8d 15 4e c9 00 00 	lea    0xc94e(%rip),%rdx        # 13c98 <__pyx_dict_cached_value.16100>
    734a:	48 8d 35 4f c9 00 00 	lea    0xc94f(%rip),%rsi        # 13ca0 <__pyx_dict_version.16099>
    7351:	e8 b1 33 00 00       	callq  a707 <__Pyx__GetModuleGlobalName>
    7356:	48 89 c5             	mov    %rax,%rbp
    7359:	48 85 c0             	test   %rax,%rax
    735c:	0f 84 81 1e 00 00    	je     91e3 <__pyx_pymod_exec_arrow_mouse+0x4052>
    7362:	48 8b 35 bf ca 00 00 	mov    0xcabf(%rip),%rsi        # 13e28 <__pyx_n_s_y>
    7369:	48 8b 3d 30 cd 00 00 	mov    0xcd30(%rip),%rdi        # 140a0 <__pyx_d>
    7370:	48 89 ea             	mov    %rbp,%rdx
    7373:	e8 d8 d8 ff ff       	callq  4c50 <PyDict_SetItem@plt>
    7378:	85 c0                	test   %eax,%eax
    737a:	0f 88 81 1e 00 00    	js     9201 <__pyx_pymod_exec_arrow_mouse+0x4070>
    7380:	48 89 ef             	mov    %rbp,%rdi
    7383:	e8 e7 33 00 00       	callq  a76f <_Py_DECREF.isra.0>
    7388:	48 8b 35 71 cb 00 00 	mov    0xcb71(%rip),%rsi        # 13f00 <__pyx_n_s_move_mouse>
    738f:	48 8b 3d 0a cd 00 00 	mov    0xcd0a(%rip),%rdi        # 140a0 <__pyx_d>
    7396:	48 8d 15 03 b9 00 00 	lea    0xb903(%rip),%rdx        # 12ca0 <_Py_FalseStruct>
    739d:	e8 ae d8 ff ff       	callq  4c50 <PyDict_SetItem@plt>
    73a2:	85 c0                	test   %eax,%eax
    73a4:	0f 88 72 1e 00 00    	js     921c <__pyx_pymod_exec_arrow_mouse+0x408b>
    73aa:	48 8b 05 ef cc 00 00 	mov    0xccef(%rip),%rax        # 140a0 <__pyx_d>
    73b1:	48 8b 0d d8 c8 00 00 	mov    0xc8d8(%rip),%rcx        # 13c90 <__pyx_dict_version.16101>
    73b8:	48 39 48 18          	cmp    %rcx,0x18(%rax)
    73bc:	75 20                	jne    73de <__pyx_pymod_exec_arrow_mouse+0x224d>
    73be:	48 8b 2d c3 c8 00 00 	mov    0xc8c3(%rip),%rbp        # 13c88 <__pyx_dict_cached_value.16102>
    73c5:	48 85 ed             	test   %rbp,%rbp
    73c8:	74 06                	je     73d0 <__pyx_pymod_exec_arrow_mouse+0x223f>
    73ca:	48 ff 45 00          	incq   0x0(%rbp)
    73ce:	eb 34                	jmp    7404 <__pyx_pymod_exec_arrow_mouse+0x2273>
    73d0:	48 8b 3d 89 cb 00 00 	mov    0xcb89(%rip),%rdi        # 13f60 <__pyx_n_s_keyboard>
    73d7:	e8 eb 32 00 00       	callq  a6c7 <__Pyx_GetBuiltinName>
    73dc:	eb 1a                	jmp    73f8 <__pyx_pymod_exec_arrow_mouse+0x2267>
    73de:	48 8b 3d 7b cb 00 00 	mov    0xcb7b(%rip),%rdi        # 13f60 <__pyx_n_s_keyboard>
    73e5:	48 8d 15 9c c8 00 00 	lea    0xc89c(%rip),%rdx        # 13c88 <__pyx_dict_cached_value.16102>
    73ec:	48 8d 35 9d c8 00 00 	lea    0xc89d(%rip),%rsi        # 13c90 <__pyx_dict_version.16101>
    73f3:	e8 0f 33 00 00       	callq  a707 <__Pyx__GetModuleGlobalName>
    73f8:	48 89 c5             	mov    %rax,%rbp
    73fb:	48 85 c0             	test   %rax,%rax
    73fe:	0f 84 35 1e 00 00    	je     9239 <__pyx_pymod_exec_arrow_mouse+0x40a8>
    7404:	48 8b 35 6d cb 00 00 	mov    0xcb6d(%rip),%rsi        # 13f78 <__pyx_n_s_is_pressed>
    740b:	48 89 ef             	mov    %rbp,%rdi
    740e:	e8 02 2e 00 00       	callq  a215 <__Pyx_PyObject_GetAttrStr>
    7413:	49 89 c4             	mov    %rax,%r12
    7416:	48 85 c0             	test   %rax,%rax
    7419:	0f 84 38 1e 00 00    	je     9257 <__pyx_pymod_exec_arrow_mouse+0x40c6>
    741f:	48 89 ef             	mov    %rbp,%rdi
    7422:	e8 48 33 00 00       	callq  a76f <_Py_DECREF.isra.0>
    7427:	48 8d 05 d2 bd 00 00 	lea    0xbdd2(%rip),%rax        # 13200 <PyMethod_Type>
    742e:	49 39 44 24 08       	cmp    %rax,0x8(%r12)
    7433:	75 35                	jne    746a <__pyx_pymod_exec_arrow_mouse+0x22d9>
    7435:	4d 8b 6c 24 18       	mov    0x18(%r12),%r13
    743a:	4d 85 ed             	test   %r13,%r13
    743d:	74 2b                	je     746a <__pyx_pymod_exec_arrow_mouse+0x22d9>
    743f:	49 8b 5c 24 10       	mov    0x10(%r12),%rbx
    7444:	49 ff 45 00          	incq   0x0(%r13)
    7448:	4c 89 e7             	mov    %r12,%rdi
    744b:	48 ff 03             	incq   (%rbx)
    744e:	e8 1c 33 00 00       	callq  a76f <_Py_DECREF.isra.0>
    7453:	48 8b 15 36 cb 00 00 	mov    0xcb36(%rip),%rdx        # 13f90 <__pyx_n_s_i>
    745a:	4c 89 ee             	mov    %r13,%rsi
    745d:	48 89 df             	mov    %rbx,%rdi
    7460:	e8 95 3f 00 00       	callq  b3fa <__Pyx_PyObject_Call2Args>
    7465:	48 89 c5             	mov    %rax,%rbp
    7468:	eb 18                	jmp    7482 <__pyx_pymod_exec_arrow_mouse+0x22f1>
    746a:	48 8b 35 1f cb 00 00 	mov    0xcb1f(%rip),%rsi        # 13f90 <__pyx_n_s_i>
    7471:	4c 89 e7             	mov    %r12,%rdi
    7474:	4c 89 e3             	mov    %r12,%rbx
    7477:	45 31 ed             	xor    %r13d,%r13d
    747a:	e8 b5 40 00 00       	callq  b534 <__Pyx_PyObject_CallOneArg>
    747f:	48 89 c5             	mov    %rax,%rbp
    7482:	4c 89 ef             	mov    %r13,%rdi
    7485:	e8 d5 33 00 00       	callq  a85f <_Py_XDECREF>
    748a:	48 85 ed             	test   %rbp,%rbp
    748d:	0f 84 e1 1d 00 00    	je     9274 <__pyx_pymod_exec_arrow_mouse+0x40e3>
    7493:	48 89 df             	mov    %rbx,%rdi
    7496:	e8 d4 32 00 00       	callq  a76f <_Py_DECREF.isra.0>
    749b:	48 89 ef             	mov    %rbp,%rdi
    749e:	e8 03 2f 00 00       	callq  a3a6 <__Pyx_PyObject_IsTrue>
    74a3:	41 89 c4             	mov    %eax,%r12d
    74a6:	85 c0                	test   %eax,%eax
    74a8:	0f 88 e2 1d 00 00    	js     9290 <__pyx_pymod_exec_arrow_mouse+0x40ff>
    74ae:	48 89 ef             	mov    %rbp,%rdi
    74b1:	e8 b9 32 00 00       	callq  a76f <_Py_DECREF.isra.0>
    74b6:	45 85 e4             	test   %r12d,%r12d
    74b9:	0f 84 01 01 00 00    	je     75c0 <__pyx_pymod_exec_arrow_mouse+0x242f>
    74bf:	48 8b 05 da cb 00 00 	mov    0xcbda(%rip),%rax        # 140a0 <__pyx_d>
    74c6:	48 8b 0d b3 c7 00 00 	mov    0xc7b3(%rip),%rcx        # 13c80 <__pyx_dict_version.16105>
    74cd:	48 39 48 18          	cmp    %rcx,0x18(%rax)
    74d1:	75 20                	jne    74f3 <__pyx_pymod_exec_arrow_mouse+0x2362>
    74d3:	48 8b 2d 9e c7 00 00 	mov    0xc79e(%rip),%rbp        # 13c78 <__pyx_dict_cached_value.16106>
    74da:	48 85 ed             	test   %rbp,%rbp
    74dd:	74 06                	je     74e5 <__pyx_pymod_exec_arrow_mouse+0x2354>
    74df:	48 ff 45 00          	incq   0x0(%rbp)
    74e3:	eb 34                	jmp    7519 <__pyx_pymod_exec_arrow_mouse+0x2388>
    74e5:	48 8b 3d fc c9 00 00 	mov    0xc9fc(%rip),%rdi        # 13ee8 <__pyx_n_s_o_y>
    74ec:	e8 d6 31 00 00       	callq  a6c7 <__Pyx_GetBuiltinName>
    74f1:	eb 1a                	jmp    750d <__pyx_pymod_exec_arrow_mouse+0x237c>
    74f3:	48 8b 3d ee c9 00 00 	mov    0xc9ee(%rip),%rdi        # 13ee8 <__pyx_n_s_o_y>
    74fa:	48 8d 15 77 c7 00 00 	lea    0xc777(%rip),%rdx        # 13c78 <__pyx_dict_cached_value.16106>
    7501:	48 8d 35 78 c7 00 00 	lea    0xc778(%rip),%rsi        # 13c80 <__pyx_dict_version.16105>
    7508:	e8 fa 31 00 00       	callq  a707 <__Pyx__GetModuleGlobalName>
    750d:	48 89 c5             	mov    %rax,%rbp
    7510:	48 85 c0             	test   %rax,%rax
    7513:	0f 84 92 1d 00 00    	je     92ab <__pyx_pymod_exec_arrow_mouse+0x411a>
    7519:	48 8b 05 80 cb 00 00 	mov    0xcb80(%rip),%rax        # 140a0 <__pyx_d>
    7520:	48 8b 0d 49 c7 00 00 	mov    0xc749(%rip),%rcx        # 13c70 <__pyx_dict_version.16107>
    7527:	48 39 48 18          	cmp    %rcx,0x18(%rax)
    752b:	75 20                	jne    754d <__pyx_pymod_exec_arrow_mouse+0x23bc>
    752d:	4c 8b 25 34 c7 00 00 	mov    0xc734(%rip),%r12        # 13c68 <__pyx_dict_cached_value.16108>
    7534:	4d 85 e4             	test   %r12,%r12
    7537:	74 06                	je     753f <__pyx_pymod_exec_arrow_mouse+0x23ae>
    7539:	49 ff 04 24          	incq   (%r12)
    753d:	eb 34                	jmp    7573 <__pyx_pymod_exec_arrow_mouse+0x23e2>
    753f:	48 8b 3d 4a c9 00 00 	mov    0xc94a(%rip),%rdi        # 13e90 <__pyx_n_s_speed>
    7546:	e8 7c 31 00 00       	callq  a6c7 <__Pyx_GetBuiltinName>
    754b:	eb 1a                	jmp    7567 <__pyx_pymod_exec_arrow_mouse+0x23d6>
    754d:	48 8b 3d 3c c9 00 00 	mov    0xc93c(%rip),%rdi        # 13e90 <__pyx_n_s_speed>
    7554:	48 8d 15 0d c7 00 00 	lea    0xc70d(%rip),%rdx        # 13c68 <__pyx_dict_cached_value.16108>
    755b:	48 8d 35 0e c7 00 00 	lea    0xc70e(%rip),%rsi        # 13c70 <__pyx_dict_version.16107>
    7562:	e8 a0 31 00 00       	callq  a707 <__Pyx__GetModuleGlobalName>
    7567:	49 89 c4             	mov    %rax,%r12
    756a:	48 85 c0             	test   %rax,%rax
    756d:	0f 84 56 1d 00 00    	je     92c9 <__pyx_pymod_exec_arrow_mouse+0x4138>
    7573:	4c 89 e6             	mov    %r12,%rsi
    7576:	48 89 ef             	mov    %rbp,%rdi
    7579:	e8 92 d4 ff ff       	callq  4a10 <PyNumber_Subtract@plt>
    757e:	49 89 c5             	mov    %rax,%r13
    7581:	48 85 c0             	test   %rax,%rax
    7584:	0f 84 5a 1d 00 00    	je     92e4 <__pyx_pymod_exec_arrow_mouse+0x4153>
    758a:	48 89 ef             	mov    %rbp,%rdi
    758d:	e8 dd 31 00 00       	callq  a76f <_Py_DECREF.isra.0>
    7592:	4c 89 e7             	mov    %r12,%rdi
    7595:	e8 d5 31 00 00       	callq  a76f <_Py_DECREF.isra.0>
    759a:	48 8b 35 87 c8 00 00 	mov    0xc887(%rip),%rsi        # 13e28 <__pyx_n_s_y>
    75a1:	48 8b 3d f8 ca 00 00 	mov    0xcaf8(%rip),%rdi        # 140a0 <__pyx_d>
    75a8:	4c 89 ea             	mov    %r13,%rdx
    75ab:	e8 a0 d6 ff ff       	callq  4c50 <PyDict_SetItem@plt>
    75b0:	85 c0                	test   %eax,%eax
    75b2:	0f 88 48 1d 00 00    	js     9300 <__pyx_pymod_exec_arrow_mouse+0x416f>
    75b8:	4c 89 ef             	mov    %r13,%rdi
    75bb:	e8 af 31 00 00       	callq  a76f <_Py_DECREF.isra.0>
    75c0:	48 8b 05 d9 ca 00 00 	mov    0xcad9(%rip),%rax        # 140a0 <__pyx_d>
    75c7:	48 8b 0d 92 c6 00 00 	mov    0xc692(%rip),%rcx        # 13c60 <__pyx_dict_version.16109>
    75ce:	48 39 48 18          	cmp    %rcx,0x18(%rax)
    75d2:	75 20                	jne    75f4 <__pyx_pymod_exec_arrow_mouse+0x2463>
    75d4:	48 8b 2d 7d c6 00 00 	mov    0xc67d(%rip),%rbp        # 13c58 <__pyx_dict_cached_value.16110>
    75db:	48 85 ed             	test   %rbp,%rbp
    75de:	74 06                	je     75e6 <__pyx_pymod_exec_arrow_mouse+0x2455>
    75e0:	48 ff 45 00          	incq   0x0(%rbp)
    75e4:	eb 34                	jmp    761a <__pyx_pymod_exec_arrow_mouse+0x2489>
    75e6:	48 8b 3d 73 c9 00 00 	mov    0xc973(%rip),%rdi        # 13f60 <__pyx_n_s_keyboard>
    75ed:	e8 d5 30 00 00       	callq  a6c7 <__Pyx_GetBuiltinName>
    75f2:	eb 1a                	jmp    760e <__pyx_pymod_exec_arrow_mouse+0x247d>
    75f4:	48 8b 3d 65 c9 00 00 	mov    0xc965(%rip),%rdi        # 13f60 <__pyx_n_s_keyboard>
    75fb:	48 8d 15 56 c6 00 00 	lea    0xc656(%rip),%rdx        # 13c58 <__pyx_dict_cached_value.16110>
    7602:	48 8d 35 57 c6 00 00 	lea    0xc657(%rip),%rsi        # 13c60 <__pyx_dict_version.16109>
    7609:	e8 f9 30 00 00       	callq  a707 <__Pyx__GetModuleGlobalName>
    760e:	48 89 c5             	mov    %rax,%rbp
    7611:	48 85 c0             	test   %rax,%rax
    7614:	0f 84 00 1d 00 00    	je     931a <__pyx_pymod_exec_arrow_mouse+0x4189>
    761a:	48 8b 35 57 c9 00 00 	mov    0xc957(%rip),%rsi        # 13f78 <__pyx_n_s_is_pressed>
    7621:	48 89 ef             	mov    %rbp,%rdi
    7624:	e8 ec 2b 00 00       	callq  a215 <__Pyx_PyObject_GetAttrStr>
    7629:	49 89 c4             	mov    %rax,%r12
    762c:	48 85 c0             	test   %rax,%rax
    762f:	0f 84 03 1d 00 00    	je     9338 <__pyx_pymod_exec_arrow_mouse+0x41a7>
    7635:	48 89 ef             	mov    %rbp,%rdi
    7638:	e8 32 31 00 00       	callq  a76f <_Py_DECREF.isra.0>
    763d:	48 8d 05 bc bb 00 00 	lea    0xbbbc(%rip),%rax        # 13200 <PyMethod_Type>
    7644:	49 39 44 24 08       	cmp    %rax,0x8(%r12)
    7649:	75 35                	jne    7680 <__pyx_pymod_exec_arrow_mouse+0x24ef>
    764b:	4d 8b 7c 24 18       	mov    0x18(%r12),%r15
    7650:	4d 85 ff             	test   %r15,%r15
    7653:	74 2b                	je     7680 <__pyx_pymod_exec_arrow_mouse+0x24ef>
    7655:	49 8b 6c 24 10       	mov    0x10(%r12),%rbp
    765a:	49 ff 07             	incq   (%r15)
    765d:	4c 89 e7             	mov    %r12,%rdi
    7660:	48 ff 45 00          	incq   0x0(%rbp)
    7664:	e8 06 31 00 00       	callq  a76f <_Py_DECREF.isra.0>
    7669:	48 8b 15 f8 c8 00 00 	mov    0xc8f8(%rip),%rdx        # 13f68 <__pyx_n_s_k>
    7670:	4c 89 fe             	mov    %r15,%rsi
    7673:	48 89 ef             	mov    %rbp,%rdi
    7676:	e8 7f 3d 00 00       	callq  b3fa <__Pyx_PyObject_Call2Args>
    767b:	49 89 c5             	mov    %rax,%r13
    767e:	eb 18                	jmp    7698 <__pyx_pymod_exec_arrow_mouse+0x2507>
    7680:	48 8b 35 e1 c8 00 00 	mov    0xc8e1(%rip),%rsi        # 13f68 <__pyx_n_s_k>
    7687:	4c 89 e7             	mov    %r12,%rdi
    768a:	45 31 ff             	xor    %r15d,%r15d
    768d:	4c 89 e5             	mov    %r12,%rbp
    7690:	e8 9f 3e 00 00       	callq  b534 <__Pyx_PyObject_CallOneArg>
    7695:	49 89 c5             	mov    %rax,%r13
    7698:	4c 89 ff             	mov    %r15,%rdi
    769b:	e8 bf 31 00 00       	callq  a85f <_Py_XDECREF>
    76a0:	4d 85 ed             	test   %r13,%r13
    76a3:	0f 84 ad 1c 00 00    	je     9356 <__pyx_pymod_exec_arrow_mouse+0x41c5>
    76a9:	48 89 ef             	mov    %rbp,%rdi
    76ac:	e8 be 30 00 00       	callq  a76f <_Py_DECREF.isra.0>
    76b1:	4c 89 ef             	mov    %r13,%rdi
    76b4:	e8 ed 2c 00 00       	callq  a3a6 <__Pyx_PyObject_IsTrue>
    76b9:	89 c5                	mov    %eax,%ebp
    76bb:	85 c0                	test   %eax,%eax
    76bd:	0f 88 ae 1c 00 00    	js     9371 <__pyx_pymod_exec_arrow_mouse+0x41e0>
    76c3:	4c 89 ef             	mov    %r13,%rdi
    76c6:	e8 a4 30 00 00       	callq  a76f <_Py_DECREF.isra.0>
    76cb:	85 ed                	test   %ebp,%ebp
    76cd:	0f 84 04 01 00 00    	je     77d7 <__pyx_pymod_exec_arrow_mouse+0x2646>
    76d3:	48 8b 05 c6 c9 00 00 	mov    0xc9c6(%rip),%rax        # 140a0 <__pyx_d>
    76da:	48 8b 0d 6f c5 00 00 	mov    0xc56f(%rip),%rcx        # 13c50 <__pyx_dict_version.16113>
    76e1:	48 39 48 18          	cmp    %rcx,0x18(%rax)
    76e5:	75 20                	jne    7707 <__pyx_pymod_exec_arrow_mouse+0x2576>
    76e7:	4c 8b 2d 5a c5 00 00 	mov    0xc55a(%rip),%r13        # 13c48 <__pyx_dict_cached_value.16114>
    76ee:	4d 85 ed             	test   %r13,%r13
    76f1:	74 06                	je     76f9 <__pyx_pymod_exec_arrow_mouse+0x2568>
    76f3:	49 ff 45 00          	incq   0x0(%r13)
    76f7:	eb 37                	jmp    7730 <__pyx_pymod_exec_arrow_mouse+0x259f>
    76f9:	48 8b 3d e8 c7 00 00 	mov    0xc7e8(%rip),%rdi        # 13ee8 <__pyx_n_s_o_y>
    7700:	e8 c2 2f 00 00       	callq  a6c7 <__Pyx_GetBuiltinName>
    7705:	eb 1a                	jmp    7721 <__pyx_pymod_exec_arrow_mouse+0x2590>
    7707:	48 8b 3d da c7 00 00 	mov    0xc7da(%rip),%rdi        # 13ee8 <__pyx_n_s_o_y>
    770e:	48 8d 15 33 c5 00 00 	lea    0xc533(%rip),%rdx        # 13c48 <__pyx_dict_cached_value.16114>
    7715:	48 8d 35 34 c5 00 00 	lea    0xc534(%rip),%rsi        # 13c50 <__pyx_dict_version.16113>
    771c:	e8 e6 2f 00 00       	callq  a707 <__Pyx__GetModuleGlobalName>
    7721:	48 89 c5             	mov    %rax,%rbp
    7724:	48 85 c0             	test   %rax,%rax
    7727:	0f 84 5e 1c 00 00    	je     938b <__pyx_pymod_exec_arrow_mouse+0x41fa>
    772d:	49 89 c5             	mov    %rax,%r13
    7730:	48 8b 05 69 c9 00 00 	mov    0xc969(%rip),%rax        # 140a0 <__pyx_d>
    7737:	48 8b 0d 02 c5 00 00 	mov    0xc502(%rip),%rcx        # 13c40 <__pyx_dict_version.16115>
    773e:	48 39 48 18          	cmp    %rcx,0x18(%rax)
    7742:	75 20                	jne    7764 <__pyx_pymod_exec_arrow_mouse+0x25d3>
    7744:	48 8b 2d ed c4 00 00 	mov    0xc4ed(%rip),%rbp        # 13c38 <__pyx_dict_cached_value.16116>
    774b:	48 85 ed             	test   %rbp,%rbp
    774e:	74 06                	je     7756 <__pyx_pymod_exec_arrow_mouse+0x25c5>
    7750:	48 ff 45 00          	incq   0x0(%rbp)
    7754:	eb 34                	jmp    778a <__pyx_pymod_exec_arrow_mouse+0x25f9>
    7756:	48 8b 3d 33 c7 00 00 	mov    0xc733(%rip),%rdi        # 13e90 <__pyx_n_s_speed>
    775d:	e8 65 2f 00 00       	callq  a6c7 <__Pyx_GetBuiltinName>
    7762:	eb 1a                	jmp    777e <__pyx_pymod_exec_arrow_mouse+0x25ed>
    7764:	48 8b 3d 25 c7 00 00 	mov    0xc725(%rip),%rdi        # 13e90 <__pyx_n_s_speed>
    776b:	48 8d 15 c6 c4 00 00 	lea    0xc4c6(%rip),%rdx        # 13c38 <__pyx_dict_cached_value.16116>
    7772:	48 8d 35 c7 c4 00 00 	lea    0xc4c7(%rip),%rsi        # 13c40 <__pyx_dict_version.16115>
    7779:	e8 89 2f 00 00       	callq  a707 <__Pyx__GetModuleGlobalName>
    777e:	48 89 c5             	mov    %rax,%rbp
    7781:	48 85 c0             	test   %rax,%rax
    7784:	0f 84 1f 1c 00 00    	je     93a9 <__pyx_pymod_exec_arrow_mouse+0x4218>
    778a:	48 89 ee             	mov    %rbp,%rsi
    778d:	4c 89 ef             	mov    %r13,%rdi
    7790:	e8 bb ce ff ff       	callq  4650 <PyNumber_Add@plt>
    7795:	48 89 c3             	mov    %rax,%rbx
    7798:	48 85 c0             	test   %rax,%rax
    779b:	0f 84 23 1c 00 00    	je     93c4 <__pyx_pymod_exec_arrow_mouse+0x4233>
    77a1:	4c 89 ef             	mov    %r13,%rdi
    77a4:	e8 c6 2f 00 00       	callq  a76f <_Py_DECREF.isra.0>
    77a9:	48 89 ef             	mov    %rbp,%rdi
    77ac:	e8 be 2f 00 00       	callq  a76f <_Py_DECREF.isra.0>
    77b1:	48 8b 35 70 c6 00 00 	mov    0xc670(%rip),%rsi        # 13e28 <__pyx_n_s_y>
    77b8:	48 8b 3d e1 c8 00 00 	mov    0xc8e1(%rip),%rdi        # 140a0 <__pyx_d>
    77bf:	48 89 da             	mov    %rbx,%rdx
    77c2:	e8 89 d4 ff ff       	callq  4c50 <PyDict_SetItem@plt>
    77c7:	85 c0                	test   %eax,%eax
    77c9:	0f 88 0e 1c 00 00    	js     93dd <__pyx_pymod_exec_arrow_mouse+0x424c>
    77cf:	48 89 df             	mov    %rbx,%rdi
    77d2:	e8 98 2f 00 00       	callq  a76f <_Py_DECREF.isra.0>
    77d7:	48 8b 05 c2 c8 00 00 	mov    0xc8c2(%rip),%rax        # 140a0 <__pyx_d>
    77de:	48 8b 0d 4b c4 00 00 	mov    0xc44b(%rip),%rcx        # 13c30 <__pyx_dict_version.16117>
    77e5:	48 39 48 18          	cmp    %rcx,0x18(%rax)
    77e9:	75 20                	jne    780b <__pyx_pymod_exec_arrow_mouse+0x267a>
    77eb:	48 8b 2d 36 c4 00 00 	mov    0xc436(%rip),%rbp        # 13c28 <__pyx_dict_cached_value.16118>
    77f2:	48 85 ed             	test   %rbp,%rbp
    77f5:	74 06                	je     77fd <__pyx_pymod_exec_arrow_mouse+0x266c>
    77f7:	48 ff 45 00          	incq   0x0(%rbp)
    77fb:	eb 34                	jmp    7831 <__pyx_pymod_exec_arrow_mouse+0x26a0>
    77fd:	48 8b 3d 5c c7 00 00 	mov    0xc75c(%rip),%rdi        # 13f60 <__pyx_n_s_keyboard>
    7804:	e8 be 2e 00 00       	callq  a6c7 <__Pyx_GetBuiltinName>
    7809:	eb 1a                	jmp    7825 <__pyx_pymod_exec_arrow_mouse+0x2694>
    780b:	48 8b 3d 4e c7 00 00 	mov    0xc74e(%rip),%rdi        # 13f60 <__pyx_n_s_keyboard>
    7812:	48 8d 15 0f c4 00 00 	lea    0xc40f(%rip),%rdx        # 13c28 <__pyx_dict_cached_value.16118>
    7819:	48 8d 35 10 c4 00 00 	lea    0xc410(%rip),%rsi        # 13c30 <__pyx_dict_version.16117>
    7820:	e8 e2 2e 00 00       	callq  a707 <__Pyx__GetModuleGlobalName>
    7825:	48 89 c5             	mov    %rax,%rbp
    7828:	48 85 c0             	test   %rax,%rax
    782b:	0f 84 c7 1b 00 00    	je     93f8 <__pyx_pymod_exec_arrow_mouse+0x4267>
    7831:	48 8b 35 40 c7 00 00 	mov    0xc740(%rip),%rsi        # 13f78 <__pyx_n_s_is_pressed>
    7838:	48 89 ef             	mov    %rbp,%rdi
    783b:	e8 d5 29 00 00       	callq  a215 <__Pyx_PyObject_GetAttrStr>
    7840:	49 89 c4             	mov    %rax,%r12
    7843:	48 85 c0             	test   %rax,%rax
    7846:	0f 84 ca 1b 00 00    	je     9416 <__pyx_pymod_exec_arrow_mouse+0x4285>
    784c:	48 89 ef             	mov    %rbp,%rdi
    784f:	e8 1b 2f 00 00       	callq  a76f <_Py_DECREF.isra.0>
    7854:	48 8d 05 a5 b9 00 00 	lea    0xb9a5(%rip),%rax        # 13200 <PyMethod_Type>
    785b:	49 39 44 24 08       	cmp    %rax,0x8(%r12)
    7860:	75 36                	jne    7898 <__pyx_pymod_exec_arrow_mouse+0x2707>
    7862:	49 8b 6c 24 18       	mov    0x18(%r12),%rbp
    7867:	48 85 ed             	test   %rbp,%rbp
    786a:	74 2c                	je     7898 <__pyx_pymod_exec_arrow_mouse+0x2707>
    786c:	4d 8b 6c 24 10       	mov    0x10(%r12),%r13
    7871:	48 ff 45 00          	incq   0x0(%rbp)
    7875:	4c 89 e7             	mov    %r12,%rdi
    7878:	49 ff 45 00          	incq   0x0(%r13)
    787c:	e8 ee 2e 00 00       	callq  a76f <_Py_DECREF.isra.0>
    7881:	48 8b 15 d0 c6 00 00 	mov    0xc6d0(%rip),%rdx        # 13f58 <__pyx_n_s_l>
    7888:	48 89 ee             	mov    %rbp,%rsi
    788b:	4c 89 ef             	mov    %r13,%rdi
    788e:	e8 67 3b 00 00       	callq  b3fa <__Pyx_PyObject_Call2Args>
    7893:	48 89 c3             	mov    %rax,%rbx
    7896:	eb 17                	jmp    78af <__pyx_pymod_exec_arrow_mouse+0x271e>
    7898:	48 8b 35 b9 c6 00 00 	mov    0xc6b9(%rip),%rsi        # 13f58 <__pyx_n_s_l>
    789f:	4c 89 e7             	mov    %r12,%rdi
    78a2:	4d 89 e5             	mov    %r12,%r13
    78a5:	31 ed                	xor    %ebp,%ebp
    78a7:	e8 88 3c 00 00       	callq  b534 <__Pyx_PyObject_CallOneArg>
    78ac:	48 89 c3             	mov    %rax,%rbx
    78af:	48 89 ef             	mov    %rbp,%rdi
    78b2:	e8 a8 2f 00 00       	callq  a85f <_Py_XDECREF>
    78b7:	48 85 db             	test   %rbx,%rbx
    78ba:	0f 84 71 1b 00 00    	je     9431 <__pyx_pymod_exec_arrow_mouse+0x42a0>
    78c0:	4c 89 ef             	mov    %r13,%rdi
    78c3:	e8 a7 2e 00 00       	callq  a76f <_Py_DECREF.isra.0>
    78c8:	48 89 df             	mov    %rbx,%rdi
    78cb:	e8 d6 2a 00 00       	callq  a3a6 <__Pyx_PyObject_IsTrue>
    78d0:	89 c5                	mov    %eax,%ebp
    78d2:	85 c0                	test   %eax,%eax
    78d4:	0f 88 72 1b 00 00    	js     944c <__pyx_pymod_exec_arrow_mouse+0x42bb>
    78da:	48 89 df             	mov    %rbx,%rdi
    78dd:	e8 8d 2e 00 00       	callq  a76f <_Py_DECREF.isra.0>
    78e2:	85 ed                	test   %ebp,%ebp
    78e4:	0f 84 03 01 00 00    	je     79ed <__pyx_pymod_exec_arrow_mouse+0x285c>
    78ea:	48 8b 05 af c7 00 00 	mov    0xc7af(%rip),%rax        # 140a0 <__pyx_d>
    78f1:	48 8b 0d 28 c3 00 00 	mov    0xc328(%rip),%rcx        # 13c20 <__pyx_dict_version.16121>
    78f8:	48 39 48 18          	cmp    %rcx,0x18(%rax)
    78fc:	75 1f                	jne    791d <__pyx_pymod_exec_arrow_mouse+0x278c>
    78fe:	48 8b 1d 13 c3 00 00 	mov    0xc313(%rip),%rbx        # 13c18 <__pyx_dict_cached_value.16122>
    7905:	48 85 db             	test   %rbx,%rbx
    7908:	74 05                	je     790f <__pyx_pymod_exec_arrow_mouse+0x277e>
    790a:	48 ff 03             	incq   (%rbx)
    790d:	eb 37                	jmp    7946 <__pyx_pymod_exec_arrow_mouse+0x27b5>
    790f:	48 8b 3d da c5 00 00 	mov    0xc5da(%rip),%rdi        # 13ef0 <__pyx_n_s_o_x>
    7916:	e8 ac 2d 00 00       	callq  a6c7 <__Pyx_GetBuiltinName>
    791b:	eb 1a                	jmp    7937 <__pyx_pymod_exec_arrow_mouse+0x27a6>
    791d:	48 8b 3d cc c5 00 00 	mov    0xc5cc(%rip),%rdi        # 13ef0 <__pyx_n_s_o_x>
    7924:	48 8d 15 ed c2 00 00 	lea    0xc2ed(%rip),%rdx        # 13c18 <__pyx_dict_cached_value.16122>
    792b:	48 8d 35 ee c2 00 00 	lea    0xc2ee(%rip),%rsi        # 13c20 <__pyx_dict_version.16121>
    7932:	e8 d0 2d 00 00       	callq  a707 <__Pyx__GetModuleGlobalName>
    7937:	48 89 c5             	mov    %rax,%rbp
    793a:	48 85 c0             	test   %rax,%rax
    793d:	0f 84 24 1b 00 00    	je     9467 <__pyx_pymod_exec_arrow_mouse+0x42d6>
    7943:	48 89 c3             	mov    %rax,%rbx
    7946:	48 8b 05 53 c7 00 00 	mov    0xc753(%rip),%rax        # 140a0 <__pyx_d>
    794d:	48 8b 0d bc c2 00 00 	mov    0xc2bc(%rip),%rcx        # 13c10 <__pyx_dict_version.16123>
    7954:	48 39 48 18          	cmp    %rcx,0x18(%rax)
    7958:	75 20                	jne    797a <__pyx_pymod_exec_arrow_mouse+0x27e9>
    795a:	4c 8b 25 a7 c2 00 00 	mov    0xc2a7(%rip),%r12        # 13c08 <__pyx_dict_cached_value.16124>
    7961:	4d 85 e4             	test   %r12,%r12
    7964:	74 06                	je     796c <__pyx_pymod_exec_arrow_mouse+0x27db>
    7966:	49 ff 04 24          	incq   (%r12)
    796a:	eb 34                	jmp    79a0 <__pyx_pymod_exec_arrow_mouse+0x280f>
    796c:	48 8b 3d 1d c5 00 00 	mov    0xc51d(%rip),%rdi        # 13e90 <__pyx_n_s_speed>
    7973:	e8 4f 2d 00 00       	callq  a6c7 <__Pyx_GetBuiltinName>
    7978:	eb 1a                	jmp    7994 <__pyx_pymod_exec_arrow_mouse+0x2803>
    797a:	48 8b 3d 0f c5 00 00 	mov    0xc50f(%rip),%rdi        # 13e90 <__pyx_n_s_speed>
    7981:	48 8d 15 80 c2 00 00 	lea    0xc280(%rip),%rdx        # 13c08 <__pyx_dict_cached_value.16124>
    7988:	48 8d 35 81 c2 00 00 	lea    0xc281(%rip),%rsi        # 13c10 <__pyx_dict_version.16123>
    798f:	e8 73 2d 00 00       	callq  a707 <__Pyx__GetModuleGlobalName>
    7994:	49 89 c4             	mov    %rax,%r12
    7997:	48 85 c0             	test   %rax,%rax
    799a:	0f 84 e5 1a 00 00    	je     9485 <__pyx_pymod_exec_arrow_mouse+0x42f4>
    79a0:	4c 89 e6             	mov    %r12,%rsi
    79a3:	48 89 df             	mov    %rbx,%rdi
    79a6:	e8 a5 cc ff ff       	callq  4650 <PyNumber_Add@plt>
    79ab:	48 89 c5             	mov    %rax,%rbp
    79ae:	48 85 c0             	test   %rax,%rax
    79b1:	0f 84 e9 1a 00 00    	je     94a0 <__pyx_pymod_exec_arrow_mouse+0x430f>
    79b7:	48 89 df             	mov    %rbx,%rdi
    79ba:	e8 b0 2d 00 00       	callq  a76f <_Py_DECREF.isra.0>
    79bf:	4c 89 e7             	mov    %r12,%rdi
    79c2:	e8 a8 2d 00 00       	callq  a76f <_Py_DECREF.isra.0>
    79c7:	48 8b 35 62 c4 00 00 	mov    0xc462(%rip),%rsi        # 13e30 <__pyx_n_s_x>
    79ce:	48 8b 3d cb c6 00 00 	mov    0xc6cb(%rip),%rdi        # 140a0 <__pyx_d>
    79d5:	48 89 ea             	mov    %rbp,%rdx
    79d8:	e8 73 d2 ff ff       	callq  4c50 <PyDict_SetItem@plt>
    79dd:	85 c0                	test   %eax,%eax
    79df:	0f 88 d7 1a 00 00    	js     94bc <__pyx_pymod_exec_arrow_mouse+0x432b>
    79e5:	48 89 ef             	mov    %rbp,%rdi
    79e8:	e8 82 2d 00 00       	callq  a76f <_Py_DECREF.isra.0>
    79ed:	48 8b 05 ac c6 00 00 	mov    0xc6ac(%rip),%rax        # 140a0 <__pyx_d>
    79f4:	48 8b 0d 05 c2 00 00 	mov    0xc205(%rip),%rcx        # 13c00 <__pyx_dict_version.16125>
    79fb:	48 39 48 18          	cmp    %rcx,0x18(%rax)
    79ff:	75 20                	jne    7a21 <__pyx_pymod_exec_arrow_mouse+0x2890>
    7a01:	48 8b 2d f0 c1 00 00 	mov    0xc1f0(%rip),%rbp        # 13bf8 <__pyx_dict_cached_value.16126>
    7a08:	48 85 ed             	test   %rbp,%rbp
    7a0b:	74 06                	je     7a13 <__pyx_pymod_exec_arrow_mouse+0x2882>
    7a0d:	48 ff 45 00          	incq   0x0(%rbp)
    7a11:	eb 34                	jmp    7a47 <__pyx_pymod_exec_arrow_mouse+0x28b6>
    7a13:	48 8b 3d 46 c5 00 00 	mov    0xc546(%rip),%rdi        # 13f60 <__pyx_n_s_keyboard>
    7a1a:	e8 a8 2c 00 00       	callq  a6c7 <__Pyx_GetBuiltinName>
    7a1f:	eb 1a                	jmp    7a3b <__pyx_pymod_exec_arrow_mouse+0x28aa>
    7a21:	48 8b 3d 38 c5 00 00 	mov    0xc538(%rip),%rdi        # 13f60 <__pyx_n_s_keyboard>
    7a28:	48 8d 15 c9 c1 00 00 	lea    0xc1c9(%rip),%rdx        # 13bf8 <__pyx_dict_cached_value.16126>
    7a2f:	48 8d 35 ca c1 00 00 	lea    0xc1ca(%rip),%rsi        # 13c00 <__pyx_dict_version.16125>
    7a36:	e8 cc 2c 00 00       	callq  a707 <__Pyx__GetModuleGlobalName>
    7a3b:	48 89 c5             	mov    %rax,%rbp
    7a3e:	48 85 c0             	test   %rax,%rax
    7a41:	0f 84 90 1a 00 00    	je     94d7 <__pyx_pymod_exec_arrow_mouse+0x4346>
    7a47:	48 8b 35 2a c5 00 00 	mov    0xc52a(%rip),%rsi        # 13f78 <__pyx_n_s_is_pressed>
    7a4e:	48 89 ef             	mov    %rbp,%rdi
    7a51:	e8 bf 27 00 00       	callq  a215 <__Pyx_PyObject_GetAttrStr>
    7a56:	49 89 c4             	mov    %rax,%r12
    7a59:	48 85 c0             	test   %rax,%rax
    7a5c:	0f 84 93 1a 00 00    	je     94f5 <__pyx_pymod_exec_arrow_mouse+0x4364>
    7a62:	48 89 ef             	mov    %rbp,%rdi
    7a65:	e8 05 2d 00 00       	callq  a76f <_Py_DECREF.isra.0>
    7a6a:	48 8d 05 8f b7 00 00 	lea    0xb78f(%rip),%rax        # 13200 <PyMethod_Type>
    7a71:	49 39 44 24 08       	cmp    %rax,0x8(%r12)
    7a76:	75 35                	jne    7aad <__pyx_pymod_exec_arrow_mouse+0x291c>
    7a78:	4d 8b 6c 24 18       	mov    0x18(%r12),%r13
    7a7d:	4d 85 ed             	test   %r13,%r13
    7a80:	74 2b                	je     7aad <__pyx_pymod_exec_arrow_mouse+0x291c>
    7a82:	49 8b 5c 24 10       	mov    0x10(%r12),%rbx
    7a87:	49 ff 45 00          	incq   0x0(%r13)
    7a8b:	4c 89 e7             	mov    %r12,%rdi
    7a8e:	48 ff 03             	incq   (%rbx)
    7a91:	e8 d9 2c 00 00       	callq  a76f <_Py_DECREF.isra.0>
    7a96:	48 8b 15 d3 c4 00 00 	mov    0xc4d3(%rip),%rdx        # 13f70 <__pyx_n_s_j>
    7a9d:	4c 89 ee             	mov    %r13,%rsi
    7aa0:	48 89 df             	mov    %rbx,%rdi
    7aa3:	e8 52 39 00 00       	callq  b3fa <__Pyx_PyObject_Call2Args>
    7aa8:	48 89 c5             	mov    %rax,%rbp
    7aab:	eb 18                	jmp    7ac5 <__pyx_pymod_exec_arrow_mouse+0x2934>
    7aad:	48 8b 35 bc c4 00 00 	mov    0xc4bc(%rip),%rsi        # 13f70 <__pyx_n_s_j>
    7ab4:	4c 89 e7             	mov    %r12,%rdi
    7ab7:	4c 89 e3             	mov    %r12,%rbx
    7aba:	45 31 ed             	xor    %r13d,%r13d
    7abd:	e8 72 3a 00 00       	callq  b534 <__Pyx_PyObject_CallOneArg>
    7ac2:	48 89 c5             	mov    %rax,%rbp
    7ac5:	4c 89 ef             	mov    %r13,%rdi
    7ac8:	e8 92 2d 00 00       	callq  a85f <_Py_XDECREF>
    7acd:	48 85 ed             	test   %rbp,%rbp
    7ad0:	0f 84 3c 1a 00 00    	je     9512 <__pyx_pymod_exec_arrow_mouse+0x4381>
    7ad6:	48 89 df             	mov    %rbx,%rdi
    7ad9:	e8 91 2c 00 00       	callq  a76f <_Py_DECREF.isra.0>
    7ade:	48 89 ef             	mov    %rbp,%rdi
    7ae1:	e8 c0 28 00 00       	callq  a3a6 <__Pyx_PyObject_IsTrue>
    7ae6:	41 89 c4             	mov    %eax,%r12d
    7ae9:	85 c0                	test   %eax,%eax
    7aeb:	0f 88 3d 1a 00 00    	js     952e <__pyx_pymod_exec_arrow_mouse+0x439d>
    7af1:	48 89 ef             	mov    %rbp,%rdi
    7af4:	e8 76 2c 00 00       	callq  a76f <_Py_DECREF.isra.0>
    7af9:	45 85 e4             	test   %r12d,%r12d
    7afc:	0f 84 01 01 00 00    	je     7c03 <__pyx_pymod_exec_arrow_mouse+0x2a72>
    7b02:	48 8b 05 97 c5 00 00 	mov    0xc597(%rip),%rax        # 140a0 <__pyx_d>
    7b09:	48 8b 0d e0 c0 00 00 	mov    0xc0e0(%rip),%rcx        # 13bf0 <__pyx_dict_version.16129>
    7b10:	48 39 48 18          	cmp    %rcx,0x18(%rax)
    7b14:	75 20                	jne    7b36 <__pyx_pymod_exec_arrow_mouse+0x29a5>
    7b16:	48 8b 2d cb c0 00 00 	mov    0xc0cb(%rip),%rbp        # 13be8 <__pyx_dict_cached_value.16130>
    7b1d:	48 85 ed             	test   %rbp,%rbp
    7b20:	74 06                	je     7b28 <__pyx_pymod_exec_arrow_mouse+0x2997>
    7b22:	48 ff 45 00          	incq   0x0(%rbp)
    7b26:	eb 34                	jmp    7b5c <__pyx_pymod_exec_arrow_mouse+0x29cb>
    7b28:	48 8b 3d c1 c3 00 00 	mov    0xc3c1(%rip),%rdi        # 13ef0 <__pyx_n_s_o_x>
    7b2f:	e8 93 2b 00 00       	callq  a6c7 <__Pyx_GetBuiltinName>
    7b34:	eb 1a                	jmp    7b50 <__pyx_pymod_exec_arrow_mouse+0x29bf>
    7b36:	48 8b 3d b3 c3 00 00 	mov    0xc3b3(%rip),%rdi        # 13ef0 <__pyx_n_s_o_x>
    7b3d:	48 8d 15 a4 c0 00 00 	lea    0xc0a4(%rip),%rdx        # 13be8 <__pyx_dict_cached_value.16130>
    7b44:	48 8d 35 a5 c0 00 00 	lea    0xc0a5(%rip),%rsi        # 13bf0 <__pyx_dict_version.16129>
    7b4b:	e8 b7 2b 00 00       	callq  a707 <__Pyx__GetModuleGlobalName>
    7b50:	48 89 c5             	mov    %rax,%rbp
    7b53:	48 85 c0             	test   %rax,%rax
    7b56:	0f 84 ed 19 00 00    	je     9549 <__pyx_pymod_exec_arrow_mouse+0x43b8>
    7b5c:	48 8b 05 3d c5 00 00 	mov    0xc53d(%rip),%rax        # 140a0 <__pyx_d>
    7b63:	48 8b 0d 76 c0 00 00 	mov    0xc076(%rip),%rcx        # 13be0 <__pyx_dict_version.16131>
    7b6a:	48 39 48 18          	cmp    %rcx,0x18(%rax)
    7b6e:	75 20                	jne    7b90 <__pyx_pymod_exec_arrow_mouse+0x29ff>
    7b70:	4c 8b 25 61 c0 00 00 	mov    0xc061(%rip),%r12        # 13bd8 <__pyx_dict_cached_value.16132>
    7b77:	4d 85 e4             	test   %r12,%r12
    7b7a:	74 06                	je     7b82 <__pyx_pymod_exec_arrow_mouse+0x29f1>
    7b7c:	49 ff 04 24          	incq   (%r12)
    7b80:	eb 34                	jmp    7bb6 <__pyx_pymod_exec_arrow_mouse+0x2a25>
    7b82:	48 8b 3d 07 c3 00 00 	mov    0xc307(%rip),%rdi        # 13e90 <__pyx_n_s_speed>
    7b89:	e8 39 2b 00 00       	callq  a6c7 <__Pyx_GetBuiltinName>
    7b8e:	eb 1a                	jmp    7baa <__pyx_pymod_exec_arrow_mouse+0x2a19>
    7b90:	48 8b 3d f9 c2 00 00 	mov    0xc2f9(%rip),%rdi        # 13e90 <__pyx_n_s_speed>
    7b97:	48 8d 15 3a c0 00 00 	lea    0xc03a(%rip),%rdx        # 13bd8 <__pyx_dict_cached_value.16132>
    7b9e:	48 8d 35 3b c0 00 00 	lea    0xc03b(%rip),%rsi        # 13be0 <__pyx_dict_version.16131>
    7ba5:	e8 5d 2b 00 00       	callq  a707 <__Pyx__GetModuleGlobalName>
    7baa:	49 89 c4             	mov    %rax,%r12
    7bad:	48 85 c0             	test   %rax,%rax
    7bb0:	0f 84 b1 19 00 00    	je     9567 <__pyx_pymod_exec_arrow_mouse+0x43d6>
    7bb6:	4c 89 e6             	mov    %r12,%rsi
    7bb9:	48 89 ef             	mov    %rbp,%rdi
    7bbc:	e8 4f ce ff ff       	callq  4a10 <PyNumber_Subtract@plt>
    7bc1:	49 89 c5             	mov    %rax,%r13
    7bc4:	48 85 c0             	test   %rax,%rax
    7bc7:	0f 84 b5 19 00 00    	je     9582 <__pyx_pymod_exec_arrow_mouse+0x43f1>
    7bcd:	48 89 ef             	mov    %rbp,%rdi
    7bd0:	e8 9a 2b 00 00       	callq  a76f <_Py_DECREF.isra.0>
    7bd5:	4c 89 e7             	mov    %r12,%rdi
    7bd8:	e8 92 2b 00 00       	callq  a76f <_Py_DECREF.isra.0>
    7bdd:	48 8b 35 4c c2 00 00 	mov    0xc24c(%rip),%rsi        # 13e30 <__pyx_n_s_x>
    7be4:	48 8b 3d b5 c4 00 00 	mov    0xc4b5(%rip),%rdi        # 140a0 <__pyx_d>
    7beb:	4c 89 ea             	mov    %r13,%rdx
    7bee:	e8 5d d0 ff ff       	callq  4c50 <PyDict_SetItem@plt>
    7bf3:	85 c0                	test   %eax,%eax
    7bf5:	0f 88 a3 19 00 00    	js     959e <__pyx_pymod_exec_arrow_mouse+0x440d>
    7bfb:	4c 89 ef             	mov    %r13,%rdi
    7bfe:	e8 6c 2b 00 00       	callq  a76f <_Py_DECREF.isra.0>
    7c03:	48 8b 05 96 c4 00 00 	mov    0xc496(%rip),%rax        # 140a0 <__pyx_d>
    7c0a:	48 8b 0d bf bf 00 00 	mov    0xbfbf(%rip),%rcx        # 13bd0 <__pyx_dict_version.16133>
    7c11:	48 39 48 18          	cmp    %rcx,0x18(%rax)
    7c15:	75 20                	jne    7c37 <__pyx_pymod_exec_arrow_mouse+0x2aa6>
    7c17:	48 8b 2d aa bf 00 00 	mov    0xbfaa(%rip),%rbp        # 13bc8 <__pyx_dict_cached_value.16134>
    7c1e:	48 85 ed             	test   %rbp,%rbp
    7c21:	74 06                	je     7c29 <__pyx_pymod_exec_arrow_mouse+0x2a98>
    7c23:	48 ff 45 00          	incq   0x0(%rbp)
    7c27:	eb 34                	jmp    7c5d <__pyx_pymod_exec_arrow_mouse+0x2acc>
    7c29:	48 8b 3d 30 c3 00 00 	mov    0xc330(%rip),%rdi        # 13f60 <__pyx_n_s_keyboard>
    7c30:	e8 92 2a 00 00       	callq  a6c7 <__Pyx_GetBuiltinName>
    7c35:	eb 1a                	jmp    7c51 <__pyx_pymod_exec_arrow_mouse+0x2ac0>
    7c37:	48 8b 3d 22 c3 00 00 	mov    0xc322(%rip),%rdi        # 13f60 <__pyx_n_s_keyboard>
    7c3e:	48 8d 15 83 bf 00 00 	lea    0xbf83(%rip),%rdx        # 13bc8 <__pyx_dict_cached_value.16134>
    7c45:	48 8d 35 84 bf 00 00 	lea    0xbf84(%rip),%rsi        # 13bd0 <__pyx_dict_version.16133>
    7c4c:	e8 b6 2a 00 00       	callq  a707 <__Pyx__GetModuleGlobalName>
    7c51:	48 89 c5             	mov    %rax,%rbp
    7c54:	48 85 c0             	test   %rax,%rax
    7c57:	0f 84 5b 19 00 00    	je     95b8 <__pyx_pymod_exec_arrow_mouse+0x4427>
    7c5d:	48 8b 35 14 c3 00 00 	mov    0xc314(%rip),%rsi        # 13f78 <__pyx_n_s_is_pressed>
    7c64:	48 89 ef             	mov    %rbp,%rdi
    7c67:	e8 a9 25 00 00       	callq  a215 <__Pyx_PyObject_GetAttrStr>
    7c6c:	49 89 c4             	mov    %rax,%r12
    7c6f:	48 85 c0             	test   %rax,%rax
    7c72:	0f 84 5e 19 00 00    	je     95d6 <__pyx_pymod_exec_arrow_mouse+0x4445>
    7c78:	48 89 ef             	mov    %rbp,%rdi
    7c7b:	e8 ef 2a 00 00       	callq  a76f <_Py_DECREF.isra.0>
    7c80:	48 8d 05 79 b5 00 00 	lea    0xb579(%rip),%rax        # 13200 <PyMethod_Type>
    7c87:	49 39 44 24 08       	cmp    %rax,0x8(%r12)
    7c8c:	75 35                	jne    7cc3 <__pyx_pymod_exec_arrow_mouse+0x2b32>
    7c8e:	4d 8b 7c 24 18       	mov    0x18(%r12),%r15
    7c93:	4d 85 ff             	test   %r15,%r15
    7c96:	74 2b                	je     7cc3 <__pyx_pymod_exec_arrow_mouse+0x2b32>
    7c98:	49 8b 6c 24 10       	mov    0x10(%r12),%rbp
    7c9d:	49 ff 07             	incq   (%r15)
    7ca0:	4c 89 e7             	mov    %r12,%rdi
    7ca3:	48 ff 45 00          	incq   0x0(%rbp)
    7ca7:	e8 c3 2a 00 00       	callq  a76f <_Py_DECREF.isra.0>
    7cac:	48 8b 15 25 c3 00 00 	mov    0xc325(%rip),%rdx        # 13fd8 <__pyx_n_s_ctrl>
    7cb3:	4c 89 fe             	mov    %r15,%rsi
    7cb6:	48 89 ef             	mov    %rbp,%rdi
    7cb9:	e8 3c 37 00 00       	callq  b3fa <__Pyx_PyObject_Call2Args>
    7cbe:	49 89 c5             	mov    %rax,%r13
    7cc1:	eb 18                	jmp    7cdb <__pyx_pymod_exec_arrow_mouse+0x2b4a>
    7cc3:	48 8b 35 0e c3 00 00 	mov    0xc30e(%rip),%rsi        # 13fd8 <__pyx_n_s_ctrl>
    7cca:	4c 89 e7             	mov    %r12,%rdi
    7ccd:	45 31 ff             	xor    %r15d,%r15d
    7cd0:	4c 89 e5             	mov    %r12,%rbp
    7cd3:	e8 5c 38 00 00       	callq  b534 <__Pyx_PyObject_CallOneArg>
    7cd8:	49 89 c5             	mov    %rax,%r13
    7cdb:	4c 89 ff             	mov    %r15,%rdi
    7cde:	e8 7c 2b 00 00       	callq  a85f <_Py_XDECREF>
    7ce3:	4d 85 ed             	test   %r13,%r13
    7ce6:	0f 84 08 19 00 00    	je     95f4 <__pyx_pymod_exec_arrow_mouse+0x4463>
    7cec:	48 89 ef             	mov    %rbp,%rdi
    7cef:	e8 7b 2a 00 00       	callq  a76f <_Py_DECREF.isra.0>
    7cf4:	4c 89 ef             	mov    %r13,%rdi
    7cf7:	e8 aa 26 00 00       	callq  a3a6 <__Pyx_PyObject_IsTrue>
    7cfc:	89 c5                	mov    %eax,%ebp
    7cfe:	85 c0                	test   %eax,%eax
    7d00:	0f 88 09 19 00 00    	js     960f <__pyx_pymod_exec_arrow_mouse+0x447e>
    7d06:	4c 89 ef             	mov    %r13,%rdi
    7d09:	e8 61 2a 00 00       	callq  a76f <_Py_DECREF.isra.0>
    7d0e:	85 ed                	test   %ebp,%ebp
    7d10:	0f 84 eb 02 00 00    	je     8001 <__pyx_pymod_exec_arrow_mouse+0x2e70>
    7d16:	48 8b 05 83 c3 00 00 	mov    0xc383(%rip),%rax        # 140a0 <__pyx_d>
    7d1d:	48 8b 0d 9c be 00 00 	mov    0xbe9c(%rip),%rcx        # 13bc0 <__pyx_dict_version.16137>
    7d24:	48 39 48 18          	cmp    %rcx,0x18(%rax)
    7d28:	75 20                	jne    7d4a <__pyx_pymod_exec_arrow_mouse+0x2bb9>
    7d2a:	48 8b 2d 87 be 00 00 	mov    0xbe87(%rip),%rbp        # 13bb8 <__pyx_dict_cached_value.16138>
    7d31:	48 85 ed             	test   %rbp,%rbp
    7d34:	74 06                	je     7d3c <__pyx_pymod_exec_arrow_mouse+0x2bab>
    7d36:	48 ff 45 00          	incq   0x0(%rbp)
    7d3a:	eb 34                	jmp    7d70 <__pyx_pymod_exec_arrow_mouse+0x2bdf>
    7d3c:	48 8b 3d 1d c2 00 00 	mov    0xc21d(%rip),%rdi        # 13f60 <__pyx_n_s_keyboard>
    7d43:	e8 7f 29 00 00       	callq  a6c7 <__Pyx_GetBuiltinName>
    7d48:	eb 1a                	jmp    7d64 <__pyx_pymod_exec_arrow_mouse+0x2bd3>
    7d4a:	48 8b 3d 0f c2 00 00 	mov    0xc20f(%rip),%rdi        # 13f60 <__pyx_n_s_keyboard>
    7d51:	48 8d 15 60 be 00 00 	lea    0xbe60(%rip),%rdx        # 13bb8 <__pyx_dict_cached_value.16138>
    7d58:	48 8d 35 61 be 00 00 	lea    0xbe61(%rip),%rsi        # 13bc0 <__pyx_dict_version.16137>
    7d5f:	e8 a3 29 00 00       	callq  a707 <__Pyx__GetModuleGlobalName>
    7d64:	48 89 c5             	mov    %rax,%rbp
    7d67:	48 85 c0             	test   %rax,%rax
    7d6a:	0f 84 b9 18 00 00    	je     9629 <__pyx_pymod_exec_arrow_mouse+0x4498>
    7d70:	48 8b 35 01 c2 00 00 	mov    0xc201(%rip),%rsi        # 13f78 <__pyx_n_s_is_pressed>
    7d77:	48 89 ef             	mov    %rbp,%rdi
    7d7a:	e8 96 24 00 00       	callq  a215 <__Pyx_PyObject_GetAttrStr>
    7d7f:	49 89 c4             	mov    %rax,%r12
    7d82:	48 85 c0             	test   %rax,%rax
    7d85:	0f 84 bc 18 00 00    	je     9647 <__pyx_pymod_exec_arrow_mouse+0x44b6>
    7d8b:	48 89 ef             	mov    %rbp,%rdi
    7d8e:	e8 dc 29 00 00       	callq  a76f <_Py_DECREF.isra.0>
    7d93:	48 8d 05 66 b4 00 00 	lea    0xb466(%rip),%rax        # 13200 <PyMethod_Type>
    7d9a:	49 39 44 24 08       	cmp    %rax,0x8(%r12)
    7d9f:	75 35                	jne    7dd6 <__pyx_pymod_exec_arrow_mouse+0x2c45>
    7da1:	49 8b 6c 24 18       	mov    0x18(%r12),%rbp
    7da6:	48 85 ed             	test   %rbp,%rbp
    7da9:	74 2b                	je     7dd6 <__pyx_pymod_exec_arrow_mouse+0x2c45>
    7dab:	49 8b 5c 24 10       	mov    0x10(%r12),%rbx
    7db0:	48 ff 45 00          	incq   0x0(%rbp)
    7db4:	4c 89 e7             	mov    %r12,%rdi
    7db7:	48 ff 03             	incq   (%rbx)
    7dba:	e8 b0 29 00 00       	callq  a76f <_Py_DECREF.isra.0>
    7dbf:	48 8b 15 d2 c0 00 00 	mov    0xc0d2(%rip),%rdx        # 13e98 <__pyx_n_s_space>
    7dc6:	48 89 ee             	mov    %rbp,%rsi
    7dc9:	48 89 df             	mov    %rbx,%rdi
    7dcc:	e8 29 36 00 00       	callq  b3fa <__Pyx_PyObject_Call2Args>
    7dd1:	49 89 c5             	mov    %rax,%r13
    7dd4:	eb 17                	jmp    7ded <__pyx_pymod_exec_arrow_mouse+0x2c5c>
    7dd6:	48 8b 35 bb c0 00 00 	mov    0xc0bb(%rip),%rsi        # 13e98 <__pyx_n_s_space>
    7ddd:	4c 89 e7             	mov    %r12,%rdi
    7de0:	4c 89 e3             	mov    %r12,%rbx
    7de3:	31 ed                	xor    %ebp,%ebp
    7de5:	e8 4a 37 00 00       	callq  b534 <__Pyx_PyObject_CallOneArg>
    7dea:	49 89 c5             	mov    %rax,%r13
    7ded:	48 89 ef             	mov    %rbp,%rdi
    7df0:	e8 6a 2a 00 00       	callq  a85f <_Py_XDECREF>
    7df5:	4d 85 ed             	test   %r13,%r13
    7df8:	0f 84 64 18 00 00    	je     9662 <__pyx_pymod_exec_arrow_mouse+0x44d1>
    7dfe:	48 89 df             	mov    %rbx,%rdi
    7e01:	e8 69 29 00 00       	callq  a76f <_Py_DECREF.isra.0>
    7e06:	4c 89 ef             	mov    %r13,%rdi
    7e09:	e8 98 25 00 00       	callq  a3a6 <__Pyx_PyObject_IsTrue>
    7e0e:	89 c5                	mov    %eax,%ebp
    7e10:	85 c0                	test   %eax,%eax
    7e12:	0f 88 65 18 00 00    	js     967d <__pyx_pymod_exec_arrow_mouse+0x44ec>
    7e18:	4c 89 ef             	mov    %r13,%rdi
    7e1b:	e8 4f 29 00 00       	callq  a76f <_Py_DECREF.isra.0>
    7e20:	85 ed                	test   %ebp,%ebp
    7e22:	0f 84 ee 00 00 00    	je     7f16 <__pyx_pymod_exec_arrow_mouse+0x2d85>
    7e28:	48 8b 3d 69 c0 00 00 	mov    0xc069(%rip),%rdi        # 13e98 <__pyx_n_s_space>
    7e2f:	e8 da d1 ff ff       	callq  500e <__Pyx_PrintOne.constprop.0>
    7e34:	85 c0                	test   %eax,%eax
    7e36:	0f 88 5b 18 00 00    	js     9697 <__pyx_pymod_exec_arrow_mouse+0x4506>
    7e3c:	48 8b 05 5d c2 00 00 	mov    0xc25d(%rip),%rax        # 140a0 <__pyx_d>
    7e43:	48 8b 0d 66 bd 00 00 	mov    0xbd66(%rip),%rcx        # 13bb0 <__pyx_dict_version.16141>
    7e4a:	48 39 48 18          	cmp    %rcx,0x18(%rax)
    7e4e:	75 20                	jne    7e70 <__pyx_pymod_exec_arrow_mouse+0x2cdf>
    7e50:	48 8b 2d 51 bd 00 00 	mov    0xbd51(%rip),%rbp        # 13ba8 <__pyx_dict_cached_value.16142>
    7e57:	48 85 ed             	test   %rbp,%rbp
    7e5a:	74 06                	je     7e62 <__pyx_pymod_exec_arrow_mouse+0x2cd1>
    7e5c:	48 ff 45 00          	incq   0x0(%rbp)
    7e60:	eb 34                	jmp    7e96 <__pyx_pymod_exec_arrow_mouse+0x2d05>
    7e62:	48 8b 3d a7 c0 00 00 	mov    0xc0a7(%rip),%rdi        # 13f10 <__pyx_n_s_mouse>
    7e69:	e8 59 28 00 00       	callq  a6c7 <__Pyx_GetBuiltinName>
    7e6e:	eb 1a                	jmp    7e8a <__pyx_pymod_exec_arrow_mouse+0x2cf9>
    7e70:	48 8b 3d 99 c0 00 00 	mov    0xc099(%rip),%rdi        # 13f10 <__pyx_n_s_mouse>
    7e77:	48 8d 15 2a bd 00 00 	lea    0xbd2a(%rip),%rdx        # 13ba8 <__pyx_dict_cached_value.16142>
    7e7e:	48 8d 35 2b bd 00 00 	lea    0xbd2b(%rip),%rsi        # 13bb0 <__pyx_dict_version.16141>
    7e85:	e8 7d 28 00 00       	callq  a707 <__Pyx__GetModuleGlobalName>
    7e8a:	48 89 c5             	mov    %rax,%rbp
    7e8d:	48 85 c0             	test   %rax,%rax
    7e90:	0f 84 1e 18 00 00    	je     96b4 <__pyx_pymod_exec_arrow_mouse+0x4523>
    7e96:	48 8b 35 4b c1 00 00 	mov    0xc14b(%rip),%rsi        # 13fe8 <__pyx_n_s_click>
    7e9d:	48 89 ef             	mov    %rbp,%rdi
    7ea0:	e8 70 23 00 00       	callq  a215 <__Pyx_PyObject_GetAttrStr>
    7ea5:	48 89 c3             	mov    %rax,%rbx
    7ea8:	48 85 c0             	test   %rax,%rax
    7eab:	0f 84 21 18 00 00    	je     96d2 <__pyx_pymod_exec_arrow_mouse+0x4541>
    7eb1:	48 89 ef             	mov    %rbp,%rdi
    7eb4:	e8 b6 28 00 00       	callq  a76f <_Py_DECREF.isra.0>
    7eb9:	e8 a2 cd ff ff       	callq  4c60 <PyDict_New@plt>
    7ebe:	49 89 c5             	mov    %rax,%r13
    7ec1:	48 85 c0             	test   %rax,%rax
    7ec4:	0f 84 26 18 00 00    	je     96f0 <__pyx_pymod_exec_arrow_mouse+0x455f>
    7eca:	48 8b 15 6f c0 00 00 	mov    0xc06f(%rip),%rdx        # 13f40 <__pyx_n_s_left>
    7ed1:	48 8b 35 18 c1 00 00 	mov    0xc118(%rip),%rsi        # 13ff0 <__pyx_n_s_button>
    7ed8:	48 89 c7             	mov    %rax,%rdi
    7edb:	e8 70 cd ff ff       	callq  4c50 <PyDict_SetItem@plt>
    7ee0:	85 c0                	test   %eax,%eax
    7ee2:	0f 88 23 18 00 00    	js     970b <__pyx_pymod_exec_arrow_mouse+0x457a>
    7ee8:	48 8b 35 99 c1 00 00 	mov    0xc199(%rip),%rsi        # 14088 <__pyx_empty_tuple>
    7eef:	4c 89 ea             	mov    %r13,%rdx
    7ef2:	48 89 df             	mov    %rbx,%rdi
    7ef5:	e8 e3 23 00 00       	callq  a2dd <__Pyx_PyObject_Call>
    7efa:	48 89 c5             	mov    %rax,%rbp
    7efd:	48 85 c0             	test   %rax,%rax
    7f00:	0f 84 1d 18 00 00    	je     9723 <__pyx_pymod_exec_arrow_mouse+0x4592>
    7f06:	48 89 df             	mov    %rbx,%rdi
    7f09:	e8 61 28 00 00       	callq  a76f <_Py_DECREF.isra.0>
    7f0e:	4c 89 ef             	mov    %r13,%rdi
    7f11:	e9 de 00 00 00       	jmpq   7ff4 <__pyx_pymod_exec_arrow_mouse+0x2e63>
    7f16:	48 8b 05 83 c1 00 00 	mov    0xc183(%rip),%rax        # 140a0 <__pyx_d>
    7f1d:	48 8b 0d 7c bc 00 00 	mov    0xbc7c(%rip),%rcx        # 13ba0 <__pyx_dict_version.16144>
    7f24:	48 39 48 18          	cmp    %rcx,0x18(%rax)
    7f28:	75 20                	jne    7f4a <__pyx_pymod_exec_arrow_mouse+0x2db9>
    7f2a:	48 8b 2d 67 bc 00 00 	mov    0xbc67(%rip),%rbp        # 13b98 <__pyx_dict_cached_value.16145>
    7f31:	48 85 ed             	test   %rbp,%rbp
    7f34:	74 06                	je     7f3c <__pyx_pymod_exec_arrow_mouse+0x2dab>
    7f36:	48 ff 45 00          	incq   0x0(%rbp)
    7f3a:	eb 34                	jmp    7f70 <__pyx_pymod_exec_arrow_mouse+0x2ddf>
    7f3c:	48 8b 3d cd bf 00 00 	mov    0xbfcd(%rip),%rdi        # 13f10 <__pyx_n_s_mouse>
    7f43:	e8 7f 27 00 00       	callq  a6c7 <__Pyx_GetBuiltinName>
    7f48:	eb 1a                	jmp    7f64 <__pyx_pymod_exec_arrow_mouse+0x2dd3>
    7f4a:	48 8b 3d bf bf 00 00 	mov    0xbfbf(%rip),%rdi        # 13f10 <__pyx_n_s_mouse>
    7f51:	48 8d 15 40 bc 00 00 	lea    0xbc40(%rip),%rdx        # 13b98 <__pyx_dict_cached_value.16145>
    7f58:	48 8d 35 41 bc 00 00 	lea    0xbc41(%rip),%rsi        # 13ba0 <__pyx_dict_version.16144>
    7f5f:	e8 a3 27 00 00       	callq  a707 <__Pyx__GetModuleGlobalName>
    7f64:	48 89 c5             	mov    %rax,%rbp
    7f67:	48 85 c0             	test   %rax,%rax
    7f6a:	0f 84 cc 17 00 00    	je     973c <__pyx_pymod_exec_arrow_mouse+0x45ab>
    7f70:	48 8b 35 41 bf 00 00 	mov    0xbf41(%rip),%rsi        # 13eb8 <__pyx_n_s_release>
    7f77:	48 89 ef             	mov    %rbp,%rdi
    7f7a:	e8 96 22 00 00       	callq  a215 <__Pyx_PyObject_GetAttrStr>
    7f7f:	49 89 c4             	mov    %rax,%r12
    7f82:	48 85 c0             	test   %rax,%rax
    7f85:	0f 84 cf 17 00 00    	je     975a <__pyx_pymod_exec_arrow_mouse+0x45c9>
    7f8b:	48 89 ef             	mov    %rbp,%rdi
    7f8e:	e8 dc 27 00 00       	callq  a76f <_Py_DECREF.isra.0>
    7f93:	48 8d 05 66 b2 00 00 	lea    0xb266(%rip),%rax        # 13200 <PyMethod_Type>
    7f9a:	49 39 44 24 08       	cmp    %rax,0x8(%r12)
    7f9f:	75 2e                	jne    7fcf <__pyx_pymod_exec_arrow_mouse+0x2e3e>
    7fa1:	4d 8b 6c 24 18       	mov    0x18(%r12),%r13
    7fa6:	4d 85 ed             	test   %r13,%r13
    7fa9:	74 24                	je     7fcf <__pyx_pymod_exec_arrow_mouse+0x2e3e>
    7fab:	49 8b 5c 24 10       	mov    0x10(%r12),%rbx
    7fb0:	49 ff 45 00          	incq   0x0(%r13)
    7fb4:	4c 89 e7             	mov    %r12,%rdi
    7fb7:	48 ff 03             	incq   (%rbx)
    7fba:	e8 b0 27 00 00       	callq  a76f <_Py_DECREF.isra.0>
    7fbf:	4c 89 ee             	mov    %r13,%rsi
    7fc2:	48 89 df             	mov    %rbx,%rdi
    7fc5:	e8 6a 35 00 00       	callq  b534 <__Pyx_PyObject_CallOneArg>
    7fca:	48 89 c5             	mov    %rax,%rbp
    7fcd:	eb 11                	jmp    7fe0 <__pyx_pymod_exec_arrow_mouse+0x2e4f>
    7fcf:	4c 89 e7             	mov    %r12,%rdi
    7fd2:	4c 89 e3             	mov    %r12,%rbx
    7fd5:	45 31 ed             	xor    %r13d,%r13d
    7fd8:	e8 3e 36 00 00       	callq  b61b <__Pyx_PyObject_CallNoArg>
    7fdd:	48 89 c5             	mov    %rax,%rbp
    7fe0:	4c 89 ef             	mov    %r13,%rdi
    7fe3:	e8 77 28 00 00       	callq  a85f <_Py_XDECREF>
    7fe8:	48 85 ed             	test   %rbp,%rbp
    7feb:	0f 84 86 17 00 00    	je     9777 <__pyx_pymod_exec_arrow_mouse+0x45e6>
    7ff1:	48 89 df             	mov    %rbx,%rdi
    7ff4:	e8 76 27 00 00       	callq  a76f <_Py_DECREF.isra.0>
    7ff9:	48 89 ef             	mov    %rbp,%rdi
    7ffc:	e8 6e 27 00 00       	callq  a76f <_Py_DECREF.isra.0>
    8001:	48 8b 05 98 c0 00 00 	mov    0xc098(%rip),%rax        # 140a0 <__pyx_d>
    8008:	48 8b 0d 81 bb 00 00 	mov    0xbb81(%rip),%rcx        # 13b90 <__pyx_dict_version.16148>
    800f:	48 39 48 18          	cmp    %rcx,0x18(%rax)
    8013:	75 1f                	jne    8034 <__pyx_pymod_exec_arrow_mouse+0x2ea3>
    8015:	48 8b 1d 6c bb 00 00 	mov    0xbb6c(%rip),%rbx        # 13b88 <__pyx_dict_cached_value.16149>
    801c:	48 85 db             	test   %rbx,%rbx
    801f:	74 05                	je     8026 <__pyx_pymod_exec_arrow_mouse+0x2e95>
    8021:	48 ff 03             	incq   (%rbx)
    8024:	eb 37                	jmp    805d <__pyx_pymod_exec_arrow_mouse+0x2ecc>
    8026:	48 8b 3d 03 be 00 00 	mov    0xbe03(%rip),%rdi        # 13e30 <__pyx_n_s_x>
    802d:	e8 95 26 00 00       	callq  a6c7 <__Pyx_GetBuiltinName>
    8032:	eb 1a                	jmp    804e <__pyx_pymod_exec_arrow_mouse+0x2ebd>
    8034:	48 8b 3d f5 bd 00 00 	mov    0xbdf5(%rip),%rdi        # 13e30 <__pyx_n_s_x>
    803b:	48 8d 15 46 bb 00 00 	lea    0xbb46(%rip),%rdx        # 13b88 <__pyx_dict_cached_value.16149>
    8042:	48 8d 35 47 bb 00 00 	lea    0xbb47(%rip),%rsi        # 13b90 <__pyx_dict_version.16148>
    8049:	e8 b9 26 00 00       	callq  a707 <__Pyx__GetModuleGlobalName>
    804e:	48 89 c5             	mov    %rax,%rbp
    8051:	48 85 c0             	test   %rax,%rax
    8054:	0f 84 39 17 00 00    	je     9793 <__pyx_pymod_exec_arrow_mouse+0x4602>
    805a:	48 89 c3             	mov    %rax,%rbx
    805d:	48 8b 05 3c c0 00 00 	mov    0xc03c(%rip),%rax        # 140a0 <__pyx_d>
    8064:	48 8b 0d 15 bb 00 00 	mov    0xbb15(%rip),%rcx        # 13b80 <__pyx_dict_version.16150>
    806b:	48 39 48 18          	cmp    %rcx,0x18(%rax)
    806f:	75 20                	jne    8091 <__pyx_pymod_exec_arrow_mouse+0x2f00>
    8071:	48 8b 2d 00 bb 00 00 	mov    0xbb00(%rip),%rbp        # 13b78 <__pyx_dict_cached_value.16151>
    8078:	48 85 ed             	test   %rbp,%rbp
    807b:	74 06                	je     8083 <__pyx_pymod_exec_arrow_mouse+0x2ef2>
    807d:	48 ff 45 00          	incq   0x0(%rbp)
    8081:	eb 34                	jmp    80b7 <__pyx_pymod_exec_arrow_mouse+0x2f26>
    8083:	48 8b 3d 66 be 00 00 	mov    0xbe66(%rip),%rdi        # 13ef0 <__pyx_n_s_o_x>
    808a:	e8 38 26 00 00       	callq  a6c7 <__Pyx_GetBuiltinName>
    808f:	eb 1a                	jmp    80ab <__pyx_pymod_exec_arrow_mouse+0x2f1a>
    8091:	48 8b 3d 58 be 00 00 	mov    0xbe58(%rip),%rdi        # 13ef0 <__pyx_n_s_o_x>
    8098:	48 8d 15 d9 ba 00 00 	lea    0xbad9(%rip),%rdx        # 13b78 <__pyx_dict_cached_value.16151>
    809f:	48 8d 35 da ba 00 00 	lea    0xbada(%rip),%rsi        # 13b80 <__pyx_dict_version.16150>
    80a6:	e8 5c 26 00 00       	callq  a707 <__Pyx__GetModuleGlobalName>
    80ab:	48 89 c5             	mov    %rax,%rbp
    80ae:	48 85 c0             	test   %rax,%rax
    80b1:	0f 84 fa 16 00 00    	je     97b1 <__pyx_pymod_exec_arrow_mouse+0x4620>
    80b7:	ba 03 00 00 00       	mov    $0x3,%edx
    80bc:	48 89 ee             	mov    %rbp,%rsi
    80bf:	48 89 df             	mov    %rbx,%rdi
    80c2:	e8 99 c8 ff ff       	callq  4960 <PyObject_RichCompare@plt>
    80c7:	49 89 c1             	mov    %rax,%r9
    80ca:	48 85 c0             	test   %rax,%rax
    80cd:	0f 84 fa 16 00 00    	je     97cd <__pyx_pymod_exec_arrow_mouse+0x463c>
    80d3:	48 89 df             	mov    %rbx,%rdi
    80d6:	48 89 44 24 08       	mov    %rax,0x8(%rsp)
    80db:	e8 8f 26 00 00       	callq  a76f <_Py_DECREF.isra.0>
    80e0:	48 89 ef             	mov    %rbp,%rdi
    80e3:	e8 87 26 00 00       	callq  a76f <_Py_DECREF.isra.0>
    80e8:	4c 8b 4c 24 08       	mov    0x8(%rsp),%r9
    80ed:	4c 89 cf             	mov    %r9,%rdi
    80f0:	e8 b1 22 00 00       	callq  a3a6 <__Pyx_PyObject_IsTrue>
    80f5:	4c 8b 4c 24 08       	mov    0x8(%rsp),%r9
    80fa:	85 c0                	test   %eax,%eax
    80fc:	0f 88 e6 16 00 00    	js     97e8 <__pyx_pymod_exec_arrow_mouse+0x4657>
    8102:	75 1e                	jne    8122 <__pyx_pymod_exec_arrow_mouse+0x2f91>
    8104:	4c 89 cf             	mov    %r9,%rdi
    8107:	e8 63 26 00 00       	callq  a76f <_Py_DECREF.isra.0>
    810c:	48 8b 05 8d bf 00 00 	mov    0xbf8d(%rip),%rax        # 140a0 <__pyx_d>
    8113:	48 8b 0d 56 ba 00 00 	mov    0xba56(%rip),%rcx        # 13b70 <__pyx_dict_version.16153>
    811a:	48 39 48 18          	cmp    %rcx,0x18(%rax)
    811e:	74 1f                	je     813f <__pyx_pymod_exec_arrow_mouse+0x2fae>
    8120:	eb 3c                	jmp    815e <__pyx_pymod_exec_arrow_mouse+0x2fcd>
    8122:	49 ff 01             	incq   (%r9)
    8125:	4c 89 cf             	mov    %r9,%rdi
    8128:	4c 89 4c 24 08       	mov    %r9,0x8(%rsp)
    812d:	e8 3d 26 00 00       	callq  a76f <_Py_DECREF.isra.0>
    8132:	4c 8b 4c 24 08       	mov    0x8(%rsp),%r9
    8137:	4c 89 cd             	mov    %r9,%rbp
    813a:	e9 f6 00 00 00       	jmpq   8235 <__pyx_pymod_exec_arrow_mouse+0x30a4>
    813f:	4c 8b 0d 22 ba 00 00 	mov    0xba22(%rip),%r9        # 13b68 <__pyx_dict_cached_value.16154>
    8146:	4d 85 c9             	test   %r9,%r9
    8149:	74 05                	je     8150 <__pyx_pymod_exec_arrow_mouse+0x2fbf>
    814b:	49 ff 01             	incq   (%r9)
    814e:	eb 37                	jmp    8187 <__pyx_pymod_exec_arrow_mouse+0x2ff6>
    8150:	48 8b 3d d1 bc 00 00 	mov    0xbcd1(%rip),%rdi        # 13e28 <__pyx_n_s_y>
